; Listing generated by Microsoft (R) Optimizing Compiler Version 19.39.33321.0 

	TITLE	c:\users\pichau\documents\boldergarte\softwares\libraries\downloads\zlib\zlib-develop\zlib-develop\contrib\vstudio\vc17\x86\zlibdllrelease\tmp\trees.obj
	.686P
	.XMM
	include listing.inc
	.model	flat

INCLUDELIB OLDNAMES

PUBLIC	__length_code
PUBLIC	__dist_code
__length_code DB 00H
	DB	01H
	DB	02H
	DB	03H
	DB	04H
	DB	05H
	DB	06H
	DB	07H
	DB	08H
	DB	08H
	DB	09H
	DB	09H
	DB	0aH
	DB	0aH
	DB	0bH
	DB	0bH
	DB	0cH
	DB	0cH
	DB	0cH
	DB	0cH
	DB	0dH
	DB	0dH
	DB	0dH
	DB	0dH
	DB	0eH
	DB	0eH
	DB	0eH
	DB	0eH
	DB	0fH
	DB	0fH
	DB	0fH
	DB	0fH
	DB	010H
	DB	010H
	DB	010H
	DB	010H
	DB	010H
	DB	010H
	DB	010H
	DB	010H
	DB	011H
	DB	011H
	DB	011H
	DB	011H
	DB	011H
	DB	011H
	DB	011H
	DB	011H
	DB	012H
	DB	012H
	DB	012H
	DB	012H
	DB	012H
	DB	012H
	DB	012H
	DB	012H
	DB	013H
	DB	013H
	DB	013H
	DB	013H
	DB	013H
	DB	013H
	DB	013H
	DB	013H
	DB	014H
	DB	014H
	DB	014H
	DB	014H
	DB	014H
	DB	014H
	DB	014H
	DB	014H
	DB	014H
	DB	014H
	DB	014H
	DB	014H
	DB	014H
	DB	014H
	DB	014H
	DB	014H
	DB	015H
	DB	015H
	DB	015H
	DB	015H
	DB	015H
	DB	015H
	DB	015H
	DB	015H
	DB	015H
	DB	015H
	DB	015H
	DB	015H
	DB	015H
	DB	015H
	DB	015H
	DB	015H
	DB	016H
	DB	016H
	DB	016H
	DB	016H
	DB	016H
	DB	016H
	DB	016H
	DB	016H
	DB	016H
	DB	016H
	DB	016H
	DB	016H
	DB	016H
	DB	016H
	DB	016H
	DB	016H
	DB	017H
	DB	017H
	DB	017H
	DB	017H
	DB	017H
	DB	017H
	DB	017H
	DB	017H
	DB	017H
	DB	017H
	DB	017H
	DB	017H
	DB	017H
	DB	017H
	DB	017H
	DB	017H
	DB	018H
	DB	018H
	DB	018H
	DB	018H
	DB	018H
	DB	018H
	DB	018H
	DB	018H
	DB	018H
	DB	018H
	DB	018H
	DB	018H
	DB	018H
	DB	018H
	DB	018H
	DB	018H
	DB	018H
	DB	018H
	DB	018H
	DB	018H
	DB	018H
	DB	018H
	DB	018H
	DB	018H
	DB	018H
	DB	018H
	DB	018H
	DB	018H
	DB	018H
	DB	018H
	DB	018H
	DB	018H
	DB	019H
	DB	019H
	DB	019H
	DB	019H
	DB	019H
	DB	019H
	DB	019H
	DB	019H
	DB	019H
	DB	019H
	DB	019H
	DB	019H
	DB	019H
	DB	019H
	DB	019H
	DB	019H
	DB	019H
	DB	019H
	DB	019H
	DB	019H
	DB	019H
	DB	019H
	DB	019H
	DB	019H
	DB	019H
	DB	019H
	DB	019H
	DB	019H
	DB	019H
	DB	019H
	DB	019H
	DB	019H
	DB	01aH
	DB	01aH
	DB	01aH
	DB	01aH
	DB	01aH
	DB	01aH
	DB	01aH
	DB	01aH
	DB	01aH
	DB	01aH
	DB	01aH
	DB	01aH
	DB	01aH
	DB	01aH
	DB	01aH
	DB	01aH
	DB	01aH
	DB	01aH
	DB	01aH
	DB	01aH
	DB	01aH
	DB	01aH
	DB	01aH
	DB	01aH
	DB	01aH
	DB	01aH
	DB	01aH
	DB	01aH
	DB	01aH
	DB	01aH
	DB	01aH
	DB	01aH
	DB	01bH
	DB	01bH
	DB	01bH
	DB	01bH
	DB	01bH
	DB	01bH
	DB	01bH
	DB	01bH
	DB	01bH
	DB	01bH
	DB	01bH
	DB	01bH
	DB	01bH
	DB	01bH
	DB	01bH
	DB	01bH
	DB	01bH
	DB	01bH
	DB	01bH
	DB	01bH
	DB	01bH
	DB	01bH
	DB	01bH
	DB	01bH
	DB	01bH
	DB	01bH
	DB	01bH
	DB	01bH
	DB	01bH
	DB	01bH
	DB	01bH
	DB	01cH
__dist_code DB	00H
	DB	01H
	DB	02H
	DB	03H
	DB	04H
	DB	04H
	DB	05H
	DB	05H
	DB	06H
	DB	06H
	DB	06H
	DB	06H
	DB	07H
	DB	07H
	DB	07H
	DB	07H
	DB	08H
	DB	08H
	DB	08H
	DB	08H
	DB	08H
	DB	08H
	DB	08H
	DB	08H
	DB	09H
	DB	09H
	DB	09H
	DB	09H
	DB	09H
	DB	09H
	DB	09H
	DB	09H
	DB	0aH
	DB	0aH
	DB	0aH
	DB	0aH
	DB	0aH
	DB	0aH
	DB	0aH
	DB	0aH
	DB	0aH
	DB	0aH
	DB	0aH
	DB	0aH
	DB	0aH
	DB	0aH
	DB	0aH
	DB	0aH
	DB	0bH
	DB	0bH
	DB	0bH
	DB	0bH
	DB	0bH
	DB	0bH
	DB	0bH
	DB	0bH
	DB	0bH
	DB	0bH
	DB	0bH
	DB	0bH
	DB	0bH
	DB	0bH
	DB	0bH
	DB	0bH
	DB	0cH
	DB	0cH
	DB	0cH
	DB	0cH
	DB	0cH
	DB	0cH
	DB	0cH
	DB	0cH
	DB	0cH
	DB	0cH
	DB	0cH
	DB	0cH
	DB	0cH
	DB	0cH
	DB	0cH
	DB	0cH
	DB	0cH
	DB	0cH
	DB	0cH
	DB	0cH
	DB	0cH
	DB	0cH
	DB	0cH
	DB	0cH
	DB	0cH
	DB	0cH
	DB	0cH
	DB	0cH
	DB	0cH
	DB	0cH
	DB	0cH
	DB	0cH
	DB	0dH
	DB	0dH
	DB	0dH
	DB	0dH
	DB	0dH
	DB	0dH
	DB	0dH
	DB	0dH
	DB	0dH
	DB	0dH
	DB	0dH
	DB	0dH
	DB	0dH
	DB	0dH
	DB	0dH
	DB	0dH
	DB	0dH
	DB	0dH
	DB	0dH
	DB	0dH
	DB	0dH
	DB	0dH
	DB	0dH
	DB	0dH
	DB	0dH
	DB	0dH
	DB	0dH
	DB	0dH
	DB	0dH
	DB	0dH
	DB	0dH
	DB	0dH
	DB	0eH
	DB	0eH
	DB	0eH
	DB	0eH
	DB	0eH
	DB	0eH
	DB	0eH
	DB	0eH
	DB	0eH
	DB	0eH
	DB	0eH
	DB	0eH
	DB	0eH
	DB	0eH
	DB	0eH
	DB	0eH
	DB	0eH
	DB	0eH
	DB	0eH
	DB	0eH
	DB	0eH
	DB	0eH
	DB	0eH
	DB	0eH
	DB	0eH
	DB	0eH
	DB	0eH
	DB	0eH
	DB	0eH
	DB	0eH
	DB	0eH
	DB	0eH
	DB	0eH
	DB	0eH
	DB	0eH
	DB	0eH
	DB	0eH
	DB	0eH
	DB	0eH
	DB	0eH
	DB	0eH
	DB	0eH
	DB	0eH
	DB	0eH
	DB	0eH
	DB	0eH
	DB	0eH
	DB	0eH
	DB	0eH
	DB	0eH
	DB	0eH
	DB	0eH
	DB	0eH
	DB	0eH
	DB	0eH
	DB	0eH
	DB	0eH
	DB	0eH
	DB	0eH
	DB	0eH
	DB	0eH
	DB	0eH
	DB	0eH
	DB	0eH
	DB	0fH
	DB	0fH
	DB	0fH
	DB	0fH
	DB	0fH
	DB	0fH
	DB	0fH
	DB	0fH
	DB	0fH
	DB	0fH
	DB	0fH
	DB	0fH
	DB	0fH
	DB	0fH
	DB	0fH
	DB	0fH
	DB	0fH
	DB	0fH
	DB	0fH
	DB	0fH
	DB	0fH
	DB	0fH
	DB	0fH
	DB	0fH
	DB	0fH
	DB	0fH
	DB	0fH
	DB	0fH
	DB	0fH
	DB	0fH
	DB	0fH
	DB	0fH
	DB	0fH
	DB	0fH
	DB	0fH
	DB	0fH
	DB	0fH
	DB	0fH
	DB	0fH
	DB	0fH
	DB	0fH
	DB	0fH
	DB	0fH
	DB	0fH
	DB	0fH
	DB	0fH
	DB	0fH
	DB	0fH
	DB	0fH
	DB	0fH
	DB	0fH
	DB	0fH
	DB	0fH
	DB	0fH
	DB	0fH
	DB	0fH
	DB	0fH
	DB	0fH
	DB	0fH
	DB	0fH
	DB	0fH
	DB	0fH
	DB	0fH
	DB	0fH
	DB	00H
	DB	00H
	DB	010H
	DB	011H
	DB	012H
	DB	012H
	DB	013H
	DB	013H
	DB	014H
	DB	014H
	DB	014H
	DB	014H
	DB	015H
	DB	015H
	DB	015H
	DB	015H
	DB	016H
	DB	016H
	DB	016H
	DB	016H
	DB	016H
	DB	016H
	DB	016H
	DB	016H
	DB	017H
	DB	017H
	DB	017H
	DB	017H
	DB	017H
	DB	017H
	DB	017H
	DB	017H
	DB	018H
	DB	018H
	DB	018H
	DB	018H
	DB	018H
	DB	018H
	DB	018H
	DB	018H
	DB	018H
	DB	018H
	DB	018H
	DB	018H
	DB	018H
	DB	018H
	DB	018H
	DB	018H
	DB	019H
	DB	019H
	DB	019H
	DB	019H
	DB	019H
	DB	019H
	DB	019H
	DB	019H
	DB	019H
	DB	019H
	DB	019H
	DB	019H
	DB	019H
	DB	019H
	DB	019H
	DB	019H
	DB	01aH
	DB	01aH
	DB	01aH
	DB	01aH
	DB	01aH
	DB	01aH
	DB	01aH
	DB	01aH
	DB	01aH
	DB	01aH
	DB	01aH
	DB	01aH
	DB	01aH
	DB	01aH
	DB	01aH
	DB	01aH
	DB	01aH
	DB	01aH
	DB	01aH
	DB	01aH
	DB	01aH
	DB	01aH
	DB	01aH
	DB	01aH
	DB	01aH
	DB	01aH
	DB	01aH
	DB	01aH
	DB	01aH
	DB	01aH
	DB	01aH
	DB	01aH
	DB	01bH
	DB	01bH
	DB	01bH
	DB	01bH
	DB	01bH
	DB	01bH
	DB	01bH
	DB	01bH
	DB	01bH
	DB	01bH
	DB	01bH
	DB	01bH
	DB	01bH
	DB	01bH
	DB	01bH
	DB	01bH
	DB	01bH
	DB	01bH
	DB	01bH
	DB	01bH
	DB	01bH
	DB	01bH
	DB	01bH
	DB	01bH
	DB	01bH
	DB	01bH
	DB	01bH
	DB	01bH
	DB	01bH
	DB	01bH
	DB	01bH
	DB	01bH
	DB	01cH
	DB	01cH
	DB	01cH
	DB	01cH
	DB	01cH
	DB	01cH
	DB	01cH
	DB	01cH
	DB	01cH
	DB	01cH
	DB	01cH
	DB	01cH
	DB	01cH
	DB	01cH
	DB	01cH
	DB	01cH
	DB	01cH
	DB	01cH
	DB	01cH
	DB	01cH
	DB	01cH
	DB	01cH
	DB	01cH
	DB	01cH
	DB	01cH
	DB	01cH
	DB	01cH
	DB	01cH
	DB	01cH
	DB	01cH
	DB	01cH
	DB	01cH
	DB	01cH
	DB	01cH
	DB	01cH
	DB	01cH
	DB	01cH
	DB	01cH
	DB	01cH
	DB	01cH
	DB	01cH
	DB	01cH
	DB	01cH
	DB	01cH
	DB	01cH
	DB	01cH
	DB	01cH
	DB	01cH
	DB	01cH
	DB	01cH
	DB	01cH
	DB	01cH
	DB	01cH
	DB	01cH
	DB	01cH
	DB	01cH
	DB	01cH
	DB	01cH
	DB	01cH
	DB	01cH
	DB	01cH
	DB	01cH
	DB	01cH
	DB	01cH
	DB	01dH
	DB	01dH
	DB	01dH
	DB	01dH
	DB	01dH
	DB	01dH
	DB	01dH
	DB	01dH
	DB	01dH
	DB	01dH
	DB	01dH
	DB	01dH
	DB	01dH
	DB	01dH
	DB	01dH
	DB	01dH
	DB	01dH
	DB	01dH
	DB	01dH
	DB	01dH
	DB	01dH
	DB	01dH
	DB	01dH
	DB	01dH
	DB	01dH
	DB	01dH
	DB	01dH
	DB	01dH
	DB	01dH
	DB	01dH
	DB	01dH
	DB	01dH
	DB	01dH
	DB	01dH
	DB	01dH
	DB	01dH
	DB	01dH
	DB	01dH
	DB	01dH
	DB	01dH
	DB	01dH
	DB	01dH
	DB	01dH
	DB	01dH
	DB	01dH
	DB	01dH
	DB	01dH
	DB	01dH
	DB	01dH
	DB	01dH
	DB	01dH
	DB	01dH
	DB	01dH
	DB	01dH
	DB	01dH
	DB	01dH
	DB	01dH
	DB	01dH
	DB	01dH
	DB	01dH
	DB	01dH
	DB	01dH
	DB	01dH
	DB	01dH
_static_dtree DW 00H
	DW	05H
	DW	010H
	DW	05H
	DW	08H
	DW	05H
	DW	018H
	DW	05H
	DW	04H
	DW	05H
	DW	014H
	DW	05H
	DW	0cH
	DW	05H
	DW	01cH
	DW	05H
	DW	02H
	DW	05H
	DW	012H
	DW	05H
	DW	0aH
	DW	05H
	DW	01aH
	DW	05H
	DW	06H
	DW	05H
	DW	016H
	DW	05H
	DW	0eH
	DW	05H
	DW	01eH
	DW	05H
	DW	01H
	DW	05H
	DW	011H
	DW	05H
	DW	09H
	DW	05H
	DW	019H
	DW	05H
	DW	05H
	DW	05H
	DW	015H
	DW	05H
	DW	0dH
	DW	05H
	DW	01dH
	DW	05H
	DW	03H
	DW	05H
	DW	013H
	DW	05H
	DW	0bH
	DW	05H
	DW	01bH
	DW	05H
	DW	07H
	DW	05H
	DW	017H
	DW	05H
_extra_blbits DD 00H
	DD	00H
	DD	00H
	DD	00H
	DD	00H
	DD	00H
	DD	00H
	DD	00H
	DD	00H
	DD	00H
	DD	00H
	DD	00H
	DD	00H
	DD	00H
	DD	00H
	DD	00H
	DD	02H
	DD	03H
	DD	07H
	ORG $+4
_extra_lbits DD	00H
	DD	00H
	DD	00H
	DD	00H
	DD	00H
	DD	00H
	DD	00H
	DD	00H
	DD	01H
	DD	01H
	DD	01H
	DD	01H
	DD	02H
	DD	02H
	DD	02H
	DD	02H
	DD	03H
	DD	03H
	DD	03H
	DD	03H
	DD	04H
	DD	04H
	DD	04H
	DD	04H
	DD	05H
	DD	05H
	DD	05H
	DD	05H
	DD	00H
	ORG $+4
_base_dist DD	00H
	DD	01H
	DD	02H
	DD	03H
	DD	04H
	DD	06H
	DD	08H
	DD	0cH
	DD	010H
	DD	018H
	DD	020H
	DD	030H
	DD	040H
	DD	060H
	DD	080H
	DD	0c0H
	DD	0100H
	DD	0180H
	DD	0200H
	DD	0300H
	DD	0400H
	DD	0600H
	DD	0800H
	DD	0c00H
	DD	01000H
	DD	01800H
	DD	02000H
	DD	03000H
	DD	04000H
	DD	06000H
_base_length DD	00H
	DD	01H
	DD	02H
	DD	03H
	DD	04H
	DD	05H
	DD	06H
	DD	07H
	DD	08H
	DD	0aH
	DD	0cH
	DD	0eH
	DD	010H
	DD	014H
	DD	018H
	DD	01cH
	DD	020H
	DD	028H
	DD	030H
	DD	038H
	DD	040H
	DD	050H
	DD	060H
	DD	070H
	DD	080H
	DD	0a0H
	DD	0c0H
	DD	0e0H
	DD	00H
_static_l_desc DD FLAT:_static_ltree
	DD	FLAT:_extra_lbits
	DD	0101H
	DD	011eH
	DD	0fH
_static_bl_desc DD 00H
	DD	FLAT:_extra_blbits
	DD	00H
	DD	013H
	DD	07H
	ORG $+4
_extra_dbits DD	00H
	DD	00H
	DD	00H
	DD	00H
	DD	01H
	DD	01H
	DD	02H
	DD	02H
	DD	03H
	DD	03H
	DD	04H
	DD	04H
	DD	05H
	DD	05H
	DD	06H
	DD	06H
	DD	07H
	DD	07H
	DD	08H
	DD	08H
	DD	09H
	DD	09H
	DD	0aH
	DD	0aH
	DD	0bH
	DD	0bH
	DD	0cH
	DD	0cH
	DD	0dH
	DD	0dH
_static_ltree DW 0cH
	DW	08H
	DW	08cH
	DW	08H
	DW	04cH
	DW	08H
	DW	0ccH
	DW	08H
	DW	02cH
	DW	08H
	DW	0acH
	DW	08H
	DW	06cH
	DW	08H
	DW	0ecH
	DW	08H
	DW	01cH
	DW	08H
	DW	09cH
	DW	08H
	DW	05cH
	DW	08H
	DW	0dcH
	DW	08H
	DW	03cH
	DW	08H
	DW	0bcH
	DW	08H
	DW	07cH
	DW	08H
	DW	0fcH
	DW	08H
	DW	02H
	DW	08H
	DW	082H
	DW	08H
	DW	042H
	DW	08H
	DW	0c2H
	DW	08H
	DW	022H
	DW	08H
	DW	0a2H
	DW	08H
	DW	062H
	DW	08H
	DW	0e2H
	DW	08H
	DW	012H
	DW	08H
	DW	092H
	DW	08H
	DW	052H
	DW	08H
	DW	0d2H
	DW	08H
	DW	032H
	DW	08H
	DW	0b2H
	DW	08H
	DW	072H
	DW	08H
	DW	0f2H
	DW	08H
	DW	0aH
	DW	08H
	DW	08aH
	DW	08H
	DW	04aH
	DW	08H
	DW	0caH
	DW	08H
	DW	02aH
	DW	08H
	DW	0aaH
	DW	08H
	DW	06aH
	DW	08H
	DW	0eaH
	DW	08H
	DW	01aH
	DW	08H
	DW	09aH
	DW	08H
	DW	05aH
	DW	08H
	DW	0daH
	DW	08H
	DW	03aH
	DW	08H
	DW	0baH
	DW	08H
	DW	07aH
	DW	08H
	DW	0faH
	DW	08H
	DW	06H
	DW	08H
	DW	086H
	DW	08H
	DW	046H
	DW	08H
	DW	0c6H
	DW	08H
	DW	026H
	DW	08H
	DW	0a6H
	DW	08H
	DW	066H
	DW	08H
	DW	0e6H
	DW	08H
	DW	016H
	DW	08H
	DW	096H
	DW	08H
	DW	056H
	DW	08H
	DW	0d6H
	DW	08H
	DW	036H
	DW	08H
	DW	0b6H
	DW	08H
	DW	076H
	DW	08H
	DW	0f6H
	DW	08H
	DW	0eH
	DW	08H
	DW	08eH
	DW	08H
	DW	04eH
	DW	08H
	DW	0ceH
	DW	08H
	DW	02eH
	DW	08H
	DW	0aeH
	DW	08H
	DW	06eH
	DW	08H
	DW	0eeH
	DW	08H
	DW	01eH
	DW	08H
	DW	09eH
	DW	08H
	DW	05eH
	DW	08H
	DW	0deH
	DW	08H
	DW	03eH
	DW	08H
	DW	0beH
	DW	08H
	DW	07eH
	DW	08H
	DW	0feH
	DW	08H
	DW	01H
	DW	08H
	DW	081H
	DW	08H
	DW	041H
	DW	08H
	DW	0c1H
	DW	08H
	DW	021H
	DW	08H
	DW	0a1H
	DW	08H
	DW	061H
	DW	08H
	DW	0e1H
	DW	08H
	DW	011H
	DW	08H
	DW	091H
	DW	08H
	DW	051H
	DW	08H
	DW	0d1H
	DW	08H
	DW	031H
	DW	08H
	DW	0b1H
	DW	08H
	DW	071H
	DW	08H
	DW	0f1H
	DW	08H
	DW	09H
	DW	08H
	DW	089H
	DW	08H
	DW	049H
	DW	08H
	DW	0c9H
	DW	08H
	DW	029H
	DW	08H
	DW	0a9H
	DW	08H
	DW	069H
	DW	08H
	DW	0e9H
	DW	08H
	DW	019H
	DW	08H
	DW	099H
	DW	08H
	DW	059H
	DW	08H
	DW	0d9H
	DW	08H
	DW	039H
	DW	08H
	DW	0b9H
	DW	08H
	DW	079H
	DW	08H
	DW	0f9H
	DW	08H
	DW	05H
	DW	08H
	DW	085H
	DW	08H
	DW	045H
	DW	08H
	DW	0c5H
	DW	08H
	DW	025H
	DW	08H
	DW	0a5H
	DW	08H
	DW	065H
	DW	08H
	DW	0e5H
	DW	08H
	DW	015H
	DW	08H
	DW	095H
	DW	08H
	DW	055H
	DW	08H
	DW	0d5H
	DW	08H
	DW	035H
	DW	08H
	DW	0b5H
	DW	08H
	DW	075H
	DW	08H
	DW	0f5H
	DW	08H
	DW	0dH
	DW	08H
	DW	08dH
	DW	08H
	DW	04dH
	DW	08H
	DW	0cdH
	DW	08H
	DW	02dH
	DW	08H
	DW	0adH
	DW	08H
	DW	06dH
	DW	08H
	DW	0edH
	DW	08H
	DW	01dH
	DW	08H
	DW	09dH
	DW	08H
	DW	05dH
	DW	08H
	DW	0ddH
	DW	08H
	DW	03dH
	DW	08H
	DW	0bdH
	DW	08H
	DW	07dH
	DW	08H
	DW	0fdH
	DW	08H
	DW	013H
	DW	09H
	DW	0113H
	DW	09H
	DW	093H
	DW	09H
	DW	0193H
	DW	09H
	DW	053H
	DW	09H
	DW	0153H
	DW	09H
	DW	0d3H
	DW	09H
	DW	01d3H
	DW	09H
	DW	033H
	DW	09H
	DW	0133H
	DW	09H
	DW	0b3H
	DW	09H
	DW	01b3H
	DW	09H
	DW	073H
	DW	09H
	DW	0173H
	DW	09H
	DW	0f3H
	DW	09H
	DW	01f3H
	DW	09H
	DW	0bH
	DW	09H
	DW	010bH
	DW	09H
	DW	08bH
	DW	09H
	DW	018bH
	DW	09H
	DW	04bH
	DW	09H
	DW	014bH
	DW	09H
	DW	0cbH
	DW	09H
	DW	01cbH
	DW	09H
	DW	02bH
	DW	09H
	DW	012bH
	DW	09H
	DW	0abH
	DW	09H
	DW	01abH
	DW	09H
	DW	06bH
	DW	09H
	DW	016bH
	DW	09H
	DW	0ebH
	DW	09H
	DW	01ebH
	DW	09H
	DW	01bH
	DW	09H
	DW	011bH
	DW	09H
	DW	09bH
	DW	09H
	DW	019bH
	DW	09H
	DW	05bH
	DW	09H
	DW	015bH
	DW	09H
	DW	0dbH
	DW	09H
	DW	01dbH
	DW	09H
	DW	03bH
	DW	09H
	DW	013bH
	DW	09H
	DW	0bbH
	DW	09H
	DW	01bbH
	DW	09H
	DW	07bH
	DW	09H
	DW	017bH
	DW	09H
	DW	0fbH
	DW	09H
	DW	01fbH
	DW	09H
	DW	07H
	DW	09H
	DW	0107H
	DW	09H
	DW	087H
	DW	09H
	DW	0187H
	DW	09H
	DW	047H
	DW	09H
	DW	0147H
	DW	09H
	DW	0c7H
	DW	09H
	DW	01c7H
	DW	09H
	DW	027H
	DW	09H
	DW	0127H
	DW	09H
	DW	0a7H
	DW	09H
	DW	01a7H
	DW	09H
	DW	067H
	DW	09H
	DW	0167H
	DW	09H
	DW	0e7H
	DW	09H
	DW	01e7H
	DW	09H
	DW	017H
	DW	09H
	DW	0117H
	DW	09H
	DW	097H
	DW	09H
	DW	0197H
	DW	09H
	DW	057H
	DW	09H
	DW	0157H
	DW	09H
	DW	0d7H
	DW	09H
	DW	01d7H
	DW	09H
	DW	037H
	DW	09H
	DW	0137H
	DW	09H
	DW	0b7H
	DW	09H
	DW	01b7H
	DW	09H
	DW	077H
	DW	09H
	DW	0177H
	DW	09H
	DW	0f7H
	DW	09H
	DW	01f7H
	DW	09H
	DW	0fH
	DW	09H
	DW	010fH
	DW	09H
	DW	08fH
	DW	09H
	DW	018fH
	DW	09H
	DW	04fH
	DW	09H
	DW	014fH
	DW	09H
	DW	0cfH
	DW	09H
	DW	01cfH
	DW	09H
	DW	02fH
	DW	09H
	DW	012fH
	DW	09H
	DW	0afH
	DW	09H
	DW	01afH
	DW	09H
	DW	06fH
	DW	09H
	DW	016fH
	DW	09H
	DW	0efH
	DW	09H
	DW	01efH
	DW	09H
	DW	01fH
	DW	09H
	DW	011fH
	DW	09H
	DW	09fH
	DW	09H
	DW	019fH
	DW	09H
	DW	05fH
	DW	09H
	DW	015fH
	DW	09H
	DW	0dfH
	DW	09H
	DW	01dfH
	DW	09H
	DW	03fH
	DW	09H
	DW	013fH
	DW	09H
	DW	0bfH
	DW	09H
	DW	01bfH
	DW	09H
	DW	07fH
	DW	09H
	DW	017fH
	DW	09H
	DW	0ffH
	DW	09H
	DW	01ffH
	DW	09H
	DW	00H
	DW	07H
	DW	040H
	DW	07H
	DW	020H
	DW	07H
	DW	060H
	DW	07H
	DW	010H
	DW	07H
	DW	050H
	DW	07H
	DW	030H
	DW	07H
	DW	070H
	DW	07H
	DW	08H
	DW	07H
	DW	048H
	DW	07H
	DW	028H
	DW	07H
	DW	068H
	DW	07H
	DW	018H
	DW	07H
	DW	058H
	DW	07H
	DW	038H
	DW	07H
	DW	078H
	DW	07H
	DW	04H
	DW	07H
	DW	044H
	DW	07H
	DW	024H
	DW	07H
	DW	064H
	DW	07H
	DW	014H
	DW	07H
	DW	054H
	DW	07H
	DW	034H
	DW	07H
	DW	074H
	DW	07H
	DW	03H
	DW	08H
	DW	083H
	DW	08H
	DW	043H
	DW	08H
	DW	0c3H
	DW	08H
	DW	023H
	DW	08H
	DW	0a3H
	DW	08H
	DW	063H
	DW	08H
	DW	0e3H
	DW	08H
_static_d_desc DD FLAT:_static_dtree
	DD	FLAT:_extra_dbits
	DD	00H
	DD	01eH
	DD	0fH
_bl_order DB	010H
	DB	011H
	DB	012H
	DB	00H
	DB	08H
	DB	07H
	DB	09H
	DB	06H
	DB	0aH
	DB	05H
	DB	0bH
	DB	04H
	DB	0cH
	DB	03H
	DB	0dH
	DB	02H
	DB	0eH
	DB	01H
	DB	0fH
PUBLIC	__tr_align
PUBLIC	__tr_init
PUBLIC	__tr_flush_block
PUBLIC	__tr_flush_bits
PUBLIC	__tr_stored_block
; Function compile flags: /Ogtp
; File C:\Users\Pichau\Documents\Boldergarte\Softwares\LIBRARIES\downloads\zlib\zlib-develop\zlib-develop\trees.c
;	COMDAT __tr_stored_block
_TEXT	SEGMENT
_buf$1$ = -4						; size = 4
_stored_len$ = 8					; size = 4
_last$ = 12						; size = 4
__tr_stored_block PROC					; COMDAT
; _s$ = ecx
; _buf$ = edx

; 859  :                                     ulg stored_len, int last) {

  00000	55		 push	 ebp
  00001	8b ec		 mov	 ebp, esp
  00003	51		 push	 ecx
  00004	53		 push	 ebx
  00005	56		 push	 esi
  00006	57		 push	 edi
  00007	8b f9		 mov	 edi, ecx
  00009	8b f2		 mov	 esi, edx
  0000b	89 75 fc	 mov	 DWORD PTR _buf$1$[ebp], esi

; 860  :     send_bits(s, (STORED_BLOCK<<1) + last, 3);  /* send block type */

  0000e	8b 8f bc 16 00
	00		 mov	 ecx, DWORD PTR [edi+5820]
  00014	0f b7 9f b8 16
	00 00		 movzx	 ebx, WORD PTR [edi+5816]
  0001b	83 f9 0d	 cmp	 ecx, 13			; 0000000dH
  0001e	7e 4f		 jle	 SHORT $LN2@tr_stored_
  00020	0f b7 75 0c	 movzx	 esi, WORD PTR _last$[ebp]
  00024	8b 47 14	 mov	 eax, DWORD PTR [edi+20]
  00027	66 8b d6	 mov	 dx, si
  0002a	66 d3 e2	 shl	 dx, cl
  0002d	8b 4f 08	 mov	 ecx, DWORD PTR [edi+8]
  00030	66 0b d3	 or	 dx, bx
  00033	66 89 97 b8 16
	00 00		 mov	 WORD PTR [edi+5816], dx
  0003a	88 14 01	 mov	 BYTE PTR [ecx+eax], dl
  0003d	ff 47 14	 inc	 DWORD PTR [edi+20]
  00040	8b 57 14	 mov	 edx, DWORD PTR [edi+20]
  00043	8b 4f 08	 mov	 ecx, DWORD PTR [edi+8]
  00046	8a 87 b9 16 00
	00		 mov	 al, BYTE PTR [edi+5817]
  0004c	88 04 0a	 mov	 BYTE PTR [edx+ecx], al
  0004f	b1 10		 mov	 cl, 16			; 00000010H
  00051	0f b7 87 bc 16
	00 00		 movzx	 eax, WORD PTR [edi+5820]
  00058	ff 47 14	 inc	 DWORD PTR [edi+20]
  0005b	2a c8		 sub	 cl, al
  0005d	83 87 bc 16 00
	00 f3		 add	 DWORD PTR [edi+5820], -13 ; fffffff3H
  00064	66 d3 ee	 shr	 si, cl
  00067	0f b7 c6	 movzx	 eax, si
  0006a	8b 75 fc	 mov	 esi, DWORD PTR _buf$1$[ebp]
  0006d	eb 16		 jmp	 SHORT $LN3@tr_stored_
$LN2@tr_stored_:
  0006f	8d 41 03	 lea	 eax, DWORD PTR [ecx+3]
  00072	89 87 bc 16 00
	00		 mov	 DWORD PTR [edi+5820], eax
  00078	66 8b 45 0c	 mov	 ax, WORD PTR _last$[ebp]
  0007c	66 d3 e0	 shl	 ax, cl
  0007f	66 0b c3	 or	 ax, bx
  00082	0f b7 c0	 movzx	 eax, ax
$LN3@tr_stored_:

; 861  :     bi_windup(s);        /* align on byte boundary */

  00085	8b cf		 mov	 ecx, edi
  00087	66 89 87 b8 16
	00 00		 mov	 WORD PTR [edi+5816], ax
  0008e	e8 00 00 00 00	 call	 _bi_windup

; 862  :     put_short(s, (ush)stored_len);

  00093	8b 4f 14	 mov	 ecx, DWORD PTR [edi+20]
  00096	8b 47 08	 mov	 eax, DWORD PTR [edi+8]
  00099	8b 5d 08	 mov	 ebx, DWORD PTR _stored_len$[ebp]
  0009c	88 1c 01	 mov	 BYTE PTR [ecx+eax], bl
  0009f	ff 47 14	 inc	 DWORD PTR [edi+20]
  000a2	8b 57 14	 mov	 edx, DWORD PTR [edi+20]
  000a5	8b 47 08	 mov	 eax, DWORD PTR [edi+8]
  000a8	0f b7 db	 movzx	 ebx, bx
  000ab	8b cb		 mov	 ecx, ebx

; 863  :     put_short(s, (ush)~stored_len);

  000ad	f7 d3		 not	 ebx
  000af	c1 e9 08	 shr	 ecx, 8
  000b2	88 0c 02	 mov	 BYTE PTR [edx+eax], cl
  000b5	ff 47 14	 inc	 DWORD PTR [edi+20]
  000b8	8b 57 14	 mov	 edx, DWORD PTR [edi+20]
  000bb	8b 47 08	 mov	 eax, DWORD PTR [edi+8]
  000be	8a 4d 08	 mov	 cl, BYTE PTR _stored_len$[ebp]
  000c1	f6 d1		 not	 cl
  000c3	c1 eb 08	 shr	 ebx, 8
  000c6	88 0c 02	 mov	 BYTE PTR [edx+eax], cl
  000c9	ff 47 14	 inc	 DWORD PTR [edi+20]
  000cc	8b 4f 14	 mov	 ecx, DWORD PTR [edi+20]
  000cf	8b 47 08	 mov	 eax, DWORD PTR [edi+8]
  000d2	88 1c 01	 mov	 BYTE PTR [ecx+eax], bl
  000d5	8b 4f 14	 mov	 ecx, DWORD PTR [edi+20]

; 864  :     if (stored_len)

  000d8	8b 5d 08	 mov	 ebx, DWORD PTR _stored_len$[ebp]
  000db	41		 inc	 ecx
  000dc	89 4f 14	 mov	 DWORD PTR [edi+20], ecx
  000df	85 db		 test	 ebx, ebx
  000e1	74 10		 je	 SHORT $LN6@tr_stored_

; 865  :         zmemcpy(s->pending_buf + s->pending, (Bytef *)buf, stored_len);

  000e3	8b 47 08	 mov	 eax, DWORD PTR [edi+8]
  000e6	53		 push	 ebx
  000e7	03 c1		 add	 eax, ecx
  000e9	56		 push	 esi
  000ea	50		 push	 eax
  000eb	e8 00 00 00 00	 call	 _memcpy
  000f0	83 c4 0c	 add	 esp, 12			; 0000000cH
$LN6@tr_stored_:

; 866  :     s->pending += stored_len;
; 867  : #ifdef ZLIB_DEBUG
; 868  :     s->compressed_len = (s->compressed_len + 3 + 7) & (ulg)~7L;
; 869  :     s->compressed_len += (stored_len + 4) << 3;
; 870  :     s->bits_sent += 2*16;
; 871  :     s->bits_sent += stored_len << 3;
; 872  : #endif
; 873  : }

  000f3	01 5f 14	 add	 DWORD PTR [edi+20], ebx
  000f6	5f		 pop	 edi
  000f7	5e		 pop	 esi
  000f8	5b		 pop	 ebx
  000f9	8b e5		 mov	 esp, ebp
  000fb	5d		 pop	 ebp
  000fc	c3		 ret	 0
__tr_stored_block ENDP
_TEXT	ENDS
; Function compile flags: /Ogtp
; File C:\Users\Pichau\Documents\Boldergarte\Softwares\LIBRARIES\downloads\zlib\zlib-develop\zlib-develop\trees.c
;	COMDAT __tr_flush_bits
_TEXT	SEGMENT
__tr_flush_bits PROC					; COMDAT
; _s$ = ecx

; 879  :     bi_flush(s);

  00000	e9 00 00 00 00	 jmp	 _bi_flush
__tr_flush_bits ENDP
_TEXT	ENDS
; Function compile flags: /Ogtp
; File C:\Users\Pichau\Documents\Boldergarte\Softwares\LIBRARIES\downloads\zlib\zlib-develop\zlib-develop\trees.c
;	COMDAT __tr_flush_block
_TEXT	SEGMENT
tv626 = -8						; size = 4
_max_blindex$1$ = -8					; size = 4
tv629 = -4						; size = 4
_buf$1$ = -4						; size = 4
tv619 = 8						; size = 4
_stored_len$ = 8					; size = 4
_last$ = 12						; size = 4
__tr_flush_block PROC					; COMDAT
; _s$ = ecx
; _buf$ = edx

; 996  :                                    ulg stored_len, int last) {

  00000	55		 push	 ebp
  00001	8b ec		 mov	 ebp, esp
  00003	83 ec 08	 sub	 esp, 8
  00006	53		 push	 ebx
  00007	56		 push	 esi

; 997  :     ulg opt_lenb, static_lenb; /* opt_len and static_len in bytes */
; 998  :     int max_blindex = 0;  /* index of last bit length code of non zero freq */
; 999  : 
; 1000 :     /* Build the Huffman trees unless a stored block is forced */
; 1001 :     if (s->level > 0) {

  00008	8b 75 08	 mov	 esi, DWORD PTR _stored_len$[ebp]
  0000b	8b da		 mov	 ebx, edx
  0000d	57		 push	 edi
  0000e	8b f9		 mov	 edi, ecx
  00010	89 5d fc	 mov	 DWORD PTR _buf$1$[ebp], ebx
  00013	c7 45 f8 00 00
	00 00		 mov	 DWORD PTR _max_blindex$1$[ebp], 0
  0001a	83 bf 84 00 00
	00 00		 cmp	 DWORD PTR [edi+132], 0
  00021	0f 8e 80 00 00
	00		 jle	 $LN2@tr_flush_b

; 1002 : 
; 1003 :         /* Check if the file is binary or text */
; 1004 :         if (s->strm->data_type == Z_UNKNOWN)

  00027	8b 1f		 mov	 ebx, DWORD PTR [edi]
  00029	83 7b 2c 02	 cmp	 DWORD PTR [ebx+44], 2
  0002d	75 08		 jne	 SHORT $LN4@tr_flush_b

; 1005 :             s->strm->data_type = detect_data_type(s);

  0002f	e8 00 00 00 00	 call	 _detect_data_type
  00034	89 43 2c	 mov	 DWORD PTR [ebx+44], eax
$LN4@tr_flush_b:

; 1006 : 
; 1007 :         /* Construct the literal and distance trees */
; 1008 :         build_tree(s, (tree_desc *)(&(s->l_desc)));

  00037	8d 97 18 0b 00
	00		 lea	 edx, DWORD PTR [edi+2840]
  0003d	8b cf		 mov	 ecx, edi
  0003f	e8 00 00 00 00	 call	 _build_tree

; 1009 :         Tracev((stderr, "\nlit data: dyn %ld, stat %ld", s->opt_len,
; 1010 :                 s->static_len));
; 1011 : 
; 1012 :         build_tree(s, (tree_desc *)(&(s->d_desc)));

  00044	8d 97 24 0b 00
	00		 lea	 edx, DWORD PTR [edi+2852]
  0004a	8b cf		 mov	 ecx, edi
  0004c	e8 00 00 00 00	 call	 _build_tree

; 1013 :         Tracev((stderr, "\ndist data: dyn %ld, stat %ld", s->opt_len,
; 1014 :                 s->static_len));
; 1015 :         /* At this point, opt_len and static_len are the total bit lengths of
; 1016 :          * the compressed block data, excluding the tree representations.
; 1017 :          */
; 1018 : 
; 1019 :         /* Build the bit length tree for the above two trees, and get the index
; 1020 :          * in bl_order of the last bit length code to send.
; 1021 :          */
; 1022 :         max_blindex = build_bl_tree(s);

  00051	8b cf		 mov	 ecx, edi
  00053	e8 00 00 00 00	 call	 _build_bl_tree

; 1023 : 
; 1024 :         /* Determine the best encoding. Compute the block lengths in bytes. */
; 1025 :         opt_lenb = (s->opt_len + 3 + 7) >> 3;

  00058	8b 8f a8 16 00
	00		 mov	 ecx, DWORD PTR [edi+5800]

; 1026 :         static_lenb = (s->static_len + 3 + 7) >> 3;

  0005e	8b 97 ac 16 00
	00		 mov	 edx, DWORD PTR [edi+5804]
  00064	83 c1 0a	 add	 ecx, 10			; 0000000aH
  00067	83 c2 0a	 add	 edx, 10			; 0000000aH
  0006a	c1 e9 03	 shr	 ecx, 3
  0006d	c1 ea 03	 shr	 edx, 3
  00070	89 45 f8	 mov	 DWORD PTR _max_blindex$1$[ebp], eax

; 1027 : 
; 1028 :         Tracev((stderr, "\nopt %lu(%lu) stat %lu(%lu) stored %lu lit %u ",
; 1029 :                 opt_lenb, s->opt_len, static_lenb, s->static_len, stored_len,
; 1030 :                 s->sym_next / 3));
; 1031 : 
; 1032 : #ifndef FORCE_STATIC
; 1033 :         if (static_lenb <= opt_lenb || s->strategy == Z_FIXED)

  00073	3b d1		 cmp	 edx, ecx
  00075	76 09		 jbe	 SHORT $LN6@tr_flush_b
  00077	83 bf 88 00 00
	00 04		 cmp	 DWORD PTR [edi+136], 4
  0007e	75 02		 jne	 SHORT $LN17@tr_flush_b
$LN6@tr_flush_b:

; 1034 : #endif
; 1035 :             opt_lenb = static_lenb;

  00080	8b ca		 mov	 ecx, edx
$LN17@tr_flush_b:

; 1040 :     }
; 1041 : 
; 1042 : #ifdef FORCE_STORED
; 1043 :     if (buf != (char*)0) { /* force stored block */
; 1044 : #else
; 1045 :     if (stored_len + 4 <= opt_lenb && buf != (char*)0) {

  00082	8b 5d fc	 mov	 ebx, DWORD PTR _buf$1$[ebp]
$LN3@tr_flush_b:
  00085	8d 46 04	 lea	 eax, DWORD PTR [esi+4]
  00088	3b c1		 cmp	 eax, ecx
  0008a	77 22		 ja	 SHORT $LN7@tr_flush_b
  0008c	85 db		 test	 ebx, ebx
  0008e	74 1e		 je	 SHORT $LN7@tr_flush_b

; 1046 :                        /* 4: two words for the lengths */
; 1047 : #endif
; 1048 :         /* The test buf != NULL is only necessary if LIT_BUFSIZE > WSIZE.
; 1049 :          * Otherwise we can't have processed more than WSIZE input bytes since
; 1050 :          * the last block flush, because compression would have been
; 1051 :          * successful. If LIT_BUFSIZE <= WSIZE, it is never too late to
; 1052 :          * transform a block into a stored block.
; 1053 :          */
; 1054 :         _tr_stored_block(s, buf, stored_len, last);

  00090	8b 5d 0c	 mov	 ebx, DWORD PTR _last$[ebp]
  00093	8b cf		 mov	 ecx, edi
  00095	8b 55 fc	 mov	 edx, DWORD PTR _buf$1$[ebp]
  00098	53		 push	 ebx
  00099	56		 push	 esi
  0009a	e8 00 00 00 00	 call	 __tr_stored_block
  0009f	83 c4 08	 add	 esp, 8
  000a2	e9 59 01 00 00	 jmp	 $LN10@tr_flush_b
$LN2@tr_flush_b:

; 1036 : 
; 1037 :     } else {
; 1038 :         Assert(buf != (char*)0, "lost buf");
; 1039 :         opt_lenb = static_lenb = stored_len + 5; /* force a stored block */

  000a7	8d 56 05	 lea	 edx, DWORD PTR [esi+5]
  000aa	8b ca		 mov	 ecx, edx
  000ac	eb d7		 jmp	 SHORT $LN3@tr_flush_b
$LN7@tr_flush_b:

; 1055 : 
; 1056 :     } else if (static_lenb == opt_lenb) {

  000ae	0f b7 b7 b8 16
	00 00		 movzx	 esi, WORD PTR [edi+5816]
  000b5	3b d1		 cmp	 edx, ecx
  000b7	8b 87 bc 16 00
	00		 mov	 eax, DWORD PTR [edi+5820]
  000bd	8b d6		 mov	 edx, esi
  000bf	8b 5d 0c	 mov	 ebx, DWORD PTR _last$[ebp]
  000c2	89 45 08	 mov	 DWORD PTR tv619[ebp], eax
  000c5	0f 85 8e 00 00
	00		 jne	 $LN9@tr_flush_b

; 1057 :         send_bits(s, (STATIC_TREES<<1) + last, 3);

  000cb	89 55 f8	 mov	 DWORD PTR tv626[ebp], edx
  000ce	83 f8 0d	 cmp	 eax, 13			; 0000000dH
  000d1	7e 4e		 jle	 SHORT $LN11@tr_flush_b
  000d3	8b c8		 mov	 ecx, eax
  000d5	8d 73 02	 lea	 esi, DWORD PTR [ebx+2]
  000d8	8b 47 08	 mov	 eax, DWORD PTR [edi+8]
  000db	66 8b d6	 mov	 dx, si
  000de	66 d3 e2	 shl	 dx, cl
  000e1	8b 4f 14	 mov	 ecx, DWORD PTR [edi+20]
  000e4	66 0b 55 f8	 or	 dx, WORD PTR tv626[ebp]
  000e8	66 89 97 b8 16
	00 00		 mov	 WORD PTR [edi+5816], dx
  000ef	88 14 01	 mov	 BYTE PTR [ecx+eax], dl
  000f2	ff 47 14	 inc	 DWORD PTR [edi+20]
  000f5	8b 57 14	 mov	 edx, DWORD PTR [edi+20]
  000f8	8b 4f 08	 mov	 ecx, DWORD PTR [edi+8]
  000fb	8a 87 b9 16 00
	00		 mov	 al, BYTE PTR [edi+5817]
  00101	88 04 0a	 mov	 BYTE PTR [edx+ecx], al
  00104	b1 10		 mov	 cl, 16			; 00000010H
  00106	0f b7 87 bc 16
	00 00		 movzx	 eax, WORD PTR [edi+5820]
  0010d	ff 47 14	 inc	 DWORD PTR [edi+20]
  00110	2a c8		 sub	 cl, al
  00112	83 87 bc 16 00
	00 f3		 add	 DWORD PTR [edi+5820], -13 ; fffffff3H
  00119	66 d3 ee	 shr	 si, cl
  0011c	0f b7 c6	 movzx	 eax, si
  0011f	eb 18		 jmp	 SHORT $LN12@tr_flush_b
$LN11@tr_flush_b:
  00121	8b 4d 08	 mov	 ecx, DWORD PTR tv619[ebp]
  00124	83 c0 03	 add	 eax, 3
  00127	89 87 bc 16 00
	00		 mov	 DWORD PTR [edi+5820], eax
  0012d	8d 43 02	 lea	 eax, DWORD PTR [ebx+2]
  00130	66 d3 e0	 shl	 ax, cl
  00133	66 0b c2	 or	 ax, dx
  00136	0f b7 c0	 movzx	 eax, ax
$LN12@tr_flush_b:

; 1058 :         compress_block(s, (const ct_data *)static_ltree,

  00139	68 00 00 00 00	 push	 OFFSET _static_dtree
  0013e	ba 00 00 00 00	 mov	 edx, OFFSET _static_ltree
  00143	66 89 87 b8 16
	00 00		 mov	 WORD PTR [edi+5816], ax
  0014a	8b cf		 mov	 ecx, edi
  0014c	e8 00 00 00 00	 call	 _compress_block
  00151	83 c4 04	 add	 esp, 4

; 1059 :                        (const ct_data *)static_dtree);
; 1060 : #ifdef ZLIB_DEBUG
; 1061 :         s->compressed_len += 3 + s->static_len;
; 1062 : #endif
; 1063 :     } else {

  00154	e9 a7 00 00 00	 jmp	 $LN10@tr_flush_b
$LN9@tr_flush_b:

; 1064 :         send_bits(s, (DYN_TREES<<1) + last, 3);

  00159	89 55 fc	 mov	 DWORD PTR tv629[ebp], edx
  0015c	83 f8 0d	 cmp	 eax, 13			; 0000000dH
  0015f	7e 4e		 jle	 SHORT $LN13@tr_flush_b
  00161	8b c8		 mov	 ecx, eax
  00163	8d 73 04	 lea	 esi, DWORD PTR [ebx+4]
  00166	8b 47 08	 mov	 eax, DWORD PTR [edi+8]
  00169	66 8b d6	 mov	 dx, si
  0016c	66 d3 e2	 shl	 dx, cl
  0016f	8b 4f 14	 mov	 ecx, DWORD PTR [edi+20]
  00172	66 0b 55 fc	 or	 dx, WORD PTR tv629[ebp]
  00176	66 89 97 b8 16
	00 00		 mov	 WORD PTR [edi+5816], dx
  0017d	88 14 01	 mov	 BYTE PTR [ecx+eax], dl
  00180	ff 47 14	 inc	 DWORD PTR [edi+20]
  00183	8b 57 14	 mov	 edx, DWORD PTR [edi+20]
  00186	8b 4f 08	 mov	 ecx, DWORD PTR [edi+8]
  00189	8a 87 b9 16 00
	00		 mov	 al, BYTE PTR [edi+5817]
  0018f	88 04 0a	 mov	 BYTE PTR [edx+ecx], al
  00192	b1 10		 mov	 cl, 16			; 00000010H
  00194	0f b7 87 bc 16
	00 00		 movzx	 eax, WORD PTR [edi+5820]
  0019b	ff 47 14	 inc	 DWORD PTR [edi+20]
  0019e	2a c8		 sub	 cl, al
  001a0	83 87 bc 16 00
	00 f3		 add	 DWORD PTR [edi+5820], -13 ; fffffff3H
  001a7	66 d3 ee	 shr	 si, cl
  001aa	0f b7 c6	 movzx	 eax, si
  001ad	eb 18		 jmp	 SHORT $LN14@tr_flush_b
$LN13@tr_flush_b:
  001af	8b 4d 08	 mov	 ecx, DWORD PTR tv619[ebp]
  001b2	83 c0 03	 add	 eax, 3
  001b5	89 87 bc 16 00
	00		 mov	 DWORD PTR [edi+5820], eax
  001bb	8d 43 04	 lea	 eax, DWORD PTR [ebx+4]
  001be	66 d3 e0	 shl	 ax, cl
  001c1	66 0b c2	 or	 ax, dx
  001c4	0f b7 c0	 movzx	 eax, ax
$LN14@tr_flush_b:

; 1065 :         send_all_trees(s, s->l_desc.max_code + 1, s->d_desc.max_code + 1,

  001c7	66 89 87 b8 16
	00 00		 mov	 WORD PTR [edi+5816], ax
  001ce	8b cf		 mov	 ecx, edi
  001d0	8b 45 f8	 mov	 eax, DWORD PTR _max_blindex$1$[ebp]
  001d3	8b 97 1c 0b 00
	00		 mov	 edx, DWORD PTR [edi+2844]
  001d9	40		 inc	 eax
  001da	50		 push	 eax
  001db	8b 87 28 0b 00
	00		 mov	 eax, DWORD PTR [edi+2856]
  001e1	42		 inc	 edx
  001e2	40		 inc	 eax
  001e3	50		 push	 eax
  001e4	e8 00 00 00 00	 call	 _send_all_trees

; 1066 :                        max_blindex + 1);
; 1067 :         compress_block(s, (const ct_data *)s->dyn_ltree,

  001e9	8d 87 88 09 00
	00		 lea	 eax, DWORD PTR [edi+2440]
  001ef	8b cf		 mov	 ecx, edi
  001f1	50		 push	 eax
  001f2	8d 97 94 00 00
	00		 lea	 edx, DWORD PTR [edi+148]
  001f8	e8 00 00 00 00	 call	 _compress_block
  001fd	83 c4 0c	 add	 esp, 12			; 0000000cH
$LN10@tr_flush_b:

; 1068 :                        (const ct_data *)s->dyn_dtree);
; 1069 : #ifdef ZLIB_DEBUG
; 1070 :         s->compressed_len += 3 + s->opt_len;
; 1071 : #endif
; 1072 :     }
; 1073 :     Assert (s->compressed_len == s->bits_sent, "bad compressed size");
; 1074 :     /* The above check is made mod 2^32, for files larger than 512 MB
; 1075 :      * and uLong implemented on 32 bits.
; 1076 :      */
; 1077 :     init_block(s);

  00200	8b cf		 mov	 ecx, edi
  00202	e8 00 00 00 00	 call	 _init_block

; 1078 : 
; 1079 :     if (last) {

  00207	85 db		 test	 ebx, ebx
  00209	74 05		 je	 SHORT $LN15@tr_flush_b

; 1080 :         bi_windup(s);

  0020b	e8 00 00 00 00	 call	 _bi_windup
$LN15@tr_flush_b:
  00210	5f		 pop	 edi

; 1081 : #ifdef ZLIB_DEBUG
; 1082 :         s->compressed_len += 7;  /* align on byte boundary */
; 1083 : #endif
; 1084 :     }
; 1085 :     Tracev((stderr,"\ncomprlen %lu(%lu) ", s->compressed_len >> 3,
; 1086 :            s->compressed_len - 7*last));
; 1087 : }

  00211	5e		 pop	 esi
  00212	5b		 pop	 ebx
  00213	8b e5		 mov	 esp, ebp
  00215	5d		 pop	 ebp
  00216	c3		 ret	 0
__tr_flush_block ENDP
_TEXT	ENDS
; Function compile flags: /Ogtp
; File C:\Users\Pichau\Documents\Boldergarte\Softwares\LIBRARIES\downloads\zlib\zlib-develop\zlib-develop\trees.c
;	COMDAT __tr_init
_TEXT	SEGMENT
__tr_init PROC						; COMDAT
; _s$ = ecx

; 456  :     tr_static_init();
; 457  : 
; 458  :     s->l_desc.dyn_tree = s->dyn_ltree;

  00000	8d 81 94 00 00
	00		 lea	 eax, DWORD PTR [ecx+148]

; 459  :     s->l_desc.stat_desc = &static_l_desc;

  00006	c7 81 20 0b 00
	00 00 00 00 00	 mov	 DWORD PTR [ecx+2848], OFFSET _static_l_desc
  00010	89 81 18 0b 00
	00		 mov	 DWORD PTR [ecx+2840], eax

; 460  : 
; 461  :     s->d_desc.dyn_tree = s->dyn_dtree;

  00016	8d 81 88 09 00
	00		 lea	 eax, DWORD PTR [ecx+2440]
  0001c	89 81 24 0b 00
	00		 mov	 DWORD PTR [ecx+2852], eax

; 462  :     s->d_desc.stat_desc = &static_d_desc;
; 463  : 
; 464  :     s->bl_desc.dyn_tree = s->bl_tree;

  00022	8d 81 7c 0a 00
	00		 lea	 eax, DWORD PTR [ecx+2684]
  00028	89 81 30 0b 00
	00		 mov	 DWORD PTR [ecx+2864], eax

; 465  :     s->bl_desc.stat_desc = &static_bl_desc;
; 466  : 
; 467  :     s->bi_buf = 0;

  0002e	33 c0		 xor	 eax, eax
  00030	c7 81 2c 0b 00
	00 00 00 00 00	 mov	 DWORD PTR [ecx+2860], OFFSET _static_d_desc
  0003a	c7 81 38 0b 00
	00 00 00 00 00	 mov	 DWORD PTR [ecx+2872], OFFSET _static_bl_desc
  00044	66 89 81 b8 16
	00 00		 mov	 WORD PTR [ecx+5816], ax

; 468  :     s->bi_valid = 0;

  0004b	89 81 bc 16 00
	00		 mov	 DWORD PTR [ecx+5820], eax

; 469  : #ifdef ZLIB_DEBUG
; 470  :     s->compressed_len = 0L;
; 471  :     s->bits_sent = 0L;
; 472  : #endif
; 473  : 
; 474  :     /* Initialize the first block of the first file: */
; 475  :     init_block(s);

  00051	e9 00 00 00 00	 jmp	 _init_block
__tr_init ENDP
_TEXT	ENDS
; Function compile flags: /Ogtp
; File C:\Users\Pichau\Documents\Boldergarte\Softwares\LIBRARIES\downloads\zlib\zlib-develop\zlib-develop\trees.c
;	COMDAT __tr_align
_TEXT	SEGMENT
__tr_align PROC						; COMDAT
; _s$ = ecx

; 886  : void ZLIB_INTERNAL _tr_align(deflate_state *s) {

  00000	53		 push	 ebx
  00001	56		 push	 esi
  00002	8b f1		 mov	 esi, ecx

; 887  :     send_bits(s, STATIC_TREES<<1, 3);

  00004	bb 02 00 00 00	 mov	 ebx, 2
  00009	8b c3		 mov	 eax, ebx
  0000b	57		 push	 edi
  0000c	8b 8e bc 16 00
	00		 mov	 ecx, DWORD PTR [esi+5820]
  00012	66 d3 e0	 shl	 ax, cl
  00015	0f b7 d0	 movzx	 edx, ax
  00018	0f b7 86 b8 16
	00 00		 movzx	 eax, WORD PTR [esi+5816]
  0001f	0b d0		 or	 edx, eax
  00021	83 f9 0d	 cmp	 ecx, 13			; 0000000dH
  00024	7e 45		 jle	 SHORT $LN2@tr_align
  00026	8b 46 14	 mov	 eax, DWORD PTR [esi+20]
  00029	8b 4e 08	 mov	 ecx, DWORD PTR [esi+8]
  0002c	66 89 96 b8 16
	00 00		 mov	 WORD PTR [esi+5816], dx
  00033	88 14 01	 mov	 BYTE PTR [ecx+eax], dl
  00036	ff 46 14	 inc	 DWORD PTR [esi+20]
  00039	8b 56 14	 mov	 edx, DWORD PTR [esi+20]
  0003c	8b 4e 08	 mov	 ecx, DWORD PTR [esi+8]
  0003f	8a 86 b9 16 00
	00		 mov	 al, BYTE PTR [esi+5817]
  00045	88 04 0a	 mov	 BYTE PTR [edx+ecx], al
  00048	b1 10		 mov	 cl, 16			; 00000010H
  0004a	0f b7 86 bc 16
	00 00		 movzx	 eax, WORD PTR [esi+5820]
  00051	83 86 bc 16 00
	00 f3		 add	 DWORD PTR [esi+5820], -13 ; fffffff3H
  00058	2a c8		 sub	 cl, al
  0005a	ff 46 14	 inc	 DWORD PTR [esi+20]
  0005d	8b be bc 16 00
	00		 mov	 edi, DWORD PTR [esi+5820]
  00063	66 d3 eb	 shr	 bx, cl
  00066	0f b7 d3	 movzx	 edx, bx
  00069	eb 0c		 jmp	 SHORT $LN3@tr_align
$LN2@tr_align:
  0006b	8d 79 03	 lea	 edi, DWORD PTR [ecx+3]
  0006e	0f b7 d2	 movzx	 edx, dx
  00071	89 be bc 16 00
	00		 mov	 DWORD PTR [esi+5820], edi
$LN3@tr_align:

; 888  :     send_code(s, END_BLOCK, static_ltree);

  00077	0f b7 ca	 movzx	 ecx, dx
  0007a	83 ff 09	 cmp	 edi, 9
  0007d	7e 3f		 jle	 SHORT $LN4@tr_align
  0007f	8b 46 14	 mov	 eax, DWORD PTR [esi+20]
  00082	8b 4e 08	 mov	 ecx, DWORD PTR [esi+8]
  00085	66 89 96 b8 16
	00 00		 mov	 WORD PTR [esi+5816], dx

; 889  : #ifdef ZLIB_DEBUG
; 890  :     s->compressed_len += 10L; /* 3 for block type, 7 for EOB */
; 891  : #endif
; 892  :     bi_flush(s);

  0008c	5f		 pop	 edi
  0008d	88 14 01	 mov	 BYTE PTR [ecx+eax], dl
  00090	ff 46 14	 inc	 DWORD PTR [esi+20]
  00093	8b 56 14	 mov	 edx, DWORD PTR [esi+20]
  00096	8b 4e 08	 mov	 ecx, DWORD PTR [esi+8]
  00099	8a 86 b9 16 00
	00		 mov	 al, BYTE PTR [esi+5817]
  0009f	88 04 0a	 mov	 BYTE PTR [edx+ecx], al
  000a2	8b ce		 mov	 ecx, esi
  000a4	ff 46 14	 inc	 DWORD PTR [esi+20]
  000a7	83 86 bc 16 00
	00 f7		 add	 DWORD PTR [esi+5820], -9 ; fffffff7H
  000ae	33 c0		 xor	 eax, eax
  000b0	66 89 86 b8 16
	00 00		 mov	 WORD PTR [esi+5816], ax
  000b7	5e		 pop	 esi
  000b8	5b		 pop	 ebx
  000b9	e9 00 00 00 00	 jmp	 _bi_flush
$LN4@tr_align:

; 888  :     send_code(s, END_BLOCK, static_ltree);

  000be	8d 47 07	 lea	 eax, DWORD PTR [edi+7]
  000c1	89 86 bc 16 00
	00		 mov	 DWORD PTR [esi+5820], eax
  000c7	8b c1		 mov	 eax, ecx

; 889  : #ifdef ZLIB_DEBUG
; 890  :     s->compressed_len += 10L; /* 3 for block type, 7 for EOB */
; 891  : #endif
; 892  :     bi_flush(s);

  000c9	5f		 pop	 edi
  000ca	66 89 86 b8 16
	00 00		 mov	 WORD PTR [esi+5816], ax
  000d1	8b ce		 mov	 ecx, esi
  000d3	5e		 pop	 esi
  000d4	5b		 pop	 ebx
  000d5	e9 00 00 00 00	 jmp	 _bi_flush
__tr_align ENDP
_TEXT	ENDS
; Function compile flags: /Ogtp
; File C:\Users\Pichau\Documents\Boldergarte\Softwares\LIBRARIES\downloads\zlib\zlib-develop\zlib-develop\trees.c
;	COMDAT _bi_reverse
_TEXT	SEGMENT
_bi_reverse PROC					; COMDAT
; _code$ = ecx
; _len$ = edx

; 155  :     register unsigned res = 0;

  00000	33 c0		 xor	 eax, eax
  00002	56		 push	 esi
$LL4@bi_reverse:

; 156  :     do {
; 157  :         res |= code & 1;

  00003	8b f1		 mov	 esi, ecx

; 158  :         code >>= 1, res <<= 1;
; 159  :     } while (--len > 0);

  00005	4a		 dec	 edx
  00006	83 e6 01	 and	 esi, 1
  00009	d1 e9		 shr	 ecx, 1
  0000b	0b c6		 or	 eax, esi
  0000d	03 c0		 add	 eax, eax
  0000f	85 d2		 test	 edx, edx
  00011	7f f0		 jg	 SHORT $LL4@bi_reverse
  00013	5e		 pop	 esi

; 160  :     return res >> 1;

  00014	d1 e8		 shr	 eax, 1

; 161  : }

  00016	c3		 ret	 0
_bi_reverse ENDP
_TEXT	ENDS
; Function compile flags: /Ogtp
; File C:\Users\Pichau\Documents\Boldergarte\Softwares\LIBRARIES\downloads\zlib\zlib-develop\zlib-develop\trees.c
;	COMDAT _bi_flush
_TEXT	SEGMENT
_bi_flush PROC						; COMDAT
; _s$ = ecx

; 166  : local void bi_flush(deflate_state *s) {

  00000	56		 push	 esi
  00001	8b f1		 mov	 esi, ecx

; 167  :     if (s->bi_valid == 16) {

  00003	8b 86 bc 16 00
	00		 mov	 eax, DWORD PTR [esi+5820]
  00009	83 f8 10	 cmp	 eax, 16			; 00000010H
  0000c	75 37		 jne	 SHORT $LN2@bi_flush

; 168  :         put_short(s, s->bi_buf);

  0000e	8b 4e 14	 mov	 ecx, DWORD PTR [esi+20]
  00011	8b 56 08	 mov	 edx, DWORD PTR [esi+8]
  00014	0f b6 86 b8 16
	00 00		 movzx	 eax, BYTE PTR [esi+5816]
  0001b	88 04 0a	 mov	 BYTE PTR [edx+ecx], al
  0001e	ff 46 14	 inc	 DWORD PTR [esi+20]
  00021	8b 56 14	 mov	 edx, DWORD PTR [esi+20]
  00024	8b 4e 08	 mov	 ecx, DWORD PTR [esi+8]
  00027	0f b6 86 b9 16
	00 00		 movzx	 eax, BYTE PTR [esi+5817]
  0002e	88 04 0a	 mov	 BYTE PTR [edx+ecx], al
  00031	ff 46 14	 inc	 DWORD PTR [esi+20]

; 169  :         s->bi_buf = 0;

  00034	33 c0		 xor	 eax, eax

; 170  :         s->bi_valid = 0;

  00036	89 86 bc 16 00
	00		 mov	 DWORD PTR [esi+5820], eax

; 175  :     }
; 176  : }

  0003c	66 89 86 b8 16
	00 00		 mov	 WORD PTR [esi+5816], ax
  00043	5e		 pop	 esi
  00044	c3		 ret	 0
$LN2@bi_flush:

; 171  :     } else if (s->bi_valid >= 8) {

  00045	83 f8 08	 cmp	 eax, 8
  00048	7c 27		 jl	 SHORT $LN4@bi_flush

; 172  :         put_byte(s, (Byte)s->bi_buf);

  0004a	8b 4e 14	 mov	 ecx, DWORD PTR [esi+20]
  0004d	8b 56 08	 mov	 edx, DWORD PTR [esi+8]
  00050	8a 86 b8 16 00
	00		 mov	 al, BYTE PTR [esi+5816]
  00056	88 04 0a	 mov	 BYTE PTR [edx+ecx], al

; 173  :         s->bi_buf >>= 8;

  00059	0f b6 86 b9 16
	00 00		 movzx	 eax, BYTE PTR [esi+5817]
  00060	ff 46 14	 inc	 DWORD PTR [esi+20]

; 174  :         s->bi_valid -= 8;

  00063	83 86 bc 16 00
	00 f8		 add	 DWORD PTR [esi+5820], -8 ; fffffff8H

; 175  :     }
; 176  : }

  0006a	66 89 86 b8 16
	00 00		 mov	 WORD PTR [esi+5816], ax
$LN4@bi_flush:
  00071	5e		 pop	 esi
  00072	c3		 ret	 0
_bi_flush ENDP
_TEXT	ENDS
; Function compile flags: /Ogtp
; File C:\Users\Pichau\Documents\Boldergarte\Softwares\LIBRARIES\downloads\zlib\zlib-develop\zlib-develop\trees.c
;	COMDAT _bi_windup
_TEXT	SEGMENT
_bi_windup PROC						; COMDAT
; _s$ = ecx

; 181  : local void bi_windup(deflate_state *s) {

  00000	56		 push	 esi
  00001	8b f1		 mov	 esi, ecx

; 182  :     if (s->bi_valid > 8) {

  00003	8b 86 bc 16 00
	00		 mov	 eax, DWORD PTR [esi+5820]
  00009	83 f8 08	 cmp	 eax, 8
  0000c	7e 22		 jle	 SHORT $LN2@bi_windup

; 183  :         put_short(s, s->bi_buf);

  0000e	8b 4e 14	 mov	 ecx, DWORD PTR [esi+20]
  00011	8b 56 08	 mov	 edx, DWORD PTR [esi+8]
  00014	0f b6 86 b8 16
	00 00		 movzx	 eax, BYTE PTR [esi+5816]
  0001b	88 04 0a	 mov	 BYTE PTR [edx+ecx], al
  0001e	ff 46 14	 inc	 DWORD PTR [esi+20]
  00021	8b 56 14	 mov	 edx, DWORD PTR [esi+20]
  00024	8b 4e 08	 mov	 ecx, DWORD PTR [esi+8]
  00027	0f b6 86 b9 16
	00 00		 movzx	 eax, BYTE PTR [esi+5817]
  0002e	eb 10		 jmp	 SHORT $LN8@bi_windup
$LN2@bi_windup:

; 184  :     } else if (s->bi_valid > 0) {

  00030	85 c0		 test	 eax, eax
  00032	7e 12		 jle	 SHORT $LN4@bi_windup

; 185  :         put_byte(s, (Byte)s->bi_buf);

  00034	8b 56 08	 mov	 edx, DWORD PTR [esi+8]
  00037	8b 4e 14	 mov	 ecx, DWORD PTR [esi+20]
  0003a	8a 86 b8 16 00
	00		 mov	 al, BYTE PTR [esi+5816]
$LN8@bi_windup:

; 186  :     }
; 187  :     s->bi_buf = 0;

  00040	88 04 0a	 mov	 BYTE PTR [edx+ecx], al
  00043	ff 46 14	 inc	 DWORD PTR [esi+20]
$LN4@bi_windup:
  00046	33 c0		 xor	 eax, eax
  00048	66 89 86 b8 16
	00 00		 mov	 WORD PTR [esi+5816], ax

; 188  :     s->bi_valid = 0;

  0004f	89 86 bc 16 00
	00		 mov	 DWORD PTR [esi+5820], eax
  00055	5e		 pop	 esi

; 189  : #ifdef ZLIB_DEBUG
; 190  :     s->bits_sent = (s->bits_sent + 7) & ~7;
; 191  : #endif
; 192  : }

  00056	c3		 ret	 0
_bi_windup ENDP
_TEXT	ENDS
; Function compile flags: /Ogtp
; File C:\Users\Pichau\Documents\Boldergarte\Softwares\LIBRARIES\downloads\zlib\zlib-develop\zlib-develop\trees.c
;	COMDAT _gen_codes
_TEXT	SEGMENT
_next_code$ = -36					; size = 32
_tree$1$ = -4						; size = 4
_bl_count$ = 8						; size = 4
_gen_codes PROC						; COMDAT
; _tree$ = ecx
; _max_code$ = edx

; 202  : local void gen_codes(ct_data *tree, int max_code, ushf *bl_count) {

  00000	55		 push	 ebp
  00001	8b ec		 mov	 ebp, esp
  00003	83 ec 24	 sub	 esp, 36			; 00000024H
  00006	53		 push	 ebx
  00007	56		 push	 esi
  00008	57		 push	 edi
  00009	8b da		 mov	 ebx, edx
  0000b	89 4d fc	 mov	 DWORD PTR _tree$1$[ebp], ecx

; 203  :     ush next_code[MAX_BITS+1]; /* next code value for each bit length */
; 204  :     unsigned code = 0;         /* running code value */

  0000e	8b 55 08	 mov	 edx, DWORD PTR _bl_count$[ebp]
  00011	33 ff		 xor	 edi, edi
  00013	be 01 00 00 00	 mov	 esi, 1
  00018	0f 1f 84 00 00
	00 00 00	 npad	 8
$LL14@gen_codes:

; 205  :     int bits;                  /* bit index */
; 206  :     int n;                     /* code index */
; 207  : 
; 208  :     /* The distribution counts are first used to generate the code values
; 209  :      * without bit reversal.
; 210  :      */
; 211  :     for (bits = 1; bits <= MAX_BITS; bits++) {
; 212  :         code = (code + bl_count[bits - 1]) << 1;

  00020	0f b7 44 72 fe	 movzx	 eax, WORD PTR [edx+esi*2-2]
  00025	03 f8		 add	 edi, eax
  00027	03 ff		 add	 edi, edi

; 213  :         next_code[bits] = (ush)code;

  00029	66 89 7c 75 dc	 mov	 WORD PTR _next_code$[ebp+esi*2], di
  0002e	46		 inc	 esi
  0002f	83 fe 0f	 cmp	 esi, 15			; 0000000fH
  00032	7e ec		 jle	 SHORT $LL14@gen_codes

; 214  :     }
; 215  :     /* Check that the bit counts in bl_count are consistent. The last code
; 216  :      * must be all ones.
; 217  :      */
; 218  :     Assert (code + bl_count[MAX_BITS] - 1 == (1 << MAX_BITS) - 1,
; 219  :             "inconsistent bit counts");
; 220  :     Tracev((stderr,"\ngen_codes: max_code %d ", max_code));
; 221  : 
; 222  :     for (n = 0;  n <= max_code; n++) {

  00034	33 f6		 xor	 esi, esi
  00036	85 db		 test	 ebx, ebx
  00038	78 2d		 js	 SHORT $LN6@gen_codes
  0003a	66 0f 1f 44 00
	00		 npad	 6
$LL7@gen_codes:

; 223  :         int len = tree[n].Len;

  00040	0f b7 54 b1 02	 movzx	 edx, WORD PTR [ecx+esi*4+2]

; 224  :         if (len == 0) continue;

  00045	85 d2		 test	 edx, edx
  00047	74 19		 je	 SHORT $LN5@gen_codes

; 225  :         /* Now reverse the bits */
; 226  :         tree[n].Code = (ush)bi_reverse(next_code[len]++, len);

  00049	0f b7 4c 55 dc	 movzx	 ecx, WORD PTR _next_code$[ebp+edx*2]
  0004e	8d 41 01	 lea	 eax, DWORD PTR [ecx+1]
  00051	66 89 44 55 dc	 mov	 WORD PTR _next_code$[ebp+edx*2], ax
  00056	e8 00 00 00 00	 call	 _bi_reverse
  0005b	8b 4d fc	 mov	 ecx, DWORD PTR _tree$1$[ebp]
  0005e	66 89 04 b1	 mov	 WORD PTR [ecx+esi*4], ax
$LN5@gen_codes:

; 214  :     }
; 215  :     /* Check that the bit counts in bl_count are consistent. The last code
; 216  :      * must be all ones.
; 217  :      */
; 218  :     Assert (code + bl_count[MAX_BITS] - 1 == (1 << MAX_BITS) - 1,
; 219  :             "inconsistent bit counts");
; 220  :     Tracev((stderr,"\ngen_codes: max_code %d ", max_code));
; 221  : 
; 222  :     for (n = 0;  n <= max_code; n++) {

  00062	46		 inc	 esi
  00063	3b f3		 cmp	 esi, ebx
  00065	7e d9		 jle	 SHORT $LL7@gen_codes
$LN6@gen_codes:
  00067	5f		 pop	 edi

; 227  : 
; 228  :         Tracecv(tree != static_ltree, (stderr,"\nn %3d %c l %2d c %4x (%x) ",
; 229  :             n, (isgraph(n) ? n : ' '), len, tree[n].Code, next_code[len] - 1));
; 230  :     }
; 231  : }

  00068	5e		 pop	 esi
  00069	5b		 pop	 ebx
  0006a	8b e5		 mov	 esp, ebp
  0006c	5d		 pop	 ebp
  0006d	c3		 ret	 0
_gen_codes ENDP
_TEXT	ENDS
; Function compile flags: /Ogtp
; File C:\Users\Pichau\Documents\Boldergarte\Softwares\LIBRARIES\downloads\zlib\zlib-develop\zlib-develop\trees.c
;	COMDAT _tr_static_init
_TEXT	SEGMENT
_tr_static_init PROC					; COMDAT

; 295  : #if defined(GEN_TREES_H) || !defined(STDC)
; 296  :     static int static_init_done = 0;
; 297  :     int n;        /* iterates over tree elements */
; 298  :     int bits;     /* bit counter */
; 299  :     int length;   /* length value */
; 300  :     int code;     /* code value */
; 301  :     int dist;     /* distance index */
; 302  :     ush bl_count[MAX_BITS+1];
; 303  :     /* number of codes at each bit length for an optimal tree */
; 304  : 
; 305  :     if (static_init_done) return;
; 306  : 
; 307  :     /* For some embedded targets, global variables are not initialized: */
; 308  : #ifdef NO_INIT_GLOBAL_POINTERS
; 309  :     static_l_desc.static_tree = static_ltree;
; 310  :     static_l_desc.extra_bits = extra_lbits;
; 311  :     static_d_desc.static_tree = static_dtree;
; 312  :     static_d_desc.extra_bits = extra_dbits;
; 313  :     static_bl_desc.extra_bits = extra_blbits;
; 314  : #endif
; 315  : 
; 316  :     /* Initialize the mapping length (0..255) -> length code (0..28) */
; 317  :     length = 0;
; 318  :     for (code = 0; code < LENGTH_CODES-1; code++) {
; 319  :         base_length[code] = length;
; 320  :         for (n = 0; n < (1 << extra_lbits[code]); n++) {
; 321  :             _length_code[length++] = (uch)code;
; 322  :         }
; 323  :     }
; 324  :     Assert (length == 256, "tr_static_init: length != 256");
; 325  :     /* Note that the length 255 (match length 258) can be represented
; 326  :      * in two different ways: code 284 + 5 bits or code 285, so we
; 327  :      * overwrite length_code[255] to use the best encoding:
; 328  :      */
; 329  :     _length_code[length - 1] = (uch)code;
; 330  : 
; 331  :     /* Initialize the mapping dist (0..32K) -> dist code (0..29) */
; 332  :     dist = 0;
; 333  :     for (code = 0 ; code < 16; code++) {
; 334  :         base_dist[code] = dist;
; 335  :         for (n = 0; n < (1 << extra_dbits[code]); n++) {
; 336  :             _dist_code[dist++] = (uch)code;
; 337  :         }
; 338  :     }
; 339  :     Assert (dist == 256, "tr_static_init: dist != 256");
; 340  :     dist >>= 7; /* from now on, all distances are divided by 128 */
; 341  :     for ( ; code < D_CODES; code++) {
; 342  :         base_dist[code] = dist << 7;
; 343  :         for (n = 0; n < (1 << (extra_dbits[code] - 7)); n++) {
; 344  :             _dist_code[256 + dist++] = (uch)code;
; 345  :         }
; 346  :     }
; 347  :     Assert (dist == 256, "tr_static_init: 256 + dist != 512");
; 348  : 
; 349  :     /* Construct the codes of the static literal tree */
; 350  :     for (bits = 0; bits <= MAX_BITS; bits++) bl_count[bits] = 0;
; 351  :     n = 0;
; 352  :     while (n <= 143) static_ltree[n++].Len = 8, bl_count[8]++;
; 353  :     while (n <= 255) static_ltree[n++].Len = 9, bl_count[9]++;
; 354  :     while (n <= 279) static_ltree[n++].Len = 7, bl_count[7]++;
; 355  :     while (n <= 287) static_ltree[n++].Len = 8, bl_count[8]++;
; 356  :     /* Codes 286 and 287 do not exist, but we must include them in the
; 357  :      * tree construction to get a canonical Huffman tree (longest code
; 358  :      * all ones)
; 359  :      */
; 360  :     gen_codes((ct_data *)static_ltree, L_CODES+1, bl_count);
; 361  : 
; 362  :     /* The static distance tree is trivial: */
; 363  :     for (n = 0; n < D_CODES; n++) {
; 364  :         static_dtree[n].Len = 5;
; 365  :         static_dtree[n].Code = bi_reverse((unsigned)n, 5);
; 366  :     }
; 367  :     static_init_done = 1;
; 368  : 
; 369  : #  ifdef GEN_TREES_H
; 370  :     gen_trees_header();
; 371  : #  endif
; 372  : #endif /* defined(GEN_TREES_H) || !defined(STDC) */
; 373  : }

  00000	c2 00 00	 ret	 0
_tr_static_init ENDP
_TEXT	ENDS
; Function compile flags: /Ogtp
; File C:\Users\Pichau\Documents\Boldergarte\Softwares\LIBRARIES\downloads\zlib\zlib-develop\zlib-develop\trees.c
;	COMDAT _init_block
_TEXT	SEGMENT
_init_block PROC					; COMDAT
; _s$ = ecx

; 440  :     int n; /* iterates over tree elements */
; 441  : 
; 442  :     /* Initialize the trees. */
; 443  :     for (n = 0; n < L_CODES;  n++) s->dyn_ltree[n].Freq = 0;

  00000	8d 81 94 00 00
	00		 lea	 eax, DWORD PTR [ecx+148]
  00006	ba 1e 01 00 00	 mov	 edx, 286		; 0000011eH
  0000b	56		 push	 esi
  0000c	0f 1f 40 00	 npad	 4
$LL4@init_block:
  00010	33 f6		 xor	 esi, esi
  00012	8d 40 04	 lea	 eax, DWORD PTR [eax+4]
  00015	66 89 70 fc	 mov	 WORD PTR [eax-4], si
  00019	83 ea 01	 sub	 edx, 1
  0001c	75 f2		 jne	 SHORT $LL4@init_block

; 444  :     for (n = 0; n < D_CODES;  n++) s->dyn_dtree[n].Freq = 0;

  0001e	8d 81 88 09 00
	00		 lea	 eax, DWORD PTR [ecx+2440]
  00024	ba 1e 00 00 00	 mov	 edx, 30			; 0000001eH
  00029	0f 1f 80 00 00
	00 00		 npad	 7
$LL7@init_block:
  00030	33 f6		 xor	 esi, esi
  00032	8d 40 04	 lea	 eax, DWORD PTR [eax+4]
  00035	66 89 70 fc	 mov	 WORD PTR [eax-4], si
  00039	83 ea 01	 sub	 edx, 1
  0003c	75 f2		 jne	 SHORT $LL7@init_block

; 445  :     for (n = 0; n < BL_CODES; n++) s->bl_tree[n].Freq = 0;

  0003e	8d 81 7c 0a 00
	00		 lea	 eax, DWORD PTR [ecx+2684]
  00044	ba 13 00 00 00	 mov	 edx, 19			; 00000013H
  00049	0f 1f 80 00 00
	00 00		 npad	 7
$LL10@init_block:
  00050	33 f6		 xor	 esi, esi
  00052	8d 40 04	 lea	 eax, DWORD PTR [eax+4]
  00055	66 89 70 fc	 mov	 WORD PTR [eax-4], si
  00059	83 ea 01	 sub	 edx, 1
  0005c	75 f2		 jne	 SHORT $LL10@init_block

; 446  : 
; 447  :     s->dyn_ltree[END_BLOCK].Freq = 1;

  0005e	b8 01 00 00 00	 mov	 eax, 1

; 448  :     s->opt_len = s->static_len = 0L;

  00063	89 91 ac 16 00
	00		 mov	 DWORD PTR [ecx+5804], edx
  00069	5e		 pop	 esi
  0006a	66 89 81 94 04
	00 00		 mov	 WORD PTR [ecx+1172], ax
  00071	89 91 a8 16 00
	00		 mov	 DWORD PTR [ecx+5800], edx

; 449  :     s->sym_next = s->matches = 0;

  00077	89 91 b0 16 00
	00		 mov	 DWORD PTR [ecx+5808], edx
  0007d	89 91 a0 16 00
	00		 mov	 DWORD PTR [ecx+5792], edx

; 450  : }

  00083	c3		 ret	 0
_init_block ENDP
_TEXT	ENDS
; Function compile flags: /Ogtp
; File C:\Users\Pichau\Documents\Boldergarte\Softwares\LIBRARIES\downloads\zlib\zlib-develop\zlib-develop\trees.c
;	COMDAT _pqdownheap
_TEXT	SEGMENT
tv383 = -12						; size = 4
_tree$1$ = -8						; size = 4
_v$1$ = -4						; size = 4
_k$ = 8							; size = 4
_pqdownheap PROC					; COMDAT
; _s$ = ecx
; _tree$ = edx

; 507  : local void pqdownheap(deflate_state *s, ct_data *tree, int k) {

  00000	55		 push	 ebp
  00001	8b ec		 mov	 ebp, esp
  00003	83 ec 0c	 sub	 esp, 12			; 0000000cH

; 508  :     int v = s->heap[k];
; 509  :     int j = k << 1;  /* left son of k */
; 510  :     while (j <= s->heap_len) {

  00006	8b 81 50 14 00
	00		 mov	 eax, DWORD PTR [ecx+5200]
  0000c	53		 push	 ebx
  0000d	8b 5d 08	 mov	 ebx, DWORD PTR _k$[ebp]
  00010	56		 push	 esi
  00011	57		 push	 edi
  00012	89 55 f8	 mov	 DWORD PTR _tree$1$[ebp], edx
  00015	8b bc 99 5c 0b
	00 00		 mov	 edi, DWORD PTR [ecx+ebx*4+2908]
  0001c	8d 34 1b	 lea	 esi, DWORD PTR [ebx+ebx]
  0001f	89 7d fc	 mov	 DWORD PTR _v$1$[ebp], edi
  00022	3b f0		 cmp	 esi, eax
  00024	0f 8f 97 00 00
	00		 jg	 $LN16@pqdownheap
  0002a	8d 3c ba	 lea	 edi, DWORD PTR [edx+edi*4]
  0002d	89 7d f4	 mov	 DWORD PTR tv383[ebp], edi
$LL2@pqdownheap:

; 511  :         /* Set j to the smallest of the two sons: */
; 512  :         if (j < s->heap_len &&

  00030	3b f0		 cmp	 esi, eax
  00032	7d 31		 jge	 SHORT $LN4@pqdownheap
  00034	8b bc b1 60 0b
	00 00		 mov	 edi, DWORD PTR [ecx+esi*4+2912]
  0003b	8b 9c b1 5c 0b
	00 00		 mov	 ebx, DWORD PTR [ecx+esi*4+2908]
  00042	0f b7 04 ba	 movzx	 eax, WORD PTR [edx+edi*4]
  00046	0f b7 14 9a	 movzx	 edx, WORD PTR [edx+ebx*4]
  0004a	66 3b c2	 cmp	 ax, dx
  0004d	72 12		 jb	 SHORT $LN5@pqdownheap
  0004f	75 11		 jne	 SHORT $LN19@pqdownheap
  00051	8a 84 0f 58 14
	00 00		 mov	 al, BYTE PTR [edi+ecx+5208]
  00058	3a 84 0b 58 14
	00 00		 cmp	 al, BYTE PTR [ebx+ecx+5208]
  0005f	77 01		 ja	 SHORT $LN19@pqdownheap
$LN5@pqdownheap:

; 513  :             smaller(tree, s->heap[j + 1], s->heap[j], s->depth)) {
; 514  :             j++;

  00061	46		 inc	 esi
$LN19@pqdownheap:

; 515  :         }
; 516  :         /* Exit if v is smaller than both sons */
; 517  :         if (smaller(tree, v, s->heap[j], s->depth)) break;

  00062	8b 5d 08	 mov	 ebx, DWORD PTR _k$[ebp]
$LN4@pqdownheap:
  00065	8b 94 b1 5c 0b
	00 00		 mov	 edx, DWORD PTR [ecx+esi*4+2908]
  0006c	8b 45 f4	 mov	 eax, DWORD PTR tv383[ebp]
  0006f	8b 7d f8	 mov	 edi, DWORD PTR _tree$1$[ebp]
  00072	0f b7 00	 movzx	 eax, WORD PTR [eax]
  00075	0f b7 3c 97	 movzx	 edi, WORD PTR [edi+edx*4]
  00079	66 3b c7	 cmp	 ax, di
  0007c	72 32		 jb	 SHORT $LN15@pqdownheap
  0007e	8b 7d fc	 mov	 edi, DWORD PTR _v$1$[ebp]
  00081	75 10		 jne	 SHORT $LN6@pqdownheap
  00083	8a 84 0f 58 14
	00 00		 mov	 al, BYTE PTR [edi+ecx+5208]
  0008a	3a 84 0a 58 14
	00 00		 cmp	 al, BYTE PTR [edx+ecx+5208]
  00091	76 2e		 jbe	 SHORT $LN16@pqdownheap
$LN6@pqdownheap:

; 518  : 
; 519  :         /* Exchange v with the smallest son */
; 520  :         s->heap[k] = s->heap[j];  k = j;

  00093	89 94 99 5c 0b
	00 00		 mov	 DWORD PTR [ecx+ebx*4+2908], edx
  0009a	8b de		 mov	 ebx, esi
  0009c	8b 81 50 14 00
	00		 mov	 eax, DWORD PTR [ecx+5200]

; 521  : 
; 522  :         /* And continue down the tree, setting j to the left son of k */
; 523  :         j <<= 1;

  000a2	03 f6		 add	 esi, esi
  000a4	89 5d 08	 mov	 DWORD PTR _k$[ebp], ebx
  000a7	3b f0		 cmp	 esi, eax
  000a9	7f 16		 jg	 SHORT $LN16@pqdownheap

; 508  :     int v = s->heap[k];
; 509  :     int j = k << 1;  /* left son of k */
; 510  :     while (j <= s->heap_len) {

  000ab	8b 55 f8	 mov	 edx, DWORD PTR _tree$1$[ebp]
  000ae	eb 80		 jmp	 SHORT $LL2@pqdownheap
$LN15@pqdownheap:

; 524  :     }
; 525  :     s->heap[k] = v;

  000b0	8b 45 fc	 mov	 eax, DWORD PTR _v$1$[ebp]
  000b3	5f		 pop	 edi

; 526  : }

  000b4	5e		 pop	 esi
  000b5	89 84 99 5c 0b
	00 00		 mov	 DWORD PTR [ecx+ebx*4+2908], eax
  000bc	5b		 pop	 ebx
  000bd	8b e5		 mov	 esp, ebp
  000bf	5d		 pop	 ebp
  000c0	c3		 ret	 0
$LN16@pqdownheap:
  000c1	89 bc 99 5c 0b
	00 00		 mov	 DWORD PTR [ecx+ebx*4+2908], edi
  000c8	5f		 pop	 edi
  000c9	5e		 pop	 esi
  000ca	5b		 pop	 ebx
  000cb	8b e5		 mov	 esp, ebp
  000cd	5d		 pop	 ebp
  000ce	c3		 ret	 0
_pqdownheap ENDP
_TEXT	ENDS
; Function compile flags: /Ogtp
; File C:\Users\Pichau\Documents\Boldergarte\Softwares\LIBRARIES\downloads\zlib\zlib-develop\zlib-develop\trees.c
;	COMDAT _gen_bitlen
_TEXT	SEGMENT
tv902 = -48						; size = 4
_bits$2$ = -48						; size = 4
_m$1$ = -44						; size = 4
tv924 = -44						; size = 4
_overflow$2$ = -44					; size = 4
tv906 = -40						; size = 4
_h$2$ = -40						; size = 4
_stree$1$ = -40						; size = 4
_extra$1$ = -36						; size = 4
tv918 = -32						; size = 4
_s$1$ = -28						; size = 4
_max_code$1$ = -24					; size = 4
tv921 = -20						; size = 4
tv890 = -20						; size = 4
tv894 = -16						; size = 4
tv927 = -12						; size = 4
_base$1$ = -8						; size = 4
_tree$1$ = -4						; size = 4
_gen_bitlen PROC					; COMDAT
; _s$ = ecx
; _desc$ = edx

; 538  : local void gen_bitlen(deflate_state *s, tree_desc *desc) {

  00000	55		 push	 ebp
  00001	8b ec		 mov	 ebp, esp
  00003	83 ec 30	 sub	 esp, 48			; 00000030H

; 539  :     ct_data *tree        = desc->dyn_tree;
; 540  :     int max_code         = desc->max_code;

  00006	8b 42 04	 mov	 eax, DWORD PTR [edx+4]
  00009	0f 57 c0	 xorps	 xmm0, xmm0
  0000c	89 45 e8	 mov	 DWORD PTR _max_code$1$[ebp], eax

; 541  :     const ct_data *stree = desc->stat_desc->static_tree;

  0000f	8b 42 08	 mov	 eax, DWORD PTR [edx+8]
  00012	53		 push	 ebx
  00013	8b d9		 mov	 ebx, ecx
  00015	8b 0a		 mov	 ecx, DWORD PTR [edx]
  00017	56		 push	 esi
  00018	8b 10		 mov	 edx, DWORD PTR [eax]

; 542  :     const intf *extra    = desc->stat_desc->extra_bits;
; 543  :     int base             = desc->stat_desc->extra_base;
; 544  :     int max_length       = desc->stat_desc->max_length;

  0001a	8b 70 10	 mov	 esi, DWORD PTR [eax+16]
  0001d	89 55 d8	 mov	 DWORD PTR _stree$1$[ebp], edx
  00020	8b 50 04	 mov	 edx, DWORD PTR [eax+4]
  00023	89 55 dc	 mov	 DWORD PTR _extra$1$[ebp], edx
  00026	8b 50 08	 mov	 edx, DWORD PTR [eax+8]
  00029	0f 11 83 3c 0b
	00 00		 movups	 XMMWORD PTR [ebx+2876], xmm0
  00030	89 55 f8	 mov	 DWORD PTR _base$1$[ebp], edx

; 545  :     int h;              /* heap index */
; 546  :     int n, m;           /* iterate over the tree elements */
; 547  :     int bits;           /* bit length */
; 548  :     int xbits;          /* extra bits */
; 549  :     ush f;              /* frequency */
; 550  :     int overflow = 0;   /* number of elements with bit length too large */
; 551  : 
; 552  :     for (bits = 0; bits <= MAX_BITS; bits++) s->bl_count[bits] = 0;
; 553  : 
; 554  :     /* In a first pass, compute the optimal bit lengths (which may
; 555  :      * overflow in the case of the bit length tree).
; 556  :      */
; 557  :     tree[s->heap[s->heap_max]].Len = 0; /* root of the heap */

  00033	33 d2		 xor	 edx, edx
  00035	0f 11 83 4c 0b
	00 00		 movups	 XMMWORD PTR [ebx+2892], xmm0
  0003c	8b 83 54 14 00
	00		 mov	 eax, DWORD PTR [ebx+5204]
  00042	89 5d e4	 mov	 DWORD PTR _s$1$[ebp], ebx
  00045	89 4d fc	 mov	 DWORD PTR _tree$1$[ebp], ecx
  00048	89 75 d0	 mov	 DWORD PTR _bits$2$[ebp], esi
  0004b	8b 84 83 5c 0b
	00 00		 mov	 eax, DWORD PTR [ebx+eax*4+2908]
  00052	66 89 54 81 02	 mov	 WORD PTR [ecx+eax*4+2], dx

; 558  : 
; 559  :     for (h = s->heap_max + 1; h < HEAP_SIZE; h++) {

  00057	8b 93 54 14 00
	00		 mov	 edx, DWORD PTR [ebx+5204]
  0005d	42		 inc	 edx
  0005e	81 fa 3d 02 00
	00		 cmp	 edx, 573		; 0000023dH
  00064	0f 8d 89 01 00
	00		 jge	 $LN14@gen_bitlen

; 545  :     int h;              /* heap index */
; 546  :     int n, m;           /* iterate over the tree elements */
; 547  :     int bits;           /* bit length */
; 548  :     int xbits;          /* extra bits */
; 549  :     ush f;              /* frequency */
; 550  :     int overflow = 0;   /* number of elements with bit length too large */
; 551  : 
; 552  :     for (bits = 0; bits <= MAX_BITS; bits++) s->bl_count[bits] = 0;
; 553  : 
; 554  :     /* In a first pass, compute the optimal bit lengths (which may
; 555  :      * overflow in the case of the bit length tree).
; 556  :      */
; 557  :     tree[s->heap[s->heap_max]].Len = 0; /* root of the heap */

  0006a	8d 8b 5c 0b 00
	00		 lea	 ecx, DWORD PTR [ebx+2908]
  00070	b8 3d 02 00 00	 mov	 eax, 573		; 0000023dH
  00075	8d 0c 91	 lea	 ecx, DWORD PTR [ecx+edx*4]
  00078	2b c2		 sub	 eax, edx
  0007a	89 4d f0	 mov	 DWORD PTR tv894[ebp], ecx
  0007d	33 d2		 xor	 edx, edx
  0007f	89 45 ec	 mov	 DWORD PTR tv921[ebp], eax
  00082	57		 push	 edi
$LL7@gen_bitlen:

; 560  :         n = s->heap[h];

  00083	8b 39		 mov	 edi, DWORD PTR [ecx]

; 561  :         bits = tree[tree[n].Dad].Len + 1;

  00085	8b 4d fc	 mov	 ecx, DWORD PTR _tree$1$[ebp]
  00088	8d 04 bd 00 00
	00 00		 lea	 eax, DWORD PTR [edi*4]
  0008f	89 45 d4	 mov	 DWORD PTR tv924[ebp], eax
  00092	03 c1		 add	 eax, ecx
  00094	89 45 f4	 mov	 DWORD PTR tv927[ebp], eax
  00097	0f b7 40 02	 movzx	 eax, WORD PTR [eax+2]
  0009b	0f b7 4c 81 02	 movzx	 ecx, WORD PTR [ecx+eax*4+2]

; 562  :         if (bits > max_length) bits = max_length, overflow++;
; 563  :         tree[n].Len = (ush)bits;

  000a0	8b c6		 mov	 eax, esi
  000a2	41		 inc	 ecx
  000a3	3b ce		 cmp	 ecx, esi
  000a5	0f 4e c1	 cmovle	 eax, ecx
  000a8	8b 4d f4	 mov	 ecx, DWORD PTR tv927[ebp]
  000ab	89 45 e0	 mov	 DWORD PTR tv918[ebp], eax
  000ae	8d 42 01	 lea	 eax, DWORD PTR [edx+1]
  000b1	0f 4e c2	 cmovle	 eax, edx
  000b4	8b d0		 mov	 edx, eax
  000b6	8b 45 e0	 mov	 eax, DWORD PTR tv918[ebp]
  000b9	66 89 41 02	 mov	 WORD PTR [ecx+2], ax

; 564  :         /* We overwrite tree[n].Dad which is no longer needed */
; 565  : 
; 566  :         if (n > max_code) continue; /* not a leaf node */

  000bd	3b 7d e8	 cmp	 edi, DWORD PTR _max_code$1$[ebp]
  000c0	7f 46		 jg	 SHORT $LN5@gen_bitlen

; 567  : 
; 568  :         s->bl_count[bits]++;

  000c2	66 ff 84 43 3c
	0b 00 00	 inc	 WORD PTR [ebx+eax*2+2876]

; 569  :         xbits = 0;

  000ca	33 c9		 xor	 ecx, ecx

; 570  :         if (n >= base) xbits = extra[n - base];

  000cc	3b 7d f8	 cmp	 edi, DWORD PTR _base$1$[ebp]
  000cf	7c 09		 jl	 SHORT $LN20@gen_bitlen
  000d1	2b 7d f8	 sub	 edi, DWORD PTR _base$1$[ebp]
  000d4	8b 4d dc	 mov	 ecx, DWORD PTR _extra$1$[ebp]
  000d7	8b 0c b9	 mov	 ecx, DWORD PTR [ecx+edi*4]
$LN20@gen_bitlen:

; 571  :         f = tree[n].Freq;
; 572  :         s->opt_len += (ulg)f * (unsigned)(bits + xbits);

  000da	8b 7d f4	 mov	 edi, DWORD PTR tv927[ebp]
  000dd	03 c1		 add	 eax, ecx
  000df	0f b7 3f	 movzx	 edi, WORD PTR [edi]
  000e2	0f af c7	 imul	 eax, edi
  000e5	01 83 a8 16 00
	00		 add	 DWORD PTR [ebx+5800], eax

; 573  :         if (stree) s->static_len += (ulg)f * (unsigned)(stree[n].Len + xbits);

  000eb	8b 45 d8	 mov	 eax, DWORD PTR _stree$1$[ebp]
  000ee	85 c0		 test	 eax, eax
  000f0	74 16		 je	 SHORT $LN5@gen_bitlen
  000f2	8b 5d d4	 mov	 ebx, DWORD PTR tv924[ebp]
  000f5	0f b7 44 03 02	 movzx	 eax, WORD PTR [ebx+eax+2]
  000fa	8b 5d e4	 mov	 ebx, DWORD PTR _s$1$[ebp]
  000fd	03 c1		 add	 eax, ecx
  000ff	0f af c7	 imul	 eax, edi
  00102	01 83 ac 16 00
	00		 add	 DWORD PTR [ebx+5804], eax
$LN5@gen_bitlen:

; 558  : 
; 559  :     for (h = s->heap_max + 1; h < HEAP_SIZE; h++) {

  00108	8b 4d f0	 mov	 ecx, DWORD PTR tv894[ebp]
  0010b	83 c1 04	 add	 ecx, 4
  0010e	83 6d ec 01	 sub	 DWORD PTR tv921[ebp], 1
  00112	89 4d f0	 mov	 DWORD PTR tv894[ebp], ecx
  00115	0f 85 68 ff ff
	ff		 jne	 $LL7@gen_bitlen

; 574  :     }
; 575  :     if (overflow == 0) return;

  0011b	89 55 d4	 mov	 DWORD PTR _overflow$2$[ebp], edx
  0011e	85 d2		 test	 edx, edx
  00120	0f 84 cc 00 00
	00		 je	 $LN64@gen_bitlen
  00126	8d 46 ff	 lea	 eax, DWORD PTR [esi-1]
  00129	81 c6 9e 05 00
	00		 add	 esi, 1438		; 0000059eH
  0012f	8d 3c 73	 lea	 edi, DWORD PTR [ebx+esi*2]
  00132	8b f0		 mov	 esi, eax
  00134	89 7d ec	 mov	 DWORD PTR tv890[ebp], edi
  00137	66 0f 1f 84 00
	00 00 00 00	 npad	 9
$LL10@gen_bitlen:

; 576  : 
; 577  :     Tracev((stderr,"\nbit length overflow\n"));
; 578  :     /* This happens for example on obj2 and pic of the Calgary corpus */
; 579  : 
; 580  :     /* Find the first bit length which could increase: */
; 581  :     do {
; 582  :         bits = max_length - 1;

  00140	8b ce		 mov	 ecx, esi

; 583  :         while (s->bl_count[bits] == 0) bits--;

  00142	8d 81 9e 05 00
	00		 lea	 eax, DWORD PTR [ecx+1438]
  00148	66 83 3c 43 00	 cmp	 WORD PTR [ebx+eax*2], 0
  0014d	8d 04 43	 lea	 eax, DWORD PTR [ebx+eax*2]
  00150	75 0a		 jne	 SHORT $LN12@gen_bitlen
$LL11@gen_bitlen:
  00152	8d 40 fe	 lea	 eax, DWORD PTR [eax-2]
  00155	49		 dec	 ecx
  00156	66 83 38 00	 cmp	 WORD PTR [eax], 0
  0015a	74 f6		 je	 SHORT $LL11@gen_bitlen
$LN12@gen_bitlen:

; 584  :         s->bl_count[bits]--;        /* move one leaf down the tree */
; 585  :         s->bl_count[bits + 1] += 2; /* move one overflow item as its brother */

  0015c	66 83 84 4b 3e
	0b 00 00 02	 add	 WORD PTR [ebx+ecx*2+2878], 2
  00165	b8 ff ff 00 00	 mov	 eax, 65535		; 0000ffffH
  0016a	66 01 84 4b 3c
	0b 00 00	 add	 WORD PTR [ebx+ecx*2+2876], ax

; 586  :         s->bl_count[max_length]--;
; 587  :         /* The brother of the overflow item also moves one step up,
; 588  :          * but this does not affect bl_count[max_length]
; 589  :          */
; 590  :         overflow -= 2;

  00172	83 ea 02	 sub	 edx, 2
  00175	66 01 07	 add	 WORD PTR [edi], ax

; 591  :     } while (overflow > 0);

  00178	85 d2		 test	 edx, edx
  0017a	7f c4		 jg	 SHORT $LL10@gen_bitlen

; 592  : 
; 593  :     /* Now recompute all bit lengths, scanning in increasing frequency.
; 594  :      * h is still equal to HEAP_SIZE. (It is simpler to reconstruct all
; 595  :      * lengths instead of fixing only the wrong ones. This idea is taken
; 596  :      * from 'ar' written by Haruhiko Okumura.)
; 597  :      */
; 598  :     for (bits = max_length; bits != 0; bits--) {

  0017c	8b 75 d0	 mov	 esi, DWORD PTR _bits$2$[ebp]
  0017f	ba 3d 02 00 00	 mov	 edx, 573		; 0000023dH
  00184	85 f6		 test	 esi, esi
  00186	74 6a		 je	 SHORT $LN64@gen_bitlen
$LL15@gen_bitlen:

; 599  :         n = s->bl_count[bits];

  00188	0f b7 07	 movzx	 eax, WORD PTR [edi]

; 600  :         while (n != 0) {

  0018b	85 c0		 test	 eax, eax
  0018d	74 58		 je	 SHORT $LN13@gen_bitlen

; 599  :         n = s->bl_count[bits];

  0018f	8d ba d7 02 00
	00		 lea	 edi, DWORD PTR [edx+727]
  00195	8d 3c bb	 lea	 edi, DWORD PTR [ebx+edi*4]
$LL16@gen_bitlen:

; 601  :             m = s->heap[--h];

  00198	8b 4f fc	 mov	 ecx, DWORD PTR [edi-4]
  0019b	8d 7f fc	 lea	 edi, DWORD PTR [edi-4]
  0019e	4a		 dec	 edx
  0019f	89 4d d4	 mov	 DWORD PTR _m$1$[ebp], ecx
  001a2	89 55 d8	 mov	 DWORD PTR _h$2$[ebp], edx

; 602  :             if (m > max_code) continue;

  001a5	3b 4d e8	 cmp	 ecx, DWORD PTR _max_code$1$[ebp]
  001a8	7f 36		 jg	 SHORT $LN36@gen_bitlen

; 603  :             if ((unsigned) tree[m].Len != (unsigned) bits) {

  001aa	8b 55 fc	 mov	 edx, DWORD PTR _tree$1$[ebp]
  001ad	0f b7 54 8a 02	 movzx	 edx, WORD PTR [edx+ecx*4+2]
  001b2	89 55 d0	 mov	 DWORD PTR tv902[ebp], edx
  001b5	3b d6		 cmp	 edx, esi
  001b7	74 23		 je	 SHORT $LN24@gen_bitlen

; 604  :                 Tracev((stderr,"code %d bits %d->%d\n", m, tree[m].Len, bits));
; 605  :                 s->opt_len += ((ulg)bits - tree[m].Len) * tree[m].Freq;

  001b9	8b 5d fc	 mov	 ebx, DWORD PTR _tree$1$[ebp]
  001bc	8b d6		 mov	 edx, esi
  001be	2b 55 d0	 sub	 edx, DWORD PTR tv902[ebp]
  001c1	0f b7 0c 8b	 movzx	 ecx, WORD PTR [ebx+ecx*4]
  001c5	8b 5d e4	 mov	 ebx, DWORD PTR _s$1$[ebp]
  001c8	0f af d1	 imul	 edx, ecx

; 606  :                 tree[m].Len = (ush)bits;

  001cb	8b 4d d4	 mov	 ecx, DWORD PTR _m$1$[ebp]
  001ce	01 93 a8 16 00
	00		 add	 DWORD PTR [ebx+5800], edx
  001d4	8b 55 fc	 mov	 edx, DWORD PTR _tree$1$[ebp]
  001d7	66 89 74 8a 02	 mov	 WORD PTR [edx+ecx*4+2], si
$LN24@gen_bitlen:

; 607  :             }
; 608  :             n--;

  001dc	8b 55 d8	 mov	 edx, DWORD PTR _h$2$[ebp]
  001df	48		 dec	 eax
$LN36@gen_bitlen:

; 600  :         while (n != 0) {

  001e0	85 c0		 test	 eax, eax
  001e2	75 b4		 jne	 SHORT $LL16@gen_bitlen
  001e4	8b 7d ec	 mov	 edi, DWORD PTR tv890[ebp]
$LN13@gen_bitlen:

; 592  : 
; 593  :     /* Now recompute all bit lengths, scanning in increasing frequency.
; 594  :      * h is still equal to HEAP_SIZE. (It is simpler to reconstruct all
; 595  :      * lengths instead of fixing only the wrong ones. This idea is taken
; 596  :      * from 'ar' written by Haruhiko Okumura.)
; 597  :      */
; 598  :     for (bits = max_length; bits != 0; bits--) {

  001e7	83 ef 02	 sub	 edi, 2
  001ea	89 7d ec	 mov	 DWORD PTR tv890[ebp], edi
  001ed	83 ee 01	 sub	 esi, 1
  001f0	75 96		 jne	 SHORT $LL15@gen_bitlen
$LN64@gen_bitlen:
  001f2	5f		 pop	 edi
$LN14@gen_bitlen:
  001f3	5e		 pop	 esi

; 609  :         }
; 610  :     }
; 611  : }

  001f4	5b		 pop	 ebx
  001f5	8b e5		 mov	 esp, ebp
  001f7	5d		 pop	 ebp
  001f8	c3		 ret	 0
_gen_bitlen ENDP
_TEXT	ENDS
; Function compile flags: /Ogtp
; File C:\Users\Pichau\Documents\Boldergarte\Softwares\LIBRARIES\downloads\zlib\zlib-develop\zlib-develop\trees.c
;	COMDAT _build_tree
_TEXT	SEGMENT
_stree$1$ = -24						; size = 4
_desc$1$ = -20						; size = 4
tv725 = -16						; size = 4
_n$3$ = -16						; size = 4
_max_code$1$ = -12					; size = 4
_node$2$ = -8						; size = 4
_tree$1$ = -4						; size = 4
_build_tree PROC					; COMDAT
; _s$ = ecx
; _desc$ = edx

; 625  : local void build_tree(deflate_state *s, tree_desc *desc) {

  00000	55		 push	 ebp
  00001	8b ec		 mov	 ebp, esp
  00003	83 ec 18	 sub	 esp, 24			; 00000018H
  00006	8b c2		 mov	 eax, edx

; 626  :     ct_data *tree         = desc->dyn_tree;
; 627  :     const ct_data *stree  = desc->stat_desc->static_tree;
; 628  :     int elems             = desc->stat_desc->elems;
; 629  :     int n, m;          /* iterate over heap elements */
; 630  :     int max_code = -1; /* largest code with non zero frequency */

  00008	83 ca ff	 or	 edx, -1
  0000b	53		 push	 ebx
  0000c	89 45 ec	 mov	 DWORD PTR _desc$1$[ebp], eax
  0000f	56		 push	 esi
  00010	8b 18		 mov	 ebx, DWORD PTR [eax]
  00012	8b f1		 mov	 esi, ecx
  00014	8b 40 08	 mov	 eax, DWORD PTR [eax+8]
  00017	57		 push	 edi
  00018	89 5d fc	 mov	 DWORD PTR _tree$1$[ebp], ebx
  0001b	89 55 f4	 mov	 DWORD PTR _max_code$1$[ebp], edx
  0001e	8b 08		 mov	 ecx, DWORD PTR [eax]
  00020	8b 78 0c	 mov	 edi, DWORD PTR [eax+12]
  00023	89 4d e8	 mov	 DWORD PTR _stree$1$[ebp], ecx
  00026	33 c9		 xor	 ecx, ecx
  00028	89 7d f8	 mov	 DWORD PTR _node$2$[ebp], edi

; 631  :     int node;          /* new node being created */
; 632  : 
; 633  :     /* Construct the initial heap, with least frequent element in
; 634  :      * heap[SMALLEST]. The sons of heap[n] are heap[2*n] and heap[2*n + 1].
; 635  :      * heap[0] is not used.
; 636  :      */
; 637  :     s->heap_len = 0, s->heap_max = HEAP_SIZE;

  0002b	c7 86 50 14 00
	00 00 00 00 00	 mov	 DWORD PTR [esi+5200], 0
  00035	c7 86 54 14 00
	00 3d 02 00 00	 mov	 DWORD PTR [esi+5204], 573 ; 0000023dH

; 638  : 
; 639  :     for (n = 0; n < elems; n++) {

  0003f	85 ff		 test	 edi, edi
  00041	7e 35		 jle	 SHORT $LN22@build_tree
$LL4@build_tree:

; 640  :         if (tree[n].Freq != 0) {

  00043	66 83 3c 8b 00	 cmp	 WORD PTR [ebx+ecx*4], 0
  00048	74 1f		 je	 SHORT $LN13@build_tree

; 641  :             s->heap[++(s->heap_len)] = max_code = n;

  0004a	ff 86 50 14 00
	00		 inc	 DWORD PTR [esi+5200]
  00050	8b d1		 mov	 edx, ecx
  00052	8b 86 50 14 00
	00		 mov	 eax, DWORD PTR [esi+5200]
  00058	89 8c 86 5c 0b
	00 00		 mov	 DWORD PTR [esi+eax*4+2908], ecx

; 642  :             s->depth[n] = 0;

  0005f	c6 84 0e 58 14
	00 00 00	 mov	 BYTE PTR [esi+ecx+5208], 0

; 643  :         } else {

  00067	eb 07		 jmp	 SHORT $LN2@build_tree
$LN13@build_tree:

; 644  :             tree[n].Len = 0;

  00069	33 c0		 xor	 eax, eax
  0006b	66 89 44 8b 02	 mov	 WORD PTR [ebx+ecx*4+2], ax
$LN2@build_tree:

; 638  : 
; 639  :     for (n = 0; n < elems; n++) {

  00070	41		 inc	 ecx
  00071	3b cf		 cmp	 ecx, edi
  00073	7c ce		 jl	 SHORT $LL4@build_tree
  00075	89 55 f4	 mov	 DWORD PTR _max_code$1$[ebp], edx
$LN22@build_tree:

; 645  :         }
; 646  :     }
; 647  : 
; 648  :     /* The pkzip format requires that at least one distance code exists,
; 649  :      * and that at least one bit should be sent even if there is only one
; 650  :      * possible code. So to avoid special checks later on we force at least
; 651  :      * two codes of non zero frequency.
; 652  :      */
; 653  :     while (s->heap_len < 2) {

  00078	8b 86 50 14 00
	00		 mov	 eax, DWORD PTR [esi+5200]
  0007e	83 f8 02	 cmp	 eax, 2
  00081	7d 5d		 jge	 SHORT $LN6@build_tree
$LL5@build_tree:

; 654  :         node = s->heap[++(s->heap_len)] = (max_code < 2 ? ++max_code : 0);

  00083	8d 4a 01	 lea	 ecx, DWORD PTR [edx+1]
  00086	c7 45 f0 00 00
	00 00		 mov	 DWORD PTR tv725[ebp], 0
  0008d	83 fa 02	 cmp	 edx, 2
  00090	8b f9		 mov	 edi, ecx
  00092	0f 4d 4d f0	 cmovge	 ecx, DWORD PTR tv725[ebp]
  00096	0f 4d fa	 cmovge	 edi, edx
  00099	40		 inc	 eax
  0009a	89 86 50 14 00
	00		 mov	 DWORD PTR [esi+5200], eax
  000a0	89 8c 86 5c 0b
	00 00		 mov	 DWORD PTR [esi+eax*4+2908], ecx

; 655  :         tree[node].Freq = 1;

  000a7	b8 01 00 00 00	 mov	 eax, 1
  000ac	66 89 04 8b	 mov	 WORD PTR [ebx+ecx*4], ax

; 656  :         s->depth[node] = 0;
; 657  :         s->opt_len--; if (stree) s->static_len -= stree[node].Len;

  000b0	8b 45 e8	 mov	 eax, DWORD PTR _stree$1$[ebp]
  000b3	c6 84 31 58 14
	00 00 00	 mov	 BYTE PTR [ecx+esi+5208], 0
  000bb	ff 8e a8 16 00
	00		 dec	 DWORD PTR [esi+5800]
  000c1	85 c0		 test	 eax, eax
  000c3	74 0b		 je	 SHORT $LN15@build_tree
  000c5	0f b7 44 88 02	 movzx	 eax, WORD PTR [eax+ecx*4+2]
  000ca	29 86 ac 16 00
	00		 sub	 DWORD PTR [esi+5804], eax
$LN15@build_tree:

; 645  :         }
; 646  :     }
; 647  : 
; 648  :     /* The pkzip format requires that at least one distance code exists,
; 649  :      * and that at least one bit should be sent even if there is only one
; 650  :      * possible code. So to avoid special checks later on we force at least
; 651  :      * two codes of non zero frequency.
; 652  :      */
; 653  :     while (s->heap_len < 2) {

  000d0	8b 86 50 14 00
	00		 mov	 eax, DWORD PTR [esi+5200]
  000d6	8b d7		 mov	 edx, edi
  000d8	83 f8 02	 cmp	 eax, 2
  000db	7c a6		 jl	 SHORT $LL5@build_tree
  000dd	89 55 f4	 mov	 DWORD PTR _max_code$1$[ebp], edx
$LN6@build_tree:

; 658  :         /* node is 0 or 1 so it does not have extra bits */
; 659  :     }
; 660  :     desc->max_code = max_code;

  000e0	8b 45 ec	 mov	 eax, DWORD PTR _desc$1$[ebp]
  000e3	89 50 04	 mov	 DWORD PTR [eax+4], edx

; 661  : 
; 662  :     /* The elements heap[heap_len/2 + 1 .. heap_len] are leaves of the tree,
; 663  :      * establish sub-heaps of increasing lengths:
; 664  :      */
; 665  :     for (n = s->heap_len/2; n >= 1; n--) pqdownheap(s, tree, n);

  000e6	8b 8e 50 14 00
	00		 mov	 ecx, DWORD PTR [esi+5200]
  000ec	8b c1		 mov	 eax, ecx
  000ee	99		 cdq
  000ef	2b c2		 sub	 eax, edx
  000f1	8b f8		 mov	 edi, eax
  000f3	d1 ff		 sar	 edi, 1
  000f5	83 ff 01	 cmp	 edi, 1
  000f8	7c 26		 jl	 SHORT $LL12@build_tree
  000fa	66 0f 1f 44 00
	00		 npad	 6
$LL9@build_tree:
  00100	57		 push	 edi
  00101	8b d3		 mov	 edx, ebx
  00103	8b ce		 mov	 ecx, esi
  00105	e8 00 00 00 00	 call	 _pqdownheap
  0010a	4f		 dec	 edi
  0010b	83 c4 04	 add	 esp, 4
  0010e	83 ff 01	 cmp	 edi, 1
  00111	7d ed		 jge	 SHORT $LL9@build_tree
  00113	8b 8e 50 14 00
	00		 mov	 ecx, DWORD PTR [esi+5200]
  00119	0f 1f 80 00 00
	00 00		 npad	 7
$LL12@build_tree:

; 666  : 
; 667  :     /* Construct the Huffman tree by repeatedly combining the least two
; 668  :      * frequent nodes.
; 669  :      */
; 670  :     node = elems;              /* next internal node of the tree */
; 671  :     do {
; 672  :         pqremove(s, tree, n);  /* n = node of least frequency */

  00120	8b 84 8e 5c 0b
	00 00		 mov	 eax, DWORD PTR [esi+ecx*4+2908]
  00127	8b 9e 60 0b 00
	00		 mov	 ebx, DWORD PTR [esi+2912]
  0012d	8b 55 fc	 mov	 edx, DWORD PTR _tree$1$[ebp]
  00130	89 86 60 0b 00
	00		 mov	 DWORD PTR [esi+2912], eax
  00136	8d 41 ff	 lea	 eax, DWORD PTR [ecx-1]
  00139	6a 01		 push	 1
  0013b	8b ce		 mov	 ecx, esi
  0013d	89 5d f0	 mov	 DWORD PTR _n$3$[ebp], ebx
  00140	89 86 50 14 00
	00		 mov	 DWORD PTR [esi+5200], eax
  00146	e8 00 00 00 00	 call	 _pqdownheap

; 673  :         m = s->heap[SMALLEST]; /* m = node of next least frequency */
; 674  : 
; 675  :         s->heap[--(s->heap_max)] = n; /* keep the nodes sorted by frequency */

  0014b	ff 8e 54 14 00
	00		 dec	 DWORD PTR [esi+5204]
  00151	8b 86 54 14 00
	00		 mov	 eax, DWORD PTR [esi+5204]
  00157	8b 8e 60 0b 00
	00		 mov	 ecx, DWORD PTR [esi+2912]

; 676  :         s->heap[--(s->heap_max)] = m;
; 677  : 
; 678  :         /* Create a new node father of n and m */
; 679  :         tree[node].Freq = tree[n].Freq + tree[m].Freq;

  0015d	8b 55 fc	 mov	 edx, DWORD PTR _tree$1$[ebp]
  00160	8d 3c 8a	 lea	 edi, DWORD PTR [edx+ecx*4]
  00163	89 9c 86 5c 0b
	00 00		 mov	 DWORD PTR [esi+eax*4+2908], ebx
  0016a	ff 8e 54 14 00
	00		 dec	 DWORD PTR [esi+5204]
  00170	8b 86 54 14 00
	00		 mov	 eax, DWORD PTR [esi+5204]

; 680  :         s->depth[node] = (uch)((s->depth[n] >= s->depth[m] ?
; 681  :                                 s->depth[n] : s->depth[m]) + 1);
; 682  :         tree[n].Dad = tree[m].Dad = (ush)node;
; 683  : #ifdef DUMP_BL_TREE
; 684  :         if (tree == s->bl_tree) {
; 685  :             fprintf(stderr,"\nnode %d(%d), sons %d(%d) %d(%d)",
; 686  :                     node, tree[node].Freq, n, tree[n].Freq, m, tree[m].Freq);
; 687  :         }
; 688  : #endif
; 689  :         /* and insert the new node in the heap */
; 690  :         s->heap[SMALLEST] = node++;
; 691  :         pqdownheap(s, tree, SMALLEST);

  00176	6a 01		 push	 1
  00178	89 8c 86 5c 0b
	00 00		 mov	 DWORD PTR [esi+eax*4+2908], ecx
  0017f	66 8b 07	 mov	 ax, WORD PTR [edi]
  00182	66 03 04 9a	 add	 ax, WORD PTR [edx+ebx*4]
  00186	8b 5d f8	 mov	 ebx, DWORD PTR _node$2$[ebp]
  00189	66 89 04 9a	 mov	 WORD PTR [edx+ebx*4], ax
  0018d	8a 8c 31 58 14
	00 00		 mov	 cl, BYTE PTR [ecx+esi+5208]
  00194	8b 5d f0	 mov	 ebx, DWORD PTR _n$3$[ebp]
  00197	0f b6 c1	 movzx	 eax, cl
  0019a	8a 94 33 58 14
	00 00		 mov	 dl, BYTE PTR [ebx+esi+5208]
  001a1	3a d1		 cmp	 dl, cl
  001a3	0f b6 da	 movzx	 ebx, dl
  001a6	8b 55 f8	 mov	 edx, DWORD PTR _node$2$[ebp]
  001a9	8b 4d f0	 mov	 ecx, DWORD PTR _n$3$[ebp]
  001ac	0f 42 d8	 cmovb	 ebx, eax
  001af	fe c3		 inc	 bl
  001b1	0f b7 c2	 movzx	 eax, dx
  001b4	88 9c 16 58 14
	00 00		 mov	 BYTE PTR [esi+edx+5208], bl
  001bb	8b 5d fc	 mov	 ebx, DWORD PTR _tree$1$[ebp]
  001be	66 89 47 02	 mov	 WORD PTR [edi+2], ax
  001c2	66 89 44 8b 02	 mov	 WORD PTR [ebx+ecx*4+2], ax
  001c7	8b ce		 mov	 ecx, esi
  001c9	89 96 60 0b 00
	00		 mov	 DWORD PTR [esi+2912], edx
  001cf	42		 inc	 edx
  001d0	89 55 f8	 mov	 DWORD PTR _node$2$[ebp], edx
  001d3	8b d3		 mov	 edx, ebx
  001d5	e8 00 00 00 00	 call	 _pqdownheap

; 692  : 
; 693  :     } while (s->heap_len >= 2);

  001da	8b 8e 50 14 00
	00		 mov	 ecx, DWORD PTR [esi+5200]
  001e0	83 c4 08	 add	 esp, 8
  001e3	83 f9 02	 cmp	 ecx, 2
  001e6	0f 8d 34 ff ff
	ff		 jge	 $LL12@build_tree

; 694  : 
; 695  :     s->heap[--(s->heap_max)] = s->heap[SMALLEST];

  001ec	ff 8e 54 14 00
	00		 dec	 DWORD PTR [esi+5204]

; 696  : 
; 697  :     /* At this point, the fields freq and dad are set. We can now
; 698  :      * generate the bit lengths.
; 699  :      */
; 700  :     gen_bitlen(s, (tree_desc *)desc);

  001f2	8b ce		 mov	 ecx, esi
  001f4	8b be 54 14 00
	00		 mov	 edi, DWORD PTR [esi+5204]
  001fa	8b 86 60 0b 00
	00		 mov	 eax, DWORD PTR [esi+2912]
  00200	8b 55 ec	 mov	 edx, DWORD PTR _desc$1$[ebp]
  00203	89 84 be 5c 0b
	00 00		 mov	 DWORD PTR [esi+edi*4+2908], eax
  0020a	e8 00 00 00 00	 call	 _gen_bitlen

; 701  : 
; 702  :     /* The field len is now set, we can generate the bit codes */
; 703  :     gen_codes ((ct_data *)tree, max_code, s->bl_count);

  0020f	8b 55 f4	 mov	 edx, DWORD PTR _max_code$1$[ebp]
  00212	81 c6 3c 0b 00
	00		 add	 esi, 2876		; 00000b3cH
  00218	56		 push	 esi
  00219	8b cb		 mov	 ecx, ebx
  0021b	e8 00 00 00 00	 call	 _gen_codes
  00220	83 c4 04	 add	 esp, 4
  00223	5f		 pop	 edi
  00224	5e		 pop	 esi
  00225	5b		 pop	 ebx

; 704  : }

  00226	8b e5		 mov	 esp, ebp
  00228	5d		 pop	 ebp
  00229	c3		 ret	 0
_build_tree ENDP
_TEXT	ENDS
; Function compile flags: /Ogtp
; File C:\Users\Pichau\Documents\Boldergarte\Softwares\LIBRARIES\downloads\zlib\zlib-develop\zlib-develop\trees.c
;	COMDAT _scan_tree
_TEXT	SEGMENT
tv364 = -12						; size = 4
_prevlen$1$ = -8					; size = 4
tv360 = -4						; size = 4
tv354 = -4						; size = 4
tv362 = 8						; size = 4
_max_code$ = 8						; size = 4
_scan_tree PROC						; COMDAT
; _s$ = ecx
; _tree$ = edx

; 710  : local void scan_tree(deflate_state *s, ct_data *tree, int max_code) {

  00000	55		 push	 ebp
  00001	8b ec		 mov	 ebp, esp
  00003	83 ec 0c	 sub	 esp, 12			; 0000000cH
  00006	53		 push	 ebx
  00007	56		 push	 esi
  00008	8b f2		 mov	 esi, edx

; 711  :     int n;                     /* iterates over all tree elements */
; 712  :     int prevlen = -1;          /* last emitted length */

  0000a	c7 45 f8 ff ff
	ff ff		 mov	 DWORD PTR _prevlen$1$[ebp], -1
  00011	57		 push	 edi

; 713  :     int curlen;                /* length of current code */
; 714  :     int nextlen = tree[0].Len; /* length of next code */
; 715  :     int count = 0;             /* repeat count of the current code */
; 716  :     int max_count = 7;         /* max repeat count */
; 717  :     int min_count = 4;         /* min repeat count */
; 718  : 
; 719  :     if (nextlen == 0) max_count = 138, min_count = 3;
; 720  :     tree[max_code + 1].Len = (ush)0xffff; /* guard */

  00012	bf ff ff 00 00	 mov	 edi, 65535		; 0000ffffH
  00017	0f b7 46 02	 movzx	 eax, WORD PTR [esi+2]
  0001b	8b d0		 mov	 edx, eax
  0001d	8b d8		 mov	 ebx, eax
  0001f	89 55 fc	 mov	 DWORD PTR tv360[ebp], edx
  00022	33 c0		 xor	 eax, eax
  00024	8b 55 08	 mov	 edx, DWORD PTR _max_code$[ebp]
  00027	66 89 7c 96 06	 mov	 WORD PTR [esi+edx*4+6], di

; 721  : 
; 722  :     for (n = 0; n <= max_code; n++) {

  0002c	85 d2		 test	 edx, edx
  0002e	0f 88 b7 00 00
	00		 js	 $LN3@scan_tree

; 713  :     int curlen;                /* length of current code */
; 714  :     int nextlen = tree[0].Len; /* length of next code */
; 715  :     int count = 0;             /* repeat count of the current code */
; 716  :     int max_count = 7;         /* max repeat count */
; 717  :     int min_count = 4;         /* min repeat count */
; 718  : 
; 719  :     if (nextlen == 0) max_count = 138, min_count = 3;
; 720  :     tree[max_code + 1].Len = (ush)0xffff; /* guard */

  00034	66 3b d8	 cmp	 bx, ax
  00037	ba 07 00 00 00	 mov	 edx, 7
  0003c	bf 8a 00 00 00	 mov	 edi, 138		; 0000008aH
  00041	0f 45 fa	 cmovne	 edi, edx
  00044	33 d2		 xor	 edx, edx
  00046	66 3b d8	 cmp	 bx, ax
  00049	0f 95 c2	 setne	 dl
  0004c	83 c6 06	 add	 esi, 6
  0004f	89 75 fc	 mov	 DWORD PTR tv354[ebp], esi
  00052	83 c2 03	 add	 edx, 3
  00055	8b 75 08	 mov	 esi, DWORD PTR _max_code$[ebp]
  00058	46		 inc	 esi
  00059	89 75 f4	 mov	 DWORD PTR tv364[ebp], esi
  0005c	0f 1f 40 00	 npad	 4
$LL4@scan_tree:

; 723  :         curlen = nextlen; nextlen = tree[n + 1].Len;

  00060	89 5d 08	 mov	 DWORD PTR tv362[ebp], ebx
  00063	8b f3		 mov	 esi, ebx
  00065	8b 5d fc	 mov	 ebx, DWORD PTR tv354[ebp]

; 724  :         if (++count < max_count && curlen == nextlen) {

  00068	40		 inc	 eax
  00069	0f b7 1b	 movzx	 ebx, WORD PTR [ebx]
  0006c	3b c7		 cmp	 eax, edi
  0006e	7d 04		 jge	 SHORT $LN6@scan_tree
  00070	3b f3		 cmp	 esi, ebx
  00072	74 69		 je	 SHORT $LN2@scan_tree
$LN6@scan_tree:

; 725  :             continue;
; 726  :         } else if (count < min_count) {

  00074	3b c2		 cmp	 eax, edx
  00076	8b 55 08	 mov	 edx, DWORD PTR tv362[ebp]
  00079	7d 0a		 jge	 SHORT $LN8@scan_tree

; 727  :             s->bl_tree[curlen].Freq += (ush)count;

  0007b	66 01 84 b1 7c
	0a 00 00	 add	 WORD PTR [ecx+esi*4+2684], ax
  00083	eb 2f		 jmp	 SHORT $LN14@scan_tree
$LN8@scan_tree:

; 728  :         } else if (curlen != 0) {

  00085	85 d2		 test	 edx, edx
  00087	74 16		 je	 SHORT $LN10@scan_tree

; 729  :             if (curlen != prevlen) s->bl_tree[curlen].Freq++;

  00089	3b 75 f8	 cmp	 esi, DWORD PTR _prevlen$1$[ebp]
  0008c	74 08		 je	 SHORT $LN24@scan_tree
  0008e	66 ff 84 b1 7c
	0a 00 00	 inc	 WORD PTR [ecx+esi*4+2684]
$LN24@scan_tree:

; 730  :             s->bl_tree[REP_3_6].Freq++;

  00096	66 ff 81 bc 0a
	00 00		 inc	 WORD PTR [ecx+2748]
  0009d	eb 15		 jmp	 SHORT $LN14@scan_tree
$LN10@scan_tree:

; 731  :         } else if (count <= 10) {

  0009f	83 f8 0a	 cmp	 eax, 10			; 0000000aH
  000a2	7f 09		 jg	 SHORT $LN13@scan_tree

; 732  :             s->bl_tree[REPZ_3_10].Freq++;

  000a4	66 ff 81 c0 0a
	00 00		 inc	 WORD PTR [ecx+2752]

; 733  :         } else {

  000ab	eb 07		 jmp	 SHORT $LN14@scan_tree
$LN13@scan_tree:

; 734  :             s->bl_tree[REPZ_11_138].Freq++;

  000ad	66 ff 81 c4 0a
	00 00		 inc	 WORD PTR [ecx+2756]
$LN14@scan_tree:

; 735  :         }
; 736  :         count = 0; prevlen = curlen;

  000b4	33 c0		 xor	 eax, eax
  000b6	89 75 f8	 mov	 DWORD PTR _prevlen$1$[ebp], esi

; 737  :         if (nextlen == 0) {

  000b9	85 db		 test	 ebx, ebx
  000bb	75 0a		 jne	 SHORT $LN15@scan_tree

; 738  :             max_count = 138, min_count = 3;

  000bd	bf 8a 00 00 00	 mov	 edi, 138		; 0000008aH
  000c2	8d 50 03	 lea	 edx, DWORD PTR [eax+3]
  000c5	eb 16		 jmp	 SHORT $LN2@scan_tree
$LN15@scan_tree:

; 739  :         } else if (curlen == nextlen) {

  000c7	3b d3		 cmp	 edx, ebx
  000c9	75 0a		 jne	 SHORT $LN17@scan_tree

; 740  :             max_count = 6, min_count = 3;

  000cb	bf 06 00 00 00	 mov	 edi, 6
  000d0	8d 57 fd	 lea	 edx, DWORD PTR [edi-3]

; 741  :         } else {

  000d3	eb 08		 jmp	 SHORT $LN2@scan_tree
$LN17@scan_tree:

; 742  :             max_count = 7, min_count = 4;

  000d5	bf 07 00 00 00	 mov	 edi, 7
  000da	8d 57 fd	 lea	 edx, DWORD PTR [edi-3]
$LN2@scan_tree:

; 721  : 
; 722  :     for (n = 0; n <= max_code; n++) {

  000dd	83 45 fc 04	 add	 DWORD PTR tv354[ebp], 4
  000e1	83 6d f4 01	 sub	 DWORD PTR tv364[ebp], 1
  000e5	0f 85 75 ff ff
	ff		 jne	 $LL4@scan_tree
$LN3@scan_tree:
  000eb	5f		 pop	 edi

; 743  :         }
; 744  :     }
; 745  : }

  000ec	5e		 pop	 esi
  000ed	5b		 pop	 ebx
  000ee	8b e5		 mov	 esp, ebp
  000f0	5d		 pop	 ebp
  000f1	c3		 ret	 0
_scan_tree ENDP
_TEXT	ENDS
; Function compile flags: /Ogtp
; File C:\Users\Pichau\Documents\Boldergarte\Softwares\LIBRARIES\downloads\zlib\zlib-develop\zlib-develop\trees.c
;	COMDAT _send_tree
_TEXT	SEGMENT
_nextlen$1$ = -40					; size = 4
tv2045 = -36						; size = 4
tv2046 = -32						; size = 4
_tree$1$ = -32						; size = 4
tv2073 = -28						; size = 4
tv1840 = -28						; size = 4
tv1991 = -24						; size = 4
tv2040 = -20						; size = 4
_curlen$1$ = -16					; size = 4
$T1 = -12						; size = 4
$T2 = -12						; size = 4
tv1984 = -12						; size = 4
_len$1$ = -12						; size = 4
_len$1$ = -12						; size = 4
_len$1$ = -12						; size = 4
_len$1$ = -12						; size = 4
$T3 = -8						; size = 4
tv2041 = -8						; size = 4
tv1978 = -8						; size = 4
tv1972 = -8						; size = 4
$T4 = -8						; size = 4
_len$1$ = -8						; size = 4
$T5 = -8						; size = 4
_s$1$ = -4						; size = 4
$T6 = 8							; size = 4
tv1988 = 8						; size = 4
tv1986 = 8						; size = 4
tv1985 = 8						; size = 4
tv1981 = 8						; size = 4
tv1977 = 8						; size = 4
tv1948 = 8						; size = 4
tv1906 = 8						; size = 4
tv1866 = 8						; size = 4
$T7 = 8							; size = 4
$T8 = 8							; size = 4
_max_code$ = 8						; size = 4
_send_tree PROC						; COMDAT
; _s$ = ecx
; _tree$ = edx

; 751  : local void send_tree(deflate_state *s, ct_data *tree, int max_code) {

  00000	55		 push	 ebp
  00001	8b ec		 mov	 ebp, esp
  00003	83 ec 28	 sub	 esp, 40			; 00000028H
  00006	53		 push	 ebx

; 752  :     int n;                     /* iterates over all tree elements */
; 753  :     int prevlen = -1;          /* last emitted length */
; 754  :     int curlen;                /* length of current code */
; 755  :     int nextlen = tree[0].Len; /* length of next code */

  00007	0f b7 5a 02	 movzx	 ebx, WORD PTR [edx+2]
  0000b	56		 push	 esi
  0000c	57		 push	 edi

; 756  :     int count = 0;             /* repeat count of the current code */

  0000d	33 ff		 xor	 edi, edi
  0000f	89 55 e0	 mov	 DWORD PTR _tree$1$[ebp], edx
  00012	83 ce ff	 or	 esi, -1
  00015	89 4d fc	 mov	 DWORD PTR _s$1$[ebp], ecx

; 757  :     int max_count = 7;         /* max repeat count */
; 758  :     int min_count = 4;         /* min repeat count */
; 759  : 
; 760  :     /* tree[max_code + 1].Len = -1; */  /* guard already set */
; 761  :     if (nextlen == 0) max_count = 138, min_count = 3;
; 762  : 
; 763  :     for (n = 0; n <= max_code; n++) {

  00018	39 7d 08	 cmp	 DWORD PTR _max_code$[ebp], edi
  0001b	0f 8c ec 04 00
	00		 jl	 $LN3@send_tree
  00021	85 db		 test	 ebx, ebx
  00023	b8 07 00 00 00	 mov	 eax, 7
  00028	ba 8a 00 00 00	 mov	 edx, 138		; 0000008aH
  0002d	0f 45 d0	 cmovne	 edx, eax
  00030	8b 45 e0	 mov	 eax, DWORD PTR _tree$1$[ebp]
  00033	33 c9		 xor	 ecx, ecx
  00035	85 db		 test	 ebx, ebx
  00037	0f 95 c1	 setne	 cl
  0003a	83 c0 06	 add	 eax, 6
  0003d	89 45 e8	 mov	 DWORD PTR tv1991[ebp], eax
  00040	83 c1 03	 add	 ecx, 3
  00043	8b 45 08	 mov	 eax, DWORD PTR _max_code$[ebp]
  00046	40		 inc	 eax
  00047	89 45 e0	 mov	 DWORD PTR tv2046[ebp], eax
  0004a	8b 45 fc	 mov	 eax, DWORD PTR _s$1$[ebp]
  0004d	0f 1f 00	 npad	 3
$LL4@send_tree:

; 764  :         curlen = nextlen; nextlen = tree[n + 1].Len;

  00050	89 5d ec	 mov	 DWORD PTR tv2040[ebp], ebx
  00053	89 5d f0	 mov	 DWORD PTR _curlen$1$[ebp], ebx
  00056	89 5d f8	 mov	 DWORD PTR tv2041[ebp], ebx
  00059	8b 5d e8	 mov	 ebx, DWORD PTR tv1991[ebp]

; 765  :         if (++count < max_count && curlen == nextlen) {

  0005c	89 7d dc	 mov	 DWORD PTR tv2045[ebp], edi
  0005f	47		 inc	 edi
  00060	0f b7 1b	 movzx	 ebx, WORD PTR [ebx]
  00063	89 5d d8	 mov	 DWORD PTR _nextlen$1$[ebp], ebx
  00066	3b fa		 cmp	 edi, edx
  00068	7d 09		 jge	 SHORT $LN9@send_tree
  0006a	39 5d ec	 cmp	 DWORD PTR tv2040[ebp], ebx
  0006d	0f 84 8c 04 00
	00		 je	 $LN2@send_tree
$LN9@send_tree:

; 766  :             continue;
; 767  :         } else if (count < min_count) {

  00073	3b f9		 cmp	 edi, ecx
  00075	0f 8d b1 00 00
	00		 jge	 $LN11@send_tree
  0007b	0f 1f 44 00 00	 npad	 5
$LL7@send_tree:

; 768  :             do { send_code(s, curlen, s->bl_tree); } while (--count != 0);

  00080	8b 4d f0	 mov	 ecx, DWORD PTR _curlen$1$[ebp]
  00083	8b b0 bc 16 00
	00		 mov	 esi, DWORD PTR [eax+5820]
  00089	0f b7 8c 88 7e
	0a 00 00	 movzx	 ecx, WORD PTR [eax+ecx*4+2686]
  00091	89 4d f4	 mov	 DWORD PTR _len$1$[ebp], ecx
  00094	8b 4d f8	 mov	 ecx, DWORD PTR tv2041[ebp]
  00097	0f b7 9c 88 7c
	0a 00 00	 movzx	 ebx, WORD PTR [eax+ecx*4+2684]
  0009f	8b ce		 mov	 ecx, esi
  000a1	66 8b d3	 mov	 dx, bx
  000a4	66 d3 e2	 shl	 dx, cl
  000a7	66 0b 90 b8 16
	00 00		 or	 dx, WORD PTR [eax+5816]
  000ae	0f b7 ca	 movzx	 ecx, dx
  000b1	8b 55 f4	 mov	 edx, DWORD PTR _len$1$[ebp]
  000b4	89 4d 08	 mov	 DWORD PTR tv1986[ebp], ecx
  000b7	b9 10 00 00 00	 mov	 ecx, 16			; 00000010H
  000bc	2b ca		 sub	 ecx, edx
  000be	3b f1		 cmp	 esi, ecx
  000c0	8b 4d 08	 mov	 ecx, DWORD PTR tv1986[ebp]
  000c3	7e 47		 jle	 SHORT $LN13@send_tree
  000c5	8b 50 08	 mov	 edx, DWORD PTR [eax+8]
  000c8	66 89 88 b8 16
	00 00		 mov	 WORD PTR [eax+5816], cx
  000cf	8b 48 14	 mov	 ecx, DWORD PTR [eax+20]
  000d2	8b 45 08	 mov	 eax, DWORD PTR tv1986[ebp]
  000d5	88 04 0a	 mov	 BYTE PTR [edx+ecx], al
  000d8	8b 45 fc	 mov	 eax, DWORD PTR _s$1$[ebp]
  000db	ff 40 14	 inc	 DWORD PTR [eax+20]
  000de	8b 70 14	 mov	 esi, DWORD PTR [eax+20]
  000e1	8b 50 08	 mov	 edx, DWORD PTR [eax+8]
  000e4	8a 88 b9 16 00
	00		 mov	 cl, BYTE PTR [eax+5817]
  000ea	88 0c 16	 mov	 BYTE PTR [esi+edx], cl
  000ed	b1 10		 mov	 cl, 16			; 00000010H
  000ef	8b 55 f4	 mov	 edx, DWORD PTR _len$1$[ebp]
  000f2	2a 88 bc 16 00
	00		 sub	 cl, BYTE PTR [eax+5820]
  000f8	83 c2 f0	 add	 edx, -16		; fffffff0H
  000fb	ff 40 14	 inc	 DWORD PTR [eax+20]
  000fe	03 90 bc 16 00
	00		 add	 edx, DWORD PTR [eax+5820]
  00104	66 d3 eb	 shr	 bx, cl
  00107	0f b7 cb	 movzx	 ecx, bx
  0010a	eb 05		 jmp	 SHORT $LN5@send_tree
$LN13@send_tree:
  0010c	03 d6		 add	 edx, esi
  0010e	0f b7 c9	 movzx	 ecx, cx
$LN5@send_tree:
  00111	66 89 88 b8 16
	00 00		 mov	 WORD PTR [eax+5816], cx
  00118	89 90 bc 16 00
	00		 mov	 DWORD PTR [eax+5820], edx
  0011e	83 ef 01	 sub	 edi, 1
  00121	0f 85 59 ff ff
	ff		 jne	 $LL7@send_tree

; 769  : 
; 770  :         } else if (curlen != 0) {

  00127	e9 a6 03 00 00	 jmp	 $LN33@send_tree
$LN11@send_tree:
  0012c	83 7d ec 00	 cmp	 DWORD PTR tv2040[ebp], 0
  00130	8d 98 b8 16 00
	00		 lea	 ebx, DWORD PTR [eax+5816]
  00136	0f 84 92 01 00
	00		 je	 $LN15@send_tree

; 771  :             if (curlen != prevlen) {

  0013c	8b 4d f0	 mov	 ecx, DWORD PTR _curlen$1$[ebp]
  0013f	3b ce		 cmp	 ecx, esi
  00141	8d b0 bc 16 00
	00		 lea	 esi, DWORD PTR [eax+5820]
  00147	0f 84 8d 00 00
	00		 je	 $LN44@send_tree

; 772  :                 send_code(s, curlen, s->bl_tree); count--;

  0014d	0f b7 8c 88 7e
	0a 00 00	 movzx	 ecx, WORD PTR [eax+ecx*4+2686]
  00155	8b 3e		 mov	 edi, DWORD PTR [esi]
  00157	89 4d f4	 mov	 DWORD PTR _len$1$[ebp], ecx
  0015a	8b 4d f8	 mov	 ecx, DWORD PTR tv2041[ebp]
  0015d	0f b7 8c 88 7c
	0a 00 00	 movzx	 ecx, WORD PTR [eax+ecx*4+2684]
  00165	66 8b d1	 mov	 dx, cx
  00168	89 4d e4	 mov	 DWORD PTR tv1840[ebp], ecx
  0016b	8b cf		 mov	 ecx, edi
  0016d	66 d3 e2	 shl	 dx, cl
  00170	66 0b 13	 or	 dx, WORD PTR [ebx]
  00173	0f b7 ca	 movzx	 ecx, dx
  00176	8b 55 f4	 mov	 edx, DWORD PTR _len$1$[ebp]
  00179	89 4d 08	 mov	 DWORD PTR tv1985[ebp], ecx
  0017c	b9 10 00 00 00	 mov	 ecx, 16			; 00000010H
  00181	2b ca		 sub	 ecx, edx
  00183	3b f9		 cmp	 edi, ecx
  00185	8b 4d 08	 mov	 ecx, DWORD PTR tv1985[ebp]
  00188	7e 43		 jle	 SHORT $LN18@send_tree
  0018a	8b 50 08	 mov	 edx, DWORD PTR [eax+8]
  0018d	66 89 0b	 mov	 WORD PTR [ebx], cx
  00190	8b 48 14	 mov	 ecx, DWORD PTR [eax+20]
  00193	8b 45 08	 mov	 eax, DWORD PTR tv1985[ebp]
  00196	88 04 0a	 mov	 BYTE PTR [edx+ecx], al
  00199	8b 45 fc	 mov	 eax, DWORD PTR _s$1$[ebp]
  0019c	8a 4b 01	 mov	 cl, BYTE PTR [ebx+1]
  0019f	ff 40 14	 inc	 DWORD PTR [eax+20]
  001a2	8b 70 14	 mov	 esi, DWORD PTR [eax+20]
  001a5	8b 50 08	 mov	 edx, DWORD PTR [eax+8]
  001a8	88 0c 16	 mov	 BYTE PTR [esi+edx], cl
  001ab	8d b0 bc 16 00
	00		 lea	 esi, DWORD PTR [eax+5820]
  001b1	8b 55 f4	 mov	 edx, DWORD PTR _len$1$[ebp]
  001b4	b1 10		 mov	 cl, 16			; 00000010H
  001b6	8b 3e		 mov	 edi, DWORD PTR [esi]
  001b8	83 c2 f0	 add	 edx, -16		; fffffff0H
  001bb	2a 0e		 sub	 cl, BYTE PTR [esi]
  001bd	03 fa		 add	 edi, edx
  001bf	8b 55 e4	 mov	 edx, DWORD PTR tv1840[ebp]
  001c2	ff 40 14	 inc	 DWORD PTR [eax+20]
  001c5	66 d3 ea	 shr	 dx, cl
  001c8	0f b7 ca	 movzx	 ecx, dx
  001cb	eb 05		 jmp	 SHORT $LN19@send_tree
$LN18@send_tree:
  001cd	03 fa		 add	 edi, edx
  001cf	0f b7 c9	 movzx	 ecx, cx
$LN19@send_tree:
  001d2	66 89 0b	 mov	 WORD PTR [ebx], cx
  001d5	89 3e		 mov	 DWORD PTR [esi], edi
  001d7	8b 7d dc	 mov	 edi, DWORD PTR tv2045[ebp]
$LN44@send_tree:

; 773  :             }
; 774  :             Assert(count >= 3 && count <= 6, " 3_6?");
; 775  :             send_code(s, REP_3_6, s->bl_tree); send_bits(s, count - 3, 2);

  001da	0f b7 88 be 0a
	00 00		 movzx	 ecx, WORD PTR [eax+2750]
  001e1	0f b7 90 bc 0a
	00 00		 movzx	 edx, WORD PTR [eax+2748]
  001e8	89 4d f8	 mov	 DWORD PTR _len$1$[ebp], ecx
  001eb	8b 0e		 mov	 ecx, DWORD PTR [esi]
  001ed	89 55 08	 mov	 DWORD PTR tv1866[ebp], edx
  001f0	66 d3 e2	 shl	 dx, cl
  001f3	66 0b 13	 or	 dx, WORD PTR [ebx]
  001f6	0f b7 ca	 movzx	 ecx, dx
  001f9	8b 16		 mov	 edx, DWORD PTR [esi]
  001fb	89 4d f4	 mov	 DWORD PTR tv1984[ebp], ecx
  001fe	b9 10 00 00 00	 mov	 ecx, 16			; 00000010H
  00203	2b 4d f8	 sub	 ecx, DWORD PTR _len$1$[ebp]
  00206	3b d1		 cmp	 edx, ecx
  00208	8b 4d f4	 mov	 ecx, DWORD PTR tv1984[ebp]
  0020b	7e 3f		 jle	 SHORT $LN20@send_tree
  0020d	8b 50 08	 mov	 edx, DWORD PTR [eax+8]
  00210	66 89 0b	 mov	 WORD PTR [ebx], cx
  00213	8b 48 14	 mov	 ecx, DWORD PTR [eax+20]
  00216	8b 45 f4	 mov	 eax, DWORD PTR tv1984[ebp]
  00219	88 04 0a	 mov	 BYTE PTR [edx+ecx], al
  0021c	8b 45 fc	 mov	 eax, DWORD PTR _s$1$[ebp]
  0021f	8a 4b 01	 mov	 cl, BYTE PTR [ebx+1]
  00222	ff 40 14	 inc	 DWORD PTR [eax+20]
  00225	8b 70 14	 mov	 esi, DWORD PTR [eax+20]
  00228	8b 50 08	 mov	 edx, DWORD PTR [eax+8]
  0022b	88 0c 16	 mov	 BYTE PTR [esi+edx], cl
  0022e	8d b0 bc 16 00
	00		 lea	 esi, DWORD PTR [eax+5820]
  00234	8b 55 f8	 mov	 edx, DWORD PTR _len$1$[ebp]
  00237	b1 10		 mov	 cl, 16			; 00000010H
  00239	2a 0e		 sub	 cl, BYTE PTR [esi]
  0023b	83 c2 f0	 add	 edx, -16		; fffffff0H
  0023e	ff 40 14	 inc	 DWORD PTR [eax+20]
  00241	03 16		 add	 edx, DWORD PTR [esi]
  00243	66 d3 6d 08	 shr	 WORD PTR tv1866[ebp], cl
  00247	8b 4d 08	 mov	 ecx, DWORD PTR tv1866[ebp]
  0024a	eb 03		 jmp	 SHORT $LN64@send_tree
$LN20@send_tree:
  0024c	03 55 f8	 add	 edx, DWORD PTR _len$1$[ebp]
$LN64@send_tree:
  0024f	0f b7 c9	 movzx	 ecx, cx
  00252	89 4d 08	 mov	 DWORD PTR $T8[ebp], ecx
  00255	8b ce		 mov	 ecx, esi
  00257	89 55 f8	 mov	 DWORD PTR $T3[ebp], edx
  0025a	89 11		 mov	 DWORD PTR [ecx], edx
  0025c	8d 4f fd	 lea	 ecx, DWORD PTR [edi-3]
  0025f	0f b7 f9	 movzx	 edi, cx
  00262	8b 4d f8	 mov	 ecx, DWORD PTR $T3[ebp]
  00265	66 8b d7	 mov	 dx, di
  00268	66 d3 e2	 shl	 dx, cl
  0026b	66 0b 55 08	 or	 dx, WORD PTR $T8[ebp]
  0026f	0f b7 d2	 movzx	 edx, dx
  00272	89 55 08	 mov	 DWORD PTR tv1981[ebp], edx
  00275	83 f9 0e	 cmp	 ecx, 14			; 0000000eH
  00278	7e 44		 jle	 SHORT $LN22@send_tree
  0027a	8b 48 08	 mov	 ecx, DWORD PTR [eax+8]
  0027d	66 89 13	 mov	 WORD PTR [ebx], dx
  00280	8b 50 14	 mov	 edx, DWORD PTR [eax+20]
  00283	8b 45 08	 mov	 eax, DWORD PTR tv1981[ebp]
  00286	88 04 0a	 mov	 BYTE PTR [edx+ecx], al
  00289	8b 45 fc	 mov	 eax, DWORD PTR _s$1$[ebp]
  0028c	8a 4b 01	 mov	 cl, BYTE PTR [ebx+1]
  0028f	ff 40 14	 inc	 DWORD PTR [eax+20]
  00292	8b 70 14	 mov	 esi, DWORD PTR [eax+20]
  00295	8b 50 08	 mov	 edx, DWORD PTR [eax+8]
  00298	88 0c 16	 mov	 BYTE PTR [esi+edx], cl
  0029b	b1 10		 mov	 cl, 16			; 00000010H
  0029d	0f b7 90 bc 16
	00 00		 movzx	 edx, WORD PTR [eax+5820]
  002a4	ff 40 14	 inc	 DWORD PTR [eax+20]
  002a7	2a ca		 sub	 cl, dl
  002a9	83 80 bc 16 00
	00 f2		 add	 DWORD PTR [eax+5820], -14 ; fffffff2H
  002b0	66 d3 ef	 shr	 di, cl
  002b3	0f b7 cf	 movzx	 ecx, di
  002b6	66 89 0b	 mov	 WORD PTR [ebx], cx
  002b9	e9 14 02 00 00	 jmp	 $LN33@send_tree
$LN22@send_tree:
  002be	83 c1 02	 add	 ecx, 2
  002c1	89 0e		 mov	 DWORD PTR [esi], ecx
  002c3	0f b7 ca	 movzx	 ecx, dx
  002c6	66 89 0b	 mov	 WORD PTR [ebx], cx
  002c9	e9 04 02 00 00	 jmp	 $LN33@send_tree
$LN15@send_tree:

; 776  : 
; 777  :         } else if (count <= 10) {

  002ce	8d b0 bc 16 00
	00		 lea	 esi, DWORD PTR [eax+5820]
  002d4	89 75 e4	 mov	 DWORD PTR tv2073[ebp], esi
  002d7	83 ff 0a	 cmp	 edi, 10			; 0000000aH
  002da	0f 8f 03 01 00
	00		 jg	 $LN24@send_tree

; 778  :             send_code(s, REPZ_3_10, s->bl_tree); send_bits(s, count - 3, 3);

  002e0	0f b7 88 c2 0a
	00 00		 movzx	 ecx, WORD PTR [eax+2754]
  002e7	0f b7 90 c0 0a
	00 00		 movzx	 edx, WORD PTR [eax+2752]
  002ee	89 4d f4	 mov	 DWORD PTR _len$1$[ebp], ecx
  002f1	8b 0e		 mov	 ecx, DWORD PTR [esi]
  002f3	89 55 08	 mov	 DWORD PTR tv1906[ebp], edx
  002f6	66 d3 e2	 shl	 dx, cl
  002f9	66 0b 13	 or	 dx, WORD PTR [ebx]
  002fc	0f b7 ca	 movzx	 ecx, dx
  002ff	8b 16		 mov	 edx, DWORD PTR [esi]
  00301	89 4d f8	 mov	 DWORD PTR tv1978[ebp], ecx
  00304	b9 10 00 00 00	 mov	 ecx, 16			; 00000010H
  00309	2b 4d f4	 sub	 ecx, DWORD PTR _len$1$[ebp]
  0030c	3b d1		 cmp	 edx, ecx
  0030e	8b 4d f8	 mov	 ecx, DWORD PTR tv1978[ebp]
  00311	7e 3f		 jle	 SHORT $LN26@send_tree
  00313	8b 50 08	 mov	 edx, DWORD PTR [eax+8]
  00316	66 89 0b	 mov	 WORD PTR [ebx], cx
  00319	8b 48 14	 mov	 ecx, DWORD PTR [eax+20]
  0031c	8b 45 f8	 mov	 eax, DWORD PTR tv1978[ebp]
  0031f	88 04 0a	 mov	 BYTE PTR [edx+ecx], al
  00322	8b 45 fc	 mov	 eax, DWORD PTR _s$1$[ebp]
  00325	8a 4b 01	 mov	 cl, BYTE PTR [ebx+1]
  00328	ff 40 14	 inc	 DWORD PTR [eax+20]
  0032b	8b 70 14	 mov	 esi, DWORD PTR [eax+20]
  0032e	8b 50 08	 mov	 edx, DWORD PTR [eax+8]
  00331	88 0c 16	 mov	 BYTE PTR [esi+edx], cl
  00334	8d b0 bc 16 00
	00		 lea	 esi, DWORD PTR [eax+5820]
  0033a	8b 55 f4	 mov	 edx, DWORD PTR _len$1$[ebp]
  0033d	b1 10		 mov	 cl, 16			; 00000010H
  0033f	2a 0e		 sub	 cl, BYTE PTR [esi]
  00341	83 c2 f0	 add	 edx, -16		; fffffff0H
  00344	ff 40 14	 inc	 DWORD PTR [eax+20]
  00347	03 16		 add	 edx, DWORD PTR [esi]
  00349	66 d3 6d 08	 shr	 WORD PTR tv1906[ebp], cl
  0034d	8b 4d 08	 mov	 ecx, DWORD PTR tv1906[ebp]
  00350	eb 06		 jmp	 SHORT $LN65@send_tree
$LN26@send_tree:
  00352	03 55 f4	 add	 edx, DWORD PTR _len$1$[ebp]
  00355	8b 45 fc	 mov	 eax, DWORD PTR _s$1$[ebp]
$LN65@send_tree:
  00358	89 75 08	 mov	 DWORD PTR $T7[ebp], esi
  0035b	8b f3		 mov	 esi, ebx
  0035d	0f b7 c9	 movzx	 ecx, cx
  00360	89 4d f8	 mov	 DWORD PTR $T4[ebp], ecx
  00363	89 55 f4	 mov	 DWORD PTR $T2[ebp], edx
  00366	66 89 0e	 mov	 WORD PTR [esi], cx
  00369	8b 4d 08	 mov	 ecx, DWORD PTR $T7[ebp]
  0036c	8b 75 e4	 mov	 esi, DWORD PTR tv2073[ebp]
  0036f	89 11		 mov	 DWORD PTR [ecx], edx
  00371	8d 4f fd	 lea	 ecx, DWORD PTR [edi-3]
  00374	0f b7 f9	 movzx	 edi, cx
  00377	8b 4d f4	 mov	 ecx, DWORD PTR $T2[ebp]
  0037a	66 8b d7	 mov	 dx, di
  0037d	66 d3 e2	 shl	 dx, cl
  00380	66 0b 55 f8	 or	 dx, WORD PTR $T4[ebp]
  00384	0f b7 d2	 movzx	 edx, dx
  00387	89 55 08	 mov	 DWORD PTR tv1977[ebp], edx
  0038a	83 f9 0d	 cmp	 ecx, 13			; 0000000dH
  0038d	7e 44		 jle	 SHORT $LN28@send_tree
  0038f	8b 48 08	 mov	 ecx, DWORD PTR [eax+8]
  00392	66 89 13	 mov	 WORD PTR [ebx], dx
  00395	8b 50 14	 mov	 edx, DWORD PTR [eax+20]
  00398	8b 45 08	 mov	 eax, DWORD PTR tv1977[ebp]
  0039b	88 04 0a	 mov	 BYTE PTR [edx+ecx], al
  0039e	8b 45 fc	 mov	 eax, DWORD PTR _s$1$[ebp]
  003a1	8a 4b 01	 mov	 cl, BYTE PTR [ebx+1]
  003a4	ff 40 14	 inc	 DWORD PTR [eax+20]
  003a7	8b 70 14	 mov	 esi, DWORD PTR [eax+20]
  003aa	8b 50 08	 mov	 edx, DWORD PTR [eax+8]
  003ad	88 0c 16	 mov	 BYTE PTR [esi+edx], cl
  003b0	b1 10		 mov	 cl, 16			; 00000010H
  003b2	0f b7 90 bc 16
	00 00		 movzx	 edx, WORD PTR [eax+5820]
  003b9	ff 40 14	 inc	 DWORD PTR [eax+20]
  003bc	2a ca		 sub	 cl, dl
  003be	83 80 bc 16 00
	00 f3		 add	 DWORD PTR [eax+5820], -13 ; fffffff3H
  003c5	66 d3 ef	 shr	 di, cl
  003c8	0f b7 cf	 movzx	 ecx, di

; 779  : 
; 780  :         } else {

  003cb	66 89 0b	 mov	 WORD PTR [ebx], cx
  003ce	e9 ff 00 00 00	 jmp	 $LN33@send_tree
$LN28@send_tree:

; 778  :             send_code(s, REPZ_3_10, s->bl_tree); send_bits(s, count - 3, 3);

  003d3	83 c1 03	 add	 ecx, 3
  003d6	89 0e		 mov	 DWORD PTR [esi], ecx
  003d8	0f b7 ca	 movzx	 ecx, dx

; 779  : 
; 780  :         } else {

  003db	66 89 0b	 mov	 WORD PTR [ebx], cx
  003de	e9 ef 00 00 00	 jmp	 $LN33@send_tree
$LN24@send_tree:

; 781  :             send_code(s, REPZ_11_138, s->bl_tree); send_bits(s, count - 11, 7);

  003e3	0f b7 88 c6 0a
	00 00		 movzx	 ecx, WORD PTR [eax+2758]
  003ea	0f b7 90 c4 0a
	00 00		 movzx	 edx, WORD PTR [eax+2756]
  003f1	89 4d f4	 mov	 DWORD PTR _len$1$[ebp], ecx
  003f4	8b 0e		 mov	 ecx, DWORD PTR [esi]
  003f6	89 55 08	 mov	 DWORD PTR tv1948[ebp], edx
  003f9	66 d3 e2	 shl	 dx, cl
  003fc	66 0b 13	 or	 dx, WORD PTR [ebx]
  003ff	0f b7 ca	 movzx	 ecx, dx
  00402	8b 16		 mov	 edx, DWORD PTR [esi]
  00404	89 4d f8	 mov	 DWORD PTR tv1972[ebp], ecx
  00407	b9 10 00 00 00	 mov	 ecx, 16			; 00000010H
  0040c	2b 4d f4	 sub	 ecx, DWORD PTR _len$1$[ebp]
  0040f	3b d1		 cmp	 edx, ecx
  00411	8b 4d f8	 mov	 ecx, DWORD PTR tv1972[ebp]
  00414	7e 3f		 jle	 SHORT $LN30@send_tree
  00416	8b 50 08	 mov	 edx, DWORD PTR [eax+8]
  00419	66 89 0b	 mov	 WORD PTR [ebx], cx
  0041c	8b 48 14	 mov	 ecx, DWORD PTR [eax+20]
  0041f	8b 45 f8	 mov	 eax, DWORD PTR tv1972[ebp]
  00422	88 04 0a	 mov	 BYTE PTR [edx+ecx], al
  00425	8b 45 fc	 mov	 eax, DWORD PTR _s$1$[ebp]
  00428	8a 4b 01	 mov	 cl, BYTE PTR [ebx+1]
  0042b	ff 40 14	 inc	 DWORD PTR [eax+20]
  0042e	8b 70 14	 mov	 esi, DWORD PTR [eax+20]
  00431	8b 50 08	 mov	 edx, DWORD PTR [eax+8]
  00434	88 0c 16	 mov	 BYTE PTR [esi+edx], cl
  00437	8d b0 bc 16 00
	00		 lea	 esi, DWORD PTR [eax+5820]
  0043d	8b 55 f4	 mov	 edx, DWORD PTR _len$1$[ebp]
  00440	b1 10		 mov	 cl, 16			; 00000010H
  00442	2a 0e		 sub	 cl, BYTE PTR [esi]
  00444	83 c2 f0	 add	 edx, -16		; fffffff0H
  00447	ff 40 14	 inc	 DWORD PTR [eax+20]
  0044a	03 16		 add	 edx, DWORD PTR [esi]
  0044c	66 d3 6d 08	 shr	 WORD PTR tv1948[ebp], cl
  00450	8b 4d 08	 mov	 ecx, DWORD PTR tv1948[ebp]
  00453	eb 06		 jmp	 SHORT $LN66@send_tree
$LN30@send_tree:
  00455	03 55 f4	 add	 edx, DWORD PTR _len$1$[ebp]
  00458	8b 45 fc	 mov	 eax, DWORD PTR _s$1$[ebp]
$LN66@send_tree:
  0045b	89 75 08	 mov	 DWORD PTR $T6[ebp], esi
  0045e	8b f3		 mov	 esi, ebx
  00460	0f b7 c9	 movzx	 ecx, cx
  00463	89 4d f8	 mov	 DWORD PTR $T5[ebp], ecx
  00466	89 55 f4	 mov	 DWORD PTR $T1[ebp], edx
  00469	66 89 0e	 mov	 WORD PTR [esi], cx
  0046c	8b 4d 08	 mov	 ecx, DWORD PTR $T6[ebp]
  0046f	8b 75 e4	 mov	 esi, DWORD PTR tv2073[ebp]
  00472	89 11		 mov	 DWORD PTR [ecx], edx
  00474	8d 4f f5	 lea	 ecx, DWORD PTR [edi-11]
  00477	0f b7 f9	 movzx	 edi, cx
  0047a	8b 4d f4	 mov	 ecx, DWORD PTR $T1[ebp]
  0047d	66 8b d7	 mov	 dx, di
  00480	66 d3 e2	 shl	 dx, cl
  00483	66 0b 55 f8	 or	 dx, WORD PTR $T5[ebp]
  00487	0f b7 d2	 movzx	 edx, dx
  0048a	89 55 08	 mov	 DWORD PTR tv1988[ebp], edx
  0048d	66 89 13	 mov	 WORD PTR [ebx], dx
  00490	83 f9 09	 cmp	 ecx, 9
  00493	7e 38		 jle	 SHORT $LN32@send_tree
  00495	8b 48 14	 mov	 ecx, DWORD PTR [eax+20]
  00498	8b 50 08	 mov	 edx, DWORD PTR [eax+8]
  0049b	8b 45 08	 mov	 eax, DWORD PTR tv1988[ebp]
  0049e	88 04 0a	 mov	 BYTE PTR [edx+ecx], al
  004a1	8b 45 fc	 mov	 eax, DWORD PTR _s$1$[ebp]
  004a4	8a 4b 01	 mov	 cl, BYTE PTR [ebx+1]
  004a7	ff 40 14	 inc	 DWORD PTR [eax+20]
  004aa	8b 70 14	 mov	 esi, DWORD PTR [eax+20]
  004ad	8b 50 08	 mov	 edx, DWORD PTR [eax+8]
  004b0	88 0c 16	 mov	 BYTE PTR [esi+edx], cl
  004b3	b1 10		 mov	 cl, 16			; 00000010H
  004b5	2a 88 bc 16 00
	00		 sub	 cl, BYTE PTR [eax+5820]
  004bb	ff 40 14	 inc	 DWORD PTR [eax+20]
  004be	66 d3 ef	 shr	 di, cl
  004c1	83 80 bc 16 00
	00 f7		 add	 DWORD PTR [eax+5820], -9 ; fffffff7H
  004c8	66 89 3b	 mov	 WORD PTR [ebx], di
  004cb	eb 05		 jmp	 SHORT $LN33@send_tree
$LN32@send_tree:
  004cd	83 c1 07	 add	 ecx, 7
  004d0	89 0e		 mov	 DWORD PTR [esi], ecx
$LN33@send_tree:

; 782  :         }
; 783  :         count = 0; prevlen = curlen;
; 784  :         if (nextlen == 0) {

  004d2	8b 5d d8	 mov	 ebx, DWORD PTR _nextlen$1$[ebp]
  004d5	33 ff		 xor	 edi, edi
  004d7	8b 75 f0	 mov	 esi, DWORD PTR _curlen$1$[ebp]
  004da	85 db		 test	 ebx, ebx
  004dc	75 0a		 jne	 SHORT $LN34@send_tree

; 785  :             max_count = 138, min_count = 3;

  004de	ba 8a 00 00 00	 mov	 edx, 138		; 0000008aH
  004e3	8d 4f 03	 lea	 ecx, DWORD PTR [edi+3]
  004e6	eb 17		 jmp	 SHORT $LN2@send_tree
$LN34@send_tree:

; 786  :         } else if (curlen == nextlen) {

  004e8	39 5d ec	 cmp	 DWORD PTR tv2040[ebp], ebx
  004eb	75 0a		 jne	 SHORT $LN36@send_tree

; 787  :             max_count = 6, min_count = 3;

  004ed	ba 06 00 00 00	 mov	 edx, 6
  004f2	8d 4a fd	 lea	 ecx, DWORD PTR [edx-3]

; 788  :         } else {

  004f5	eb 08		 jmp	 SHORT $LN2@send_tree
$LN36@send_tree:

; 789  :             max_count = 7, min_count = 4;

  004f7	ba 07 00 00 00	 mov	 edx, 7
  004fc	8d 4a fd	 lea	 ecx, DWORD PTR [edx-3]
$LN2@send_tree:

; 757  :     int max_count = 7;         /* max repeat count */
; 758  :     int min_count = 4;         /* min repeat count */
; 759  : 
; 760  :     /* tree[max_code + 1].Len = -1; */  /* guard already set */
; 761  :     if (nextlen == 0) max_count = 138, min_count = 3;
; 762  : 
; 763  :     for (n = 0; n <= max_code; n++) {

  004ff	83 45 e8 04	 add	 DWORD PTR tv1991[ebp], 4
  00503	83 6d e0 01	 sub	 DWORD PTR tv2046[ebp], 1
  00507	0f 85 43 fb ff
	ff		 jne	 $LL4@send_tree
$LN3@send_tree:
  0050d	5f		 pop	 edi

; 790  :         }
; 791  :     }
; 792  : }

  0050e	5e		 pop	 esi
  0050f	5b		 pop	 ebx
  00510	8b e5		 mov	 esp, ebp
  00512	5d		 pop	 ebp
  00513	c3		 ret	 0
_send_tree ENDP
_TEXT	ENDS
; Function compile flags: /Ogtp
; File C:\Users\Pichau\Documents\Boldergarte\Softwares\LIBRARIES\downloads\zlib\zlib-develop\zlib-develop\trees.c
;	COMDAT _build_bl_tree
_TEXT	SEGMENT
_build_bl_tree PROC					; COMDAT
; _s$ = ecx

; 798  : local int build_bl_tree(deflate_state *s) {

  00000	56		 push	 esi
  00001	8b f1		 mov	 esi, ecx

; 799  :     int max_blindex;  /* index of last bit length code of non zero freq */
; 800  : 
; 801  :     /* Determine the bit length frequencies for literal and distance trees */
; 802  :     scan_tree(s, (ct_data *)s->dyn_ltree, s->l_desc.max_code);

  00003	ff b6 1c 0b 00
	00		 push	 DWORD PTR [esi+2844]
  00009	8d 96 94 00 00
	00		 lea	 edx, DWORD PTR [esi+148]
  0000f	e8 00 00 00 00	 call	 _scan_tree

; 803  :     scan_tree(s, (ct_data *)s->dyn_dtree, s->d_desc.max_code);

  00014	ff b6 28 0b 00
	00		 push	 DWORD PTR [esi+2856]
  0001a	8d 96 88 09 00
	00		 lea	 edx, DWORD PTR [esi+2440]
  00020	e8 00 00 00 00	 call	 _scan_tree
  00025	83 c4 08	 add	 esp, 8

; 804  : 
; 805  :     /* Build the bit length tree: */
; 806  :     build_tree(s, (tree_desc *)(&(s->bl_desc)));

  00028	8d 96 30 0b 00
	00		 lea	 edx, DWORD PTR [esi+2864]
  0002e	e8 00 00 00 00	 call	 _build_tree

; 807  :     /* opt_len now includes the length of the tree representations, except the
; 808  :      * lengths of the bit lengths codes and the 5 + 5 + 4 bits for the counts.
; 809  :      */
; 810  : 
; 811  :     /* Determine the number of bit length codes to send. The pkzip format
; 812  :      * requires that at least 4 bit length codes be sent. (appnote.txt says
; 813  :      * 3 but the actual value used is 4.)
; 814  :      */
; 815  :     for (max_blindex = BL_CODES-1; max_blindex >= 3; max_blindex--) {

  00033	ba 12 00 00 00	 mov	 edx, 18			; 00000012H
  00038	b8 10 00 00 00	 mov	 eax, OFFSET _bl_order+16
  0003d	0f 1f 00	 npad	 3
$LL4@build_bl_t:

; 816  :         if (s->bl_tree[bl_order[max_blindex]].Len != 0) break;

  00040	0f b6 48 02	 movzx	 ecx, BYTE PTR [eax+2]
  00044	66 83 bc 8e 7e
	0a 00 00 00	 cmp	 WORD PTR [esi+ecx*4+2686], 0
  0004d	75 79		 jne	 SHORT $LN8@build_bl_t
  0004f	0f b6 48 01	 movzx	 ecx, BYTE PTR [eax+1]
  00053	66 83 bc 8e 7e
	0a 00 00 00	 cmp	 WORD PTR [esi+ecx*4+2686], 0
  0005c	75 69		 jne	 SHORT $LN11@build_bl_t
  0005e	0f b6 08	 movzx	 ecx, BYTE PTR [eax]
  00061	66 83 bc 8e 7e
	0a 00 00 00	 cmp	 WORD PTR [esi+ecx*4+2686], 0
  0006a	75 45		 jne	 SHORT $LN12@build_bl_t
  0006c	0f b6 48 ff	 movzx	 ecx, BYTE PTR [eax-1]
  00070	66 83 bc 8e 7e
	0a 00 00 00	 cmp	 WORD PTR [esi+ecx*4+2686], 0
  00079	75 20		 jne	 SHORT $LN13@build_bl_t

; 807  :     /* opt_len now includes the length of the tree representations, except the
; 808  :      * lengths of the bit lengths codes and the 5 + 5 + 4 bits for the counts.
; 809  :      */
; 810  : 
; 811  :     /* Determine the number of bit length codes to send. The pkzip format
; 812  :      * requires that at least 4 bit length codes be sent. (appnote.txt says
; 813  :      * 3 but the actual value used is 4.)
; 814  :      */
; 815  :     for (max_blindex = BL_CODES-1; max_blindex >= 3; max_blindex--) {

  0007b	83 e8 04	 sub	 eax, 4
  0007e	83 ea 04	 sub	 edx, 4
  00081	3d 01 00 00 00	 cmp	 eax, OFFSET _bl_order+1
  00086	7d b8		 jge	 SHORT $LL4@build_bl_t

; 817  :     }
; 818  :     /* Update opt_len to include the bit length tree and counts */
; 819  :     s->opt_len += 3*((ulg)max_blindex + 1) + 5 + 5 + 4;

  00088	8d 0c 55 11 00
	00 00		 lea	 ecx, DWORD PTR [edx*2+17]

; 820  :     Tracev((stderr, "\ndyn trees: dyn %ld, stat %ld",
; 821  :             s->opt_len, s->static_len));
; 822  : 
; 823  :     return max_blindex;

  0008f	8b c2		 mov	 eax, edx
  00091	03 ca		 add	 ecx, edx
  00093	01 8e a8 16 00
	00		 add	 DWORD PTR [esi+5800], ecx
  00099	5e		 pop	 esi

; 824  : }

  0009a	c3		 ret	 0
$LN13@build_bl_t:

; 816  :         if (s->bl_tree[bl_order[max_blindex]].Len != 0) break;

  0009b	83 ea 03	 sub	 edx, 3

; 820  :     Tracev((stderr, "\ndyn trees: dyn %ld, stat %ld",
; 821  :             s->opt_len, s->static_len));
; 822  : 
; 823  :     return max_blindex;

  0009e	8b c2		 mov	 eax, edx
  000a0	8d 0c 55 11 00
	00 00		 lea	 ecx, DWORD PTR [edx*2+17]
  000a7	03 ca		 add	 ecx, edx
  000a9	01 8e a8 16 00
	00		 add	 DWORD PTR [esi+5800], ecx
  000af	5e		 pop	 esi

; 824  : }

  000b0	c3		 ret	 0
$LN12@build_bl_t:

; 816  :         if (s->bl_tree[bl_order[max_blindex]].Len != 0) break;

  000b1	83 ea 02	 sub	 edx, 2

; 820  :     Tracev((stderr, "\ndyn trees: dyn %ld, stat %ld",
; 821  :             s->opt_len, s->static_len));
; 822  : 
; 823  :     return max_blindex;

  000b4	8b c2		 mov	 eax, edx
  000b6	8d 0c 55 11 00
	00 00		 lea	 ecx, DWORD PTR [edx*2+17]
  000bd	03 ca		 add	 ecx, edx
  000bf	01 8e a8 16 00
	00		 add	 DWORD PTR [esi+5800], ecx
  000c5	5e		 pop	 esi

; 824  : }

  000c6	c3		 ret	 0
$LN11@build_bl_t:

; 816  :         if (s->bl_tree[bl_order[max_blindex]].Len != 0) break;

  000c7	4a		 dec	 edx
$LN8@build_bl_t:

; 817  :     }
; 818  :     /* Update opt_len to include the bit length tree and counts */
; 819  :     s->opt_len += 3*((ulg)max_blindex + 1) + 5 + 5 + 4;

  000c8	8d 0c 55 11 00
	00 00		 lea	 ecx, DWORD PTR [edx*2+17]

; 820  :     Tracev((stderr, "\ndyn trees: dyn %ld, stat %ld",
; 821  :             s->opt_len, s->static_len));
; 822  : 
; 823  :     return max_blindex;

  000cf	8b c2		 mov	 eax, edx
  000d1	03 ca		 add	 ecx, edx
  000d3	01 8e a8 16 00
	00		 add	 DWORD PTR [esi+5800], ecx
  000d9	5e		 pop	 esi

; 824  : }

  000da	c3		 ret	 0
_build_bl_tree ENDP
_TEXT	ENDS
; Function compile flags: /Ogtp
; File C:\Users\Pichau\Documents\Boldergarte\Softwares\LIBRARIES\downloads\zlib\zlib-develop\zlib-develop\trees.c
;	COMDAT _send_all_trees
_TEXT	SEGMENT
tv1039 = -24						; size = 4
tv985 = -24						; size = 4
_lcodes$1$ = -20					; size = 4
tv1036 = -16						; size = 4
tv1004 = -16						; size = 4
$T1 = -16						; size = 4
$T2 = -12						; size = 4
$T3 = -8						; size = 4
_rank$1$ = -8						; size = 4
$T4 = -8						; size = 4
$T5 = -4						; size = 4
_dcodes$ = 8						; size = 4
_blcodes$ = 12						; size = 4
_send_all_trees PROC					; COMDAT
; _s$ = ecx
; _lcodes$ = edx

; 832  :                           int blcodes) {

  00000	55		 push	 ebp
  00001	8b ec		 mov	 ebp, esp
  00003	83 ec 18	 sub	 esp, 24			; 00000018H
  00006	53		 push	 ebx
  00007	56		 push	 esi
  00008	8b f1		 mov	 esi, ecx
  0000a	89 55 ec	 mov	 DWORD PTR _lcodes$1$[ebp], edx
  0000d	57		 push	 edi

; 833  :     int rank;                    /* index in bl_order */
; 834  : 
; 835  :     Assert (lcodes >= 257 && dcodes >= 1 && blcodes >= 4, "not enough codes");
; 836  :     Assert (lcodes <= L_CODES && dcodes <= D_CODES && blcodes <= BL_CODES,
; 837  :             "too many codes");
; 838  :     Tracev((stderr, "\nbl counts: "));
; 839  :     send_bits(s, lcodes - 257, 5);  /* not +255 as stated in appnote.txt */

  0000e	8b 8e bc 16 00
	00		 mov	 ecx, DWORD PTR [esi+5820]
  00014	8d 5e 14	 lea	 ebx, DWORD PTR [esi+20]
  00017	0f b7 86 b8 16
	00 00		 movzx	 eax, WORD PTR [esi+5816]
  0001e	8d 7e 08	 lea	 edi, DWORD PTR [esi+8]
  00021	89 5d f4	 mov	 DWORD PTR $T2[ebp], ebx
  00024	89 7d fc	 mov	 DWORD PTR $T5[ebp], edi
  00027	83 f9 0b	 cmp	 ecx, 11			; 0000000bH
  0002a	7e 53		 jle	 SHORT $LN5@send_all_t
  0002c	8d ba ff fe ff
	ff		 lea	 edi, DWORD PTR [edx-257]
  00032	66 8b d7	 mov	 dx, di
  00035	66 d3 e2	 shl	 dx, cl
  00038	8b 0b		 mov	 ecx, DWORD PTR [ebx]
  0003a	66 0b d0	 or	 dx, ax
  0003d	8b 46 08	 mov	 eax, DWORD PTR [esi+8]
  00040	66 89 96 b8 16
	00 00		 mov	 WORD PTR [esi+5816], dx
  00047	88 14 01	 mov	 BYTE PTR [ecx+eax], dl
  0004a	ff 03		 inc	 DWORD PTR [ebx]
  0004c	8b 13		 mov	 edx, DWORD PTR [ebx]
  0004e	8b 4e 08	 mov	 ecx, DWORD PTR [esi+8]
  00051	8a 86 b9 16 00
	00		 mov	 al, BYTE PTR [esi+5817]
  00057	88 04 0a	 mov	 BYTE PTR [edx+ecx], al
  0005a	b1 10		 mov	 cl, 16			; 00000010H
  0005c	0f b7 86 bc 16
	00 00		 movzx	 eax, WORD PTR [esi+5820]
  00063	83 86 bc 16 00
	00 f5		 add	 DWORD PTR [esi+5820], -11 ; fffffff5H
  0006a	2a c8		 sub	 cl, al
  0006c	ff 03		 inc	 DWORD PTR [ebx]
  0006e	8b 96 bc 16 00
	00		 mov	 edx, DWORD PTR [esi+5820]
  00074	66 d3 ef	 shr	 di, cl
  00077	0f b7 c7	 movzx	 eax, di
  0007a	8d 7e 08	 lea	 edi, DWORD PTR [esi+8]
  0007d	eb 27		 jmp	 SHORT $LN23@send_all_t
$LN5@send_all_t:
  0007f	8b 45 ec	 mov	 eax, DWORD PTR _lcodes$1$[ebp]
  00082	8d 51 05	 lea	 edx, DWORD PTR [ecx+5]
  00085	05 ff fe ff ff	 add	 eax, -257		; fffffeffH
  0008a	89 96 bc 16 00
	00		 mov	 DWORD PTR [esi+5820], edx
  00090	66 d3 e0	 shl	 ax, cl
  00093	0f b7 8e b8 16
	00 00		 movzx	 ecx, WORD PTR [esi+5816]
  0009a	66 0b c1	 or	 ax, cx
  0009d	89 5d f4	 mov	 DWORD PTR $T2[ebp], ebx
  000a0	0f b7 c0	 movzx	 eax, ax
  000a3	89 7d fc	 mov	 DWORD PTR $T5[ebp], edi
$LN23@send_all_t:

; 840  :     send_bits(s, dcodes - 1,   5);

  000a6	89 45 f8	 mov	 DWORD PTR $T4[ebp], eax
  000a9	8b ca		 mov	 ecx, edx
  000ab	8b 45 08	 mov	 eax, DWORD PTR _dcodes$[ebp]
  000ae	48		 dec	 eax
  000af	0f b7 c0	 movzx	 eax, ax
  000b2	89 45 e8	 mov	 DWORD PTR tv985[ebp], eax
  000b5	66 d3 e0	 shl	 ax, cl
  000b8	66 0b 45 f8	 or	 ax, WORD PTR $T4[ebp]
  000bc	0f b7 c0	 movzx	 eax, ax
  000bf	89 45 f0	 mov	 DWORD PTR tv1036[ebp], eax
  000c2	66 89 86 b8 16
	00 00		 mov	 WORD PTR [esi+5816], ax
  000c9	83 fa 0b	 cmp	 edx, 11			; 0000000bH
  000cc	7e 3b		 jle	 SHORT $LN7@send_all_t
  000ce	8b 03		 mov	 eax, DWORD PTR [ebx]
  000d0	8b 0f		 mov	 ecx, DWORD PTR [edi]
  000d2	8b 55 f0	 mov	 edx, DWORD PTR tv1036[ebp]
  000d5	88 14 01	 mov	 BYTE PTR [ecx+eax], dl
  000d8	ff 03		 inc	 DWORD PTR [ebx]
  000da	8b 13		 mov	 edx, DWORD PTR [ebx]
  000dc	8b 0f		 mov	 ecx, DWORD PTR [edi]
  000de	8a 86 b9 16 00
	00		 mov	 al, BYTE PTR [esi+5817]
  000e4	88 04 0a	 mov	 BYTE PTR [edx+ecx], al
  000e7	b1 10		 mov	 cl, 16			; 00000010H
  000e9	0f b7 86 bc 16
	00 00		 movzx	 eax, WORD PTR [esi+5820]
  000f0	83 86 bc 16 00
	00 f5		 add	 DWORD PTR [esi+5820], -11 ; fffffff5H
  000f7	2a c8		 sub	 cl, al
  000f9	8b 45 e8	 mov	 eax, DWORD PTR tv985[ebp]
  000fc	ff 03		 inc	 DWORD PTR [ebx]
  000fe	8b 96 bc 16 00
	00		 mov	 edx, DWORD PTR [esi+5820]
  00104	66 d3 e8	 shr	 ax, cl
  00107	eb 09		 jmp	 SHORT $LN24@send_all_t
$LN7@send_all_t:
  00109	83 c2 05	 add	 edx, 5
  0010c	89 96 bc 16 00
	00		 mov	 DWORD PTR [esi+5820], edx
$LN24@send_all_t:

; 841  :     send_bits(s, blcodes - 4,  4);  /* not -3 as stated in appnote.txt */

  00112	0f b7 c0	 movzx	 eax, ax
  00115	8b ca		 mov	 ecx, edx
  00117	89 45 f8	 mov	 DWORD PTR $T3[ebp], eax
  0011a	8b 45 0c	 mov	 eax, DWORD PTR _blcodes$[ebp]
  0011d	83 c0 fc	 add	 eax, -4			; fffffffcH
  00120	0f b7 c0	 movzx	 eax, ax
  00123	89 45 f0	 mov	 DWORD PTR tv1004[ebp], eax
  00126	66 d3 e0	 shl	 ax, cl
  00129	66 0b 45 f8	 or	 ax, WORD PTR $T3[ebp]
  0012d	0f b7 c0	 movzx	 eax, ax
  00130	89 45 e8	 mov	 DWORD PTR tv1039[ebp], eax
  00133	83 fa 0c	 cmp	 edx, 12			; 0000000cH
  00136	7e 42		 jle	 SHORT $LN9@send_all_t
  00138	8b 0b		 mov	 ecx, DWORD PTR [ebx]
  0013a	8b 55 e8	 mov	 edx, DWORD PTR tv1039[ebp]
  0013d	66 89 86 b8 16
	00 00		 mov	 WORD PTR [esi+5816], ax
  00144	8b 07		 mov	 eax, DWORD PTR [edi]
  00146	88 14 01	 mov	 BYTE PTR [ecx+eax], dl
  00149	ff 03		 inc	 DWORD PTR [ebx]
  0014b	8b 13		 mov	 edx, DWORD PTR [ebx]
  0014d	8b 0f		 mov	 ecx, DWORD PTR [edi]
  0014f	8a 86 b9 16 00
	00		 mov	 al, BYTE PTR [esi+5817]
  00155	88 04 0a	 mov	 BYTE PTR [edx+ecx], al
  00158	b1 10		 mov	 cl, 16			; 00000010H
  0015a	0f b7 86 bc 16
	00 00		 movzx	 eax, WORD PTR [esi+5820]
  00161	ff 03		 inc	 DWORD PTR [ebx]
  00163	2a c8		 sub	 cl, al
  00165	83 86 bc 16 00
	00 f4		 add	 DWORD PTR [esi+5820], -12 ; fffffff4H
  0016c	8b 45 f0	 mov	 eax, DWORD PTR tv1004[ebp]
  0016f	8b 9e bc 16 00
	00		 mov	 ebx, DWORD PTR [esi+5820]
  00175	66 d3 e8	 shr	 ax, cl
  00178	eb 09		 jmp	 SHORT $LN25@send_all_t
$LN9@send_all_t:
  0017a	8d 5a 04	 lea	 ebx, DWORD PTR [edx+4]
  0017d	89 9e bc 16 00
	00		 mov	 DWORD PTR [esi+5820], ebx
$LN25@send_all_t:

; 842  :     for (rank = 0; rank < blcodes; rank++) {

  00183	0f b7 c8	 movzx	 ecx, ax
  00186	33 c0		 xor	 eax, eax
  00188	66 89 8e b8 16
	00 00		 mov	 WORD PTR [esi+5816], cx
  0018f	89 45 f8	 mov	 DWORD PTR _rank$1$[ebp], eax
  00192	39 45 0c	 cmp	 DWORD PTR _blcodes$[ebp], eax
  00195	0f 8e a9 00 00
	00		 jle	 $LN3@send_all_t
  0019b	0f b7 f9	 movzx	 edi, cx
  0019e	89 7d f0	 mov	 DWORD PTR $T1[ebp], edi
$LL4@send_all_t:

; 843  :         Tracev((stderr, "\nbl code %2d ", bl_order[rank]));
; 844  :         send_bits(s, s->bl_tree[bl_order[rank]].Len, 3);

  001a1	8a 80 00 00 00
	00		 mov	 al, BYTE PTR _bl_order[eax]
  001a7	8b cb		 mov	 ecx, ebx
  001a9	0f b6 c0	 movzx	 eax, al
  001ac	83 fb 0d	 cmp	 ebx, 13			; 0000000dH
  001af	7e 5a		 jle	 SHORT $LN11@send_all_t
  001b1	0f b7 bc 86 7e
	0a 00 00	 movzx	 edi, WORD PTR [esi+eax*4+2686]
  001b9	8b 5d f4	 mov	 ebx, DWORD PTR $T2[ebp]
  001bc	66 8b d7	 mov	 dx, di
  001bf	8b 45 fc	 mov	 eax, DWORD PTR $T5[ebp]
  001c2	66 d3 e2	 shl	 dx, cl
  001c5	66 0b 55 f0	 or	 dx, WORD PTR $T1[ebp]
  001c9	8b 0b		 mov	 ecx, DWORD PTR [ebx]
  001cb	8b 00		 mov	 eax, DWORD PTR [eax]
  001cd	66 89 96 b8 16
	00 00		 mov	 WORD PTR [esi+5816], dx
  001d4	88 14 01	 mov	 BYTE PTR [ecx+eax], dl
  001d7	8b 45 fc	 mov	 eax, DWORD PTR $T5[ebp]
  001da	ff 03		 inc	 DWORD PTR [ebx]
  001dc	8b 13		 mov	 edx, DWORD PTR [ebx]
  001de	8b 08		 mov	 ecx, DWORD PTR [eax]
  001e0	8a 86 b9 16 00
	00		 mov	 al, BYTE PTR [esi+5817]
  001e6	88 04 0a	 mov	 BYTE PTR [edx+ecx], al
  001e9	b1 10		 mov	 cl, 16			; 00000010H
  001eb	0f b7 86 bc 16
	00 00		 movzx	 eax, WORD PTR [esi+5820]
  001f2	83 86 bc 16 00
	00 f3		 add	 DWORD PTR [esi+5820], -13 ; fffffff3H
  001f9	2a c8		 sub	 cl, al
  001fb	ff 03		 inc	 DWORD PTR [ebx]
  001fd	8b 96 bc 16 00
	00		 mov	 edx, DWORD PTR [esi+5820]
  00203	66 d3 ef	 shr	 di, cl
  00206	0f b7 cf	 movzx	 ecx, di
  00209	eb 1a		 jmp	 SHORT $LN2@send_all_t
$LN11@send_all_t:
  0020b	0f b7 84 86 7e
	0a 00 00	 movzx	 eax, WORD PTR [esi+eax*4+2686]
  00213	8d 53 03	 lea	 edx, DWORD PTR [ebx+3]
  00216	66 d3 e0	 shl	 ax, cl
  00219	66 0b c7	 or	 ax, di
  0021c	89 96 bc 16 00
	00		 mov	 DWORD PTR [esi+5820], edx
  00222	0f b7 c8	 movzx	 ecx, ax
$LN2@send_all_t:

; 842  :     for (rank = 0; rank < blcodes; rank++) {

  00225	8b 45 f8	 mov	 eax, DWORD PTR _rank$1$[ebp]
  00228	8b da		 mov	 ebx, edx
  0022a	40		 inc	 eax
  0022b	0f b7 f9	 movzx	 edi, cx
  0022e	66 89 8e b8 16
	00 00		 mov	 WORD PTR [esi+5816], cx
  00235	89 45 f8	 mov	 DWORD PTR _rank$1$[ebp], eax
  00238	89 7d f0	 mov	 DWORD PTR $T1[ebp], edi
  0023b	3b 45 0c	 cmp	 eax, DWORD PTR _blcodes$[ebp]
  0023e	0f 8c 5d ff ff
	ff		 jl	 $LL4@send_all_t
$LN3@send_all_t:

; 845  :     }
; 846  :     Tracev((stderr, "\nbl tree: sent %ld", s->bits_sent));
; 847  : 
; 848  :     send_tree(s, (ct_data *)s->dyn_ltree, lcodes - 1);  /* literal tree */

  00244	8b 45 ec	 mov	 eax, DWORD PTR _lcodes$1$[ebp]
  00247	8d 96 94 00 00
	00		 lea	 edx, DWORD PTR [esi+148]
  0024d	48		 dec	 eax
  0024e	8b ce		 mov	 ecx, esi
  00250	50		 push	 eax
  00251	e8 00 00 00 00	 call	 _send_tree

; 849  :     Tracev((stderr, "\nlit tree: sent %ld", s->bits_sent));
; 850  : 
; 851  :     send_tree(s, (ct_data *)s->dyn_dtree, dcodes - 1);  /* distance tree */

  00256	8b 45 08	 mov	 eax, DWORD PTR _dcodes$[ebp]
  00259	8d 96 88 09 00
	00		 lea	 edx, DWORD PTR [esi+2440]
  0025f	48		 dec	 eax
  00260	8b ce		 mov	 ecx, esi
  00262	50		 push	 eax
  00263	e8 00 00 00 00	 call	 _send_tree
  00268	83 c4 08	 add	 esp, 8
  0026b	5f		 pop	 edi
  0026c	5e		 pop	 esi
  0026d	5b		 pop	 ebx

; 852  :     Tracev((stderr, "\ndist tree: sent %ld", s->bits_sent));
; 853  : }

  0026e	8b e5		 mov	 esp, ebp
  00270	5d		 pop	 ebp
  00271	c3		 ret	 0
_send_all_trees ENDP
_TEXT	ENDS
; Function compile flags: /Ogtp
; File C:\Users\Pichau\Documents\Boldergarte\Softwares\LIBRARIES\downloads\zlib\zlib-develop\zlib-develop\trees.c
;	COMDAT _compress_block
_TEXT	SEGMENT
_s$1$ = -68						; size = 4
tv1765 = -64						; size = 4
tv1682 = -64						; size = 4
tv1748 = -60						; size = 4
tv1753 = -56						; size = 4
_lc$1$ = -52						; size = 4
tv1691 = -52						; size = 4
tv1690 = -52						; size = 4
tv1688 = -52						; size = 4
tv1632 = -52						; size = 4
tv1763 = -48						; size = 4
tv1689 = -48						; size = 4
tv1660 = -48						; size = 4
tv1591 = -48						; size = 4
tv1754 = -44						; size = 4
tv1565 = -44						; size = 4
_len$1$ = -40						; size = 4
_len$1$ = -40						; size = 4
tv1747 = -40						; size = 4
tv1685 = -40						; size = 4
_len$1$ = -36						; size = 4
tv1764 = -36						; size = 4
_extra$2$ = -32						; size = 4
_extra$1$ = -32						; size = 4
tv1726 = -32						; size = 4
tv1693 = -32						; size = 4
_ltree$1$ = -28						; size = 4
$T1 = -24						; size = 4
$T2 = -24						; size = 4
_len$1$ = -24						; size = 4
_sx$1$ = -20						; size = 4
$T3 = -16						; size = 4
$T4 = -16						; size = 4
_dist$1$ = -12						; size = 4
$T5 = -8						; size = 4
$T6 = -4						; size = 4
_dtree$ = 8						; size = 4
_compress_block PROC					; COMDAT
; _s$ = ecx
; _ltree$ = edx

; 899  :                           const ct_data *dtree) {

  00000	55		 push	 ebp
  00001	8b ec		 mov	 ebp, esp
  00003	83 ec 44	 sub	 esp, 68			; 00000044H
  00006	8b c1		 mov	 eax, ecx
  00008	89 55 e4	 mov	 DWORD PTR _ltree$1$[ebp], edx
  0000b	53		 push	 ebx
  0000c	56		 push	 esi

; 900  :     unsigned dist;      /* distance of matched string */
; 901  :     int lc;             /* match length or unmatched char (if dist == 0) */
; 902  :     unsigned sx = 0;    /* running index in symbol buffers */

  0000d	33 c9		 xor	 ecx, ecx
  0000f	89 45 bc	 mov	 DWORD PTR _s$1$[ebp], eax

; 903  :     unsigned code;      /* the code to send */
; 904  :     int extra;          /* number of extra bits to send */
; 905  : 
; 906  :     if (s->sym_next != 0) do {

  00012	8d 58 14	 lea	 ebx, DWORD PTR [eax+20]
  00015	89 4d ec	 mov	 DWORD PTR _sx$1$[ebp], ecx
  00018	8d 70 08	 lea	 esi, DWORD PTR [eax+8]
  0001b	89 5d f8	 mov	 DWORD PTR $T5[ebp], ebx
  0001e	57		 push	 edi
  0001f	8d b8 bc 16 00
	00		 lea	 edi, DWORD PTR [eax+5820]
  00025	89 75 fc	 mov	 DWORD PTR $T6[ebp], esi
  00028	39 88 a0 16 00
	00		 cmp	 DWORD PTR [eax+5792], ecx
  0002e	0f 84 bf 03 00
	00		 je	 $LN29@compress_b
$LL4@compress_b:

; 907  : #ifdef LIT_MEM
; 908  :         dist = s->d_buf[sx];
; 909  :         lc = s->l_buf[sx++];
; 910  : #else
; 911  :         dist = s->sym_buf[sx++] & 0xff;

  00034	8b 90 98 16 00
	00		 mov	 edx, DWORD PTR [eax+5784]
  0003a	89 5d c0	 mov	 DWORD PTR tv1765[ebp], ebx
  0003d	89 75 c4	 mov	 DWORD PTR tv1748[ebp], esi
  00040	89 5d c8	 mov	 DWORD PTR tv1753[ebp], ebx
  00043	0f b6 0c 0a	 movzx	 ecx, BYTE PTR [edx+ecx]
  00047	89 4d f4	 mov	 DWORD PTR _dist$1$[ebp], ecx
  0004a	8b 4d ec	 mov	 ecx, DWORD PTR _sx$1$[ebp]
  0004d	41		 inc	 ecx
  0004e	89 75 d4	 mov	 DWORD PTR tv1754[ebp], esi
  00051	89 4d ec	 mov	 DWORD PTR _sx$1$[ebp], ecx
  00054	89 5d dc	 mov	 DWORD PTR tv1764[ebp], ebx

; 912  :         dist += (unsigned)(s->sym_buf[sx++] & 0xff) << 8;

  00057	0f b6 0c 0a	 movzx	 ecx, BYTE PTR [edx+ecx]
  0005b	c1 e1 08	 shl	 ecx, 8
  0005e	01 4d f4	 add	 DWORD PTR _dist$1$[ebp], ecx
  00061	8b 4d ec	 mov	 ecx, DWORD PTR _sx$1$[ebp]

; 913  :         lc = s->sym_buf[sx++];

  00064	0f b6 54 0a 01	 movzx	 edx, BYTE PTR [edx+ecx+1]
  00069	83 c1 02	 add	 ecx, 2

; 914  : #endif
; 915  :         if (dist == 0) {

  0006c	83 7d f4 00	 cmp	 DWORD PTR _dist$1$[ebp], 0
  00070	89 55 cc	 mov	 DWORD PTR _lc$1$[ebp], edx
  00073	89 4d ec	 mov	 DWORD PTR _sx$1$[ebp], ecx
  00076	0f 85 8a 00 00
	00		 jne	 $LN6@compress_b

; 916  :             send_code(s, lc, ltree); /* send a literal byte */

  0007c	8b 4d e4	 mov	 ecx, DWORD PTR _ltree$1$[ebp]
  0007f	8b 37		 mov	 esi, DWORD PTR [edi]
  00081	0f b7 5c 91 02	 movzx	 ebx, WORD PTR [ecx+edx*4+2]
  00086	0f b7 0c 91	 movzx	 ecx, WORD PTR [ecx+edx*4]
  0008a	66 8b d1	 mov	 dx, cx
  0008d	89 4d d4	 mov	 DWORD PTR tv1565[ebp], ecx
  00090	8b ce		 mov	 ecx, esi
  00092	89 5d d8	 mov	 DWORD PTR _len$1$[ebp], ebx
  00095	66 d3 e2	 shl	 dx, cl
  00098	b9 10 00 00 00	 mov	 ecx, 16			; 00000010H
  0009d	0f b7 d2	 movzx	 edx, dx
  000a0	2b cb		 sub	 ecx, ebx
  000a2	66 09 90 b8 16
	00 00		 or	 WORD PTR [eax+5816], dx
  000a9	3b f1		 cmp	 esi, ecx
  000ab	7e 4b		 jle	 SHORT $LN8@compress_b
  000ad	8b 50 14	 mov	 edx, DWORD PTR [eax+20]
  000b0	8b 48 08	 mov	 ecx, DWORD PTR [eax+8]
  000b3	66 8b 98 b8 16
	00 00		 mov	 bx, WORD PTR [eax+5816]
  000ba	88 1c 0a	 mov	 BYTE PTR [edx+ecx], bl

; 917  :             Tracecv(isgraph(lc), (stderr," '%c' ", lc));
; 918  :         } else {

  000bd	8d 58 14	 lea	 ebx, DWORD PTR [eax+20]
  000c0	ff 40 14	 inc	 DWORD PTR [eax+20]
  000c3	8b 70 14	 mov	 esi, DWORD PTR [eax+20]
  000c6	8b 50 08	 mov	 edx, DWORD PTR [eax+8]
  000c9	8a 88 b9 16 00
	00		 mov	 cl, BYTE PTR [eax+5817]
  000cf	88 0c 16	 mov	 BYTE PTR [esi+edx], cl
  000d2	b1 10		 mov	 cl, 16			; 00000010H
  000d4	2a 0f		 sub	 cl, BYTE PTR [edi]
  000d6	8d 70 08	 lea	 esi, DWORD PTR [eax+8]
  000d9	8b 55 d4	 mov	 edx, DWORD PTR tv1565[ebp]
  000dc	ff 40 14	 inc	 DWORD PTR [eax+20]
  000df	66 d3 ea	 shr	 dx, cl
  000e2	8b 0f		 mov	 ecx, DWORD PTR [edi]
  000e4	66 89 90 b8 16
	00 00		 mov	 WORD PTR [eax+5816], dx
  000eb	8b 55 d8	 mov	 edx, DWORD PTR _len$1$[ebp]
  000ee	83 c2 f0	 add	 edx, -16		; fffffff0H
  000f1	03 ca		 add	 ecx, edx
  000f3	e9 df 02 00 00	 jmp	 $LN43@compress_b
$LN8@compress_b:

; 916  :             send_code(s, lc, ltree); /* send a literal byte */

  000f8	8d 0c 1e	 lea	 ecx, DWORD PTR [esi+ebx]

; 917  :             Tracecv(isgraph(lc), (stderr," '%c' ", lc));
; 918  :         } else {

  000fb	8d 58 14	 lea	 ebx, DWORD PTR [eax+20]
  000fe	8d 70 08	 lea	 esi, DWORD PTR [eax+8]
  00101	e9 d1 02 00 00	 jmp	 $LN43@compress_b
$LN6@compress_b:

; 919  :             /* Here, lc is the match length - MIN_MATCH */
; 920  :             code = _length_code[lc];

  00106	0f b6 8a 00 00
	00 00		 movzx	 ecx, BYTE PTR __length_code[edx]

; 921  :             send_code(s, code + LITERALS + 1, ltree);   /* send length code */

  0010d	8b 5d e4	 mov	 ebx, DWORD PTR _ltree$1$[ebp]
  00110	8d 14 8d 00 00
	00 00		 lea	 edx, DWORD PTR [ecx*4]
  00117	89 55 d8	 mov	 DWORD PTR tv1747[ebp], edx
  0011a	0f b7 94 1a 06
	04 00 00	 movzx	 edx, WORD PTR [edx+ebx+1030]
  00122	89 55 e8	 mov	 DWORD PTR _len$1$[ebp], edx
  00125	8b d3		 mov	 edx, ebx
  00127	8b 5d f8	 mov	 ebx, DWORD PTR $T5[ebp]
  0012a	0f b7 8c 8a 04
	04 00 00	 movzx	 ecx, WORD PTR [edx+ecx*4+1028]
  00132	66 8b d1	 mov	 dx, cx
  00135	89 4d d0	 mov	 DWORD PTR tv1591[ebp], ecx
  00138	8b 0f		 mov	 ecx, DWORD PTR [edi]
  0013a	66 d3 e2	 shl	 dx, cl
  0013d	66 0b 90 b8 16
	00 00		 or	 dx, WORD PTR [eax+5816]
  00144	0f b7 ca	 movzx	 ecx, dx
  00147	8b 17		 mov	 edx, DWORD PTR [edi]
  00149	89 4d e0	 mov	 DWORD PTR tv1726[ebp], ecx
  0014c	b9 10 00 00 00	 mov	 ecx, 16			; 00000010H
  00151	2b 4d e8	 sub	 ecx, DWORD PTR _len$1$[ebp]
  00154	3b d1		 cmp	 edx, ecx
  00156	7e 45		 jle	 SHORT $LN10@compress_b
  00158	8b 4d e0	 mov	 ecx, DWORD PTR tv1726[ebp]
  0015b	8b 16		 mov	 edx, DWORD PTR [esi]
  0015d	66 89 88 b8 16
	00 00		 mov	 WORD PTR [eax+5816], cx
  00164	8b 0b		 mov	 ecx, DWORD PTR [ebx]
  00166	8b 5d e0	 mov	 ebx, DWORD PTR tv1726[ebp]
  00169	88 1c 0a	 mov	 BYTE PTR [edx+ecx], bl
  0016c	8b 5d f8	 mov	 ebx, DWORD PTR $T5[ebp]
  0016f	8b 55 fc	 mov	 edx, DWORD PTR $T6[ebp]
  00172	8a 88 b9 16 00
	00		 mov	 cl, BYTE PTR [eax+5817]
  00178	ff 03		 inc	 DWORD PTR [ebx]
  0017a	8b 12		 mov	 edx, DWORD PTR [edx]
  0017c	8b 33		 mov	 esi, DWORD PTR [ebx]
  0017e	88 0c 16	 mov	 BYTE PTR [esi+edx], cl
  00181	b1 10		 mov	 cl, 16			; 00000010H
  00183	8b 55 e8	 mov	 edx, DWORD PTR _len$1$[ebp]
  00186	2a 0f		 sub	 cl, BYTE PTR [edi]
  00188	83 c2 f0	 add	 edx, -16		; fffffff0H
  0018b	03 17		 add	 edx, DWORD PTR [edi]
  0018d	ff 03		 inc	 DWORD PTR [ebx]
  0018f	89 55 f0	 mov	 DWORD PTR $T3[ebp], edx
  00192	8b 55 d0	 mov	 edx, DWORD PTR tv1591[ebp]
  00195	66 d3 ea	 shr	 dx, cl
  00198	8b 4d f0	 mov	 ecx, DWORD PTR $T3[ebp]
  0019b	eb 0b		 jmp	 SHORT $LN44@compress_b
$LN10@compress_b:
  0019d	8b 4d e8	 mov	 ecx, DWORD PTR _len$1$[ebp]
  001a0	03 ca		 add	 ecx, edx
  001a2	8b 55 e0	 mov	 edx, DWORD PTR tv1726[ebp]
  001a5	89 4d f0	 mov	 DWORD PTR $T3[ebp], ecx
$LN44@compress_b:

; 922  :             extra = extra_lbits[code];

  001a8	0f b7 d2	 movzx	 edx, dx
  001ab	89 55 e8	 mov	 DWORD PTR $T1[ebp], edx
  001ae	8b 5d e8	 mov	 ebx, DWORD PTR $T1[ebp]
  001b1	66 89 90 b8 16
	00 00		 mov	 WORD PTR [eax+5816], dx
  001b8	0f b7 d2	 movzx	 edx, dx
  001bb	89 55 d0	 mov	 DWORD PTR tv1689[ebp], edx
  001be	8b 55 d8	 mov	 edx, DWORD PTR tv1747[ebp]
  001c1	0f b7 db	 movzx	 ebx, bx
  001c4	89 0f		 mov	 DWORD PTR [edi], ecx
  001c6	89 5d e8	 mov	 DWORD PTR $T2[ebp], ebx
  001c9	8b 92 00 00 00
	00		 mov	 edx, DWORD PTR _extra_lbits[edx]

; 923  :             if (extra != 0) {

  001cf	8b 5d f8	 mov	 ebx, DWORD PTR $T5[ebp]
  001d2	89 55 e0	 mov	 DWORD PTR _extra$1$[ebp], edx
  001d5	85 d2		 test	 edx, edx
  001d7	0f 84 8d 00 00
	00		 je	 $LN30@compress_b

; 924  :                 lc -= base_length[code];

  001dd	8b 75 d8	 mov	 esi, DWORD PTR tv1747[ebp]
  001e0	8b 55 cc	 mov	 edx, DWORD PTR _lc$1$[ebp]
  001e3	2b 96 00 00 00
	00		 sub	 edx, DWORD PTR _base_length[esi]

; 925  :                 send_bits(s, lc, extra);       /* send the extra length bits */

  001e9	8b 75 fc	 mov	 esi, DWORD PTR $T6[ebp]
  001ec	0f b7 d2	 movzx	 edx, dx
  001ef	89 55 cc	 mov	 DWORD PTR tv1688[ebp], edx
  001f2	66 d3 e2	 shl	 dx, cl
  001f5	66 0b 55 d0	 or	 dx, WORD PTR tv1689[ebp]
  001f9	0f b7 ca	 movzx	 ecx, dx
  001fc	89 4d d8	 mov	 DWORD PTR tv1685[ebp], ecx
  001ff	66 89 88 b8 16
	00 00		 mov	 WORD PTR [eax+5816], cx
  00206	b9 10 00 00 00	 mov	 ecx, 16			; 00000010H
  0020b	2b 4d e0	 sub	 ecx, DWORD PTR _extra$1$[ebp]
  0020e	39 4d f0	 cmp	 DWORD PTR $T3[ebp], ecx
  00211	7e 44		 jle	 SHORT $LN13@compress_b
  00213	8b 13		 mov	 edx, DWORD PTR [ebx]
  00215	8b 0e		 mov	 ecx, DWORD PTR [esi]
  00217	8b 5d d8	 mov	 ebx, DWORD PTR tv1685[ebp]
  0021a	88 1c 0a	 mov	 BYTE PTR [edx+ecx], bl
  0021d	8b 5d f8	 mov	 ebx, DWORD PTR $T5[ebp]
  00220	8b 55 fc	 mov	 edx, DWORD PTR $T6[ebp]
  00223	8a 88 b9 16 00
	00		 mov	 cl, BYTE PTR [eax+5817]
  00229	ff 03		 inc	 DWORD PTR [ebx]
  0022b	8b 12		 mov	 edx, DWORD PTR [edx]
  0022d	8b 33		 mov	 esi, DWORD PTR [ebx]
  0022f	88 0c 16	 mov	 BYTE PTR [esi+edx], cl
  00232	b1 10		 mov	 cl, 16			; 00000010H
  00234	2a 0f		 sub	 cl, BYTE PTR [edi]
  00236	8b 55 cc	 mov	 edx, DWORD PTR tv1688[ebp]
  00239	ff 03		 inc	 DWORD PTR [ebx]
  0023b	66 d3 ea	 shr	 dx, cl
  0023e	8b 4d e0	 mov	 ecx, DWORD PTR _extra$1$[ebp]
  00241	66 89 90 b8 16
	00 00		 mov	 WORD PTR [eax+5816], dx
  00248	83 c1 f0	 add	 ecx, -16		; fffffff0H
  0024b	01 0f		 add	 DWORD PTR [edi], ecx
  0024d	8b 37		 mov	 esi, DWORD PTR [edi]
  0024f	0f b7 d2	 movzx	 edx, dx
  00252	89 55 e8	 mov	 DWORD PTR $T2[ebp], edx
  00255	eb 16		 jmp	 SHORT $LN14@compress_b
$LN13@compress_b:
  00257	8b 75 f0	 mov	 esi, DWORD PTR $T3[ebp]
  0025a	8b 4d d8	 mov	 ecx, DWORD PTR tv1685[ebp]
  0025d	03 75 e0	 add	 esi, DWORD PTR _extra$1$[ebp]
  00260	0f b7 c9	 movzx	 ecx, cx
  00263	89 37		 mov	 DWORD PTR [edi], esi
  00265	89 4d e8	 mov	 DWORD PTR $T2[ebp], ecx
  00268	eb 03		 jmp	 SHORT $LN14@compress_b
$LN30@compress_b:

; 923  :             if (extra != 0) {

  0026a	8b 75 f0	 mov	 esi, DWORD PTR $T3[ebp]
$LN14@compress_b:

; 926  :             }
; 927  :             dist--; /* dist is now the match distance - 1 */

  0026d	8b 4d f4	 mov	 ecx, DWORD PTR _dist$1$[ebp]
  00270	49		 dec	 ecx
  00271	89 4d f4	 mov	 DWORD PTR _dist$1$[ebp], ecx

; 928  :             code = d_code(dist);

  00274	81 f9 00 01 00
	00		 cmp	 ecx, 256		; 00000100H
  0027a	73 08		 jae	 SHORT $LN23@compress_b
  0027c	8a 89 00 00 00
	00		 mov	 cl, BYTE PTR __dist_code[ecx]
  00282	eb 09		 jmp	 SHORT $LN24@compress_b
$LN23@compress_b:
  00284	c1 e9 07	 shr	 ecx, 7
  00287	8a 89 00 01 00
	00		 mov	 cl, BYTE PTR __dist_code[ecx+256]
$LN24@compress_b:

; 929  :             Assert (code < D_CODES, "bad d_code");
; 930  : 
; 931  :             send_code(s, code, dtree);       /* send the distance code */

  0028d	8b 5d 08	 mov	 ebx, DWORD PTR _dtree$[ebp]
  00290	0f b6 c9	 movzx	 ecx, cl
  00293	c1 e1 02	 shl	 ecx, 2
  00296	89 4d d0	 mov	 DWORD PTR tv1763[ebp], ecx
  00299	0f b7 54 19 02	 movzx	 edx, WORD PTR [ecx+ebx+2]
  0029e	0f b7 1c 19	 movzx	 ebx, WORD PTR [ecx+ebx]
  002a2	89 55 d8	 mov	 DWORD PTR _len$1$[ebp], edx
  002a5	ba 10 00 00 00	 mov	 edx, 16			; 00000010H
  002aa	8b 4d d8	 mov	 ecx, DWORD PTR _len$1$[ebp]
  002ad	2b d1		 sub	 edx, ecx
  002af	89 5d cc	 mov	 DWORD PTR tv1632[ebp], ebx
  002b2	3b f2		 cmp	 esi, edx
  002b4	7e 56		 jle	 SHORT $LN15@compress_b
  002b6	8b ce		 mov	 ecx, esi
  002b8	66 d3 e3	 shl	 bx, cl
  002bb	8b 4d fc	 mov	 ecx, DWORD PTR $T6[ebp]
  002be	66 0b 5d e8	 or	 bx, WORD PTR $T2[ebp]
  002c2	66 89 98 b8 16
	00 00		 mov	 WORD PTR [eax+5816], bx
  002c9	8b 11		 mov	 edx, DWORD PTR [ecx]
  002cb	8b 4d f8	 mov	 ecx, DWORD PTR $T5[ebp]
  002ce	8b 09		 mov	 ecx, DWORD PTR [ecx]
  002d0	88 1c 0a	 mov	 BYTE PTR [edx+ecx], bl
  002d3	8b 5d f8	 mov	 ebx, DWORD PTR $T5[ebp]
  002d6	8b 4d fc	 mov	 ecx, DWORD PTR $T6[ebp]
  002d9	ff 03		 inc	 DWORD PTR [ebx]
  002db	8b 11		 mov	 edx, DWORD PTR [ecx]
  002dd	8b 33		 mov	 esi, DWORD PTR [ebx]
  002df	8a 88 b9 16 00
	00		 mov	 cl, BYTE PTR [eax+5817]
  002e5	88 0c 16	 mov	 BYTE PTR [esi+edx], cl
  002e8	8b 4d dc	 mov	 ecx, DWORD PTR tv1764[ebp]
  002eb	8b 55 d8	 mov	 edx, DWORD PTR _len$1$[ebp]
  002ee	8b 75 fc	 mov	 esi, DWORD PTR $T6[ebp]
  002f1	83 c2 f0	 add	 edx, -16		; fffffff0H
  002f4	ff 01		 inc	 DWORD PTR [ecx]
  002f6	8b 0f		 mov	 ecx, DWORD PTR [edi]
  002f8	03 ca		 add	 ecx, edx
  002fa	8b 55 cc	 mov	 edx, DWORD PTR tv1632[ebp]
  002fd	89 4d f0	 mov	 DWORD PTR $T4[ebp], ecx
  00300	b1 10		 mov	 cl, 16			; 00000010H
  00302	2a 0f		 sub	 cl, BYTE PTR [edi]
  00304	66 d3 ea	 shr	 dx, cl
  00307	0f b7 d2	 movzx	 edx, dx
  0030a	eb 17		 jmp	 SHORT $LN45@compress_b
$LN15@compress_b:
  0030c	03 ce		 add	 ecx, esi
  0030e	89 4d f0	 mov	 DWORD PTR $T4[ebp], ecx
  00311	8b ce		 mov	 ecx, esi
  00313	66 d3 e3	 shl	 bx, cl
  00316	8d 70 08	 lea	 esi, DWORD PTR [eax+8]
  00319	66 0b 5d e8	 or	 bx, WORD PTR $T2[ebp]
  0031d	0f b7 d3	 movzx	 edx, bx
  00320	8d 58 14	 lea	 ebx, DWORD PTR [eax+20]
$LN45@compress_b:

; 932  :             extra = extra_dbits[code];

  00323	8b 4d f0	 mov	 ecx, DWORD PTR $T4[ebp]
  00326	66 89 90 b8 16
	00 00		 mov	 WORD PTR [eax+5816], dx
  0032d	89 0f		 mov	 DWORD PTR [edi], ecx
  0032f	0f b7 ca	 movzx	 ecx, dx
  00332	8b 55 d0	 mov	 edx, DWORD PTR tv1763[ebp]
  00335	89 4d cc	 mov	 DWORD PTR tv1690[ebp], ecx
  00338	89 75 fc	 mov	 DWORD PTR $T6[ebp], esi
  0033b	89 5d f8	 mov	 DWORD PTR $T5[ebp], ebx
  0033e	8b 8a 00 00 00
	00		 mov	 ecx, DWORD PTR _extra_dbits[edx]
  00344	89 4d e0	 mov	 DWORD PTR _extra$2$[ebp], ecx

; 933  :             if (extra != 0) {

  00347	85 c9		 test	 ecx, ecx
  00349	0f 84 90 00 00
	00		 je	 $LN2@compress_b

; 934  :                 dist -= (unsigned)base_dist[code];

  0034f	8b 4d f4	 mov	 ecx, DWORD PTR _dist$1$[ebp]
  00352	2b 8a 00 00 00
	00		 sub	 ecx, DWORD PTR _base_dist[edx]

; 935  :                 send_bits(s, dist, extra);   /* send the extra distance bits */

  00358	0f b7 c9	 movzx	 ecx, cx
  0035b	66 8b d1	 mov	 dx, cx
  0035e	89 4d d0	 mov	 DWORD PTR tv1660[ebp], ecx
  00361	8b 4d f0	 mov	 ecx, DWORD PTR $T4[ebp]
  00364	66 d3 e2	 shl	 dx, cl
  00367	66 0b 55 cc	 or	 dx, WORD PTR tv1690[ebp]
  0036b	0f b7 ca	 movzx	 ecx, dx
  0036e	8b 55 f0	 mov	 edx, DWORD PTR $T4[ebp]
  00371	89 4d cc	 mov	 DWORD PTR tv1691[ebp], ecx
  00374	66 89 88 b8 16
	00 00		 mov	 WORD PTR [eax+5816], cx
  0037b	b9 10 00 00 00	 mov	 ecx, 16			; 00000010H
  00380	2b 4d e0	 sub	 ecx, DWORD PTR _extra$2$[ebp]
  00383	3b d1		 cmp	 edx, ecx
  00385	7e 4b		 jle	 SHORT $LN18@compress_b
  00387	8b 55 d4	 mov	 edx, DWORD PTR tv1754[ebp]
  0038a	8b 4d dc	 mov	 ecx, DWORD PTR tv1764[ebp]
  0038d	8b 5d cc	 mov	 ebx, DWORD PTR tv1691[ebp]
  00390	8b 12		 mov	 edx, DWORD PTR [edx]
  00392	8b 09		 mov	 ecx, DWORD PTR [ecx]
  00394	88 1c 0a	 mov	 BYTE PTR [edx+ecx], bl
  00397	8b 4d c8	 mov	 ecx, DWORD PTR tv1753[ebp]
  0039a	8b 55 c4	 mov	 edx, DWORD PTR tv1748[ebp]
  0039d	8b 5d dc	 mov	 ebx, DWORD PTR tv1764[ebp]
  003a0	ff 01		 inc	 DWORD PTR [ecx]
  003a2	8b 31		 mov	 esi, DWORD PTR [ecx]
  003a4	8b 12		 mov	 edx, DWORD PTR [edx]
  003a6	8a 88 b9 16 00
	00		 mov	 cl, BYTE PTR [eax+5817]
  003ac	88 0c 16	 mov	 BYTE PTR [esi+edx], cl
  003af	8b 4d c0	 mov	 ecx, DWORD PTR tv1765[ebp]
  003b2	8b 55 d0	 mov	 edx, DWORD PTR tv1660[ebp]
  003b5	8b 75 d4	 mov	 esi, DWORD PTR tv1754[ebp]
  003b8	ff 01		 inc	 DWORD PTR [ecx]
  003ba	b1 10		 mov	 cl, 16			; 00000010H
  003bc	2a 0f		 sub	 cl, BYTE PTR [edi]
  003be	66 d3 ea	 shr	 dx, cl
  003c1	8b 4d e0	 mov	 ecx, DWORD PTR _extra$2$[ebp]
  003c4	83 c1 f0	 add	 ecx, -16		; fffffff0H
  003c7	66 89 90 b8 16
	00 00		 mov	 WORD PTR [eax+5816], dx
  003ce	01 0f		 add	 DWORD PTR [edi], ecx
  003d0	eb 07		 jmp	 SHORT $LN46@compress_b
$LN18@compress_b:
  003d2	8b 4d e0	 mov	 ecx, DWORD PTR _extra$2$[ebp]
  003d5	03 ca		 add	 ecx, edx
$LN43@compress_b:

; 936  :             }
; 937  :         } /* literal or match pair ? */
; 938  : 
; 939  :         /* Check for no overlay of pending_buf on needed symbols */
; 940  : #ifdef LIT_MEM
; 941  :         Assert(s->pending < 2 * (s->lit_bufsize + sx), "pendingBuf overflow");
; 942  : #else
; 943  :         Assert(s->pending < s->lit_bufsize + sx, "pendingBuf overflow");
; 944  : #endif
; 945  : 
; 946  :     } while (sx < s->sym_next);

  003d7	89 0f		 mov	 DWORD PTR [edi], ecx
$LN46@compress_b:
  003d9	89 5d f8	 mov	 DWORD PTR $T5[ebp], ebx
  003dc	89 75 fc	 mov	 DWORD PTR $T6[ebp], esi
$LN2@compress_b:
  003df	8b 4d ec	 mov	 ecx, DWORD PTR _sx$1$[ebp]
  003e2	3b 88 a0 16 00
	00		 cmp	 ecx, DWORD PTR [eax+5792]
  003e8	0f 82 46 fc ff
	ff		 jb	 $LL4@compress_b
  003ee	8b 55 e4	 mov	 edx, DWORD PTR _ltree$1$[ebp]
  003f1	eb 03		 jmp	 SHORT $LN3@compress_b
$LN29@compress_b:
  003f3	89 75 fc	 mov	 DWORD PTR $T6[ebp], esi
$LN3@compress_b:

; 947  : 
; 948  :     send_code(s, END_BLOCK, ltree);

  003f6	0f b7 8a 02 04
	00 00		 movzx	 ecx, WORD PTR [edx+1026]
  003fd	89 4d dc	 mov	 DWORD PTR _len$1$[ebp], ecx
  00400	0f b7 8a 00 04
	00 00		 movzx	 ecx, WORD PTR [edx+1024]
  00407	66 8b d1	 mov	 dx, cx
  0040a	89 4d c0	 mov	 DWORD PTR tv1682[ebp], ecx
  0040d	8b 0f		 mov	 ecx, DWORD PTR [edi]
  0040f	66 d3 e2	 shl	 dx, cl
  00412	66 0b 90 b8 16
	00 00		 or	 dx, WORD PTR [eax+5816]
  00419	0f b7 ca	 movzx	 ecx, dx
  0041c	8b 17		 mov	 edx, DWORD PTR [edi]
  0041e	89 4d e0	 mov	 DWORD PTR tv1693[ebp], ecx
  00421	b9 10 00 00 00	 mov	 ecx, 16			; 00000010H
  00426	2b 4d dc	 sub	 ecx, DWORD PTR _len$1$[ebp]
  00429	3b d1		 cmp	 edx, ecx
  0042b	8b 4d e0	 mov	 ecx, DWORD PTR tv1693[ebp]
  0042e	7e 4d		 jle	 SHORT $LN20@compress_b
  00430	8b 13		 mov	 edx, DWORD PTR [ebx]
  00432	66 89 88 b8 16
	00 00		 mov	 WORD PTR [eax+5816], cx
  00439	8b 0e		 mov	 ecx, DWORD PTR [esi]
  0043b	8b 45 e0	 mov	 eax, DWORD PTR tv1693[ebp]
  0043e	88 04 0a	 mov	 BYTE PTR [edx+ecx], al
  00441	ff 03		 inc	 DWORD PTR [ebx]
  00443	8b 4d fc	 mov	 ecx, DWORD PTR $T6[ebp]
  00446	8b 33		 mov	 esi, DWORD PTR [ebx]
  00448	8b 45 bc	 mov	 eax, DWORD PTR _s$1$[ebp]
  0044b	8b 11		 mov	 edx, DWORD PTR [ecx]
  0044d	8a 88 b9 16 00
	00		 mov	 cl, BYTE PTR [eax+5817]
  00453	88 0c 16	 mov	 BYTE PTR [esi+edx], cl
  00456	b1 10		 mov	 cl, 16			; 00000010H
  00458	2a 0f		 sub	 cl, BYTE PTR [edi]
  0045a	8b 55 dc	 mov	 edx, DWORD PTR _len$1$[ebp]
  0045d	ff 03		 inc	 DWORD PTR [ebx]
  0045f	83 c2 f0	 add	 edx, -16		; fffffff0H
  00462	03 17		 add	 edx, DWORD PTR [edi]
  00464	8b 75 c0	 mov	 esi, DWORD PTR tv1682[ebp]
  00467	66 d3 ee	 shr	 si, cl
  0046a	0f b7 ce	 movzx	 ecx, si

; 949  : }

  0046d	66 89 88 b8 16
	00 00		 mov	 WORD PTR [eax+5816], cx
  00474	89 17		 mov	 DWORD PTR [edi], edx
  00476	5f		 pop	 edi
  00477	5e		 pop	 esi
  00478	5b		 pop	 ebx
  00479	8b e5		 mov	 esp, ebp
  0047b	5d		 pop	 ebp
  0047c	c3		 ret	 0
$LN20@compress_b:

; 947  : 
; 948  :     send_code(s, END_BLOCK, ltree);

  0047d	03 55 dc	 add	 edx, DWORD PTR _len$1$[ebp]
  00480	0f b7 c9	 movzx	 ecx, cx

; 949  : }

  00483	66 89 88 b8 16
	00 00		 mov	 WORD PTR [eax+5816], cx
  0048a	89 17		 mov	 DWORD PTR [edi], edx
  0048c	5f		 pop	 edi
  0048d	5e		 pop	 esi
  0048e	5b		 pop	 ebx
  0048f	8b e5		 mov	 esp, ebp
  00491	5d		 pop	 ebp
  00492	c3		 ret	 0
_compress_block ENDP
_TEXT	ENDS
; Function compile flags: /Ogtp
; File C:\Users\Pichau\Documents\Boldergarte\Softwares\LIBRARIES\downloads\zlib\zlib-develop\zlib-develop\trees.c
;	COMDAT _detect_data_type
_TEXT	SEGMENT
_detect_data_type PROC					; COMDAT
; _s$ = ecx

; 964  : local int detect_data_type(deflate_state *s) {

  00000	56		 push	 esi
  00001	57		 push	 edi
  00002	8b f9		 mov	 edi, ecx

; 965  :     /* block_mask is the bit mask of block-listed bytes
; 966  :      * set bits 0..6, 14..25, and 28..31
; 967  :      * 0xf3ffc07f = binary 11110011111111111100000001111111
; 968  :      */
; 969  :     unsigned long block_mask = 0xf3ffc07fUL;

  00004	b8 7f c0 ff f3	 mov	 eax, -201342849		; f3ffc07fH

; 970  :     int n;
; 971  : 
; 972  :     /* Check for non-textual ("block-listed") bytes. */
; 973  :     for (n = 0; n <= 31; n++, block_mask >>= 1)

  00009	33 f6		 xor	 esi, esi
  0000b	8d 97 94 00 00
	00		 lea	 edx, DWORD PTR [edi+148]
$LL4@detect_dat:

; 974  :         if ((block_mask & 1) && (s->dyn_ltree[n].Freq != 0))

  00011	a8 01		 test	 al, 1
  00013	74 06		 je	 SHORT $LN2@detect_dat
  00015	66 83 3a 00	 cmp	 WORD PTR [edx], 0
  00019	75 47		 jne	 SHORT $LN15@detect_dat
$LN2@detect_dat:

; 970  :     int n;
; 971  : 
; 972  :     /* Check for non-textual ("block-listed") bytes. */
; 973  :     for (n = 0; n <= 31; n++, block_mask >>= 1)

  0001b	46		 inc	 esi
  0001c	d1 e8		 shr	 eax, 1
  0001e	83 c2 04	 add	 edx, 4
  00021	83 fe 1f	 cmp	 esi, 31			; 0000001fH
  00024	7e eb		 jle	 SHORT $LL4@detect_dat

; 975  :             return Z_BINARY;
; 976  : 
; 977  :     /* Check for textual ("allow-listed") bytes. */
; 978  :     if (s->dyn_ltree[9].Freq != 0 || s->dyn_ltree[10].Freq != 0
; 979  :             || s->dyn_ltree[13].Freq != 0)

  00026	66 83 bf b8 00
	00 00 00	 cmp	 WORD PTR [edi+184], 0
  0002e	75 37		 jne	 SHORT $LN10@detect_dat
  00030	66 83 bf bc 00
	00 00 00	 cmp	 WORD PTR [edi+188], 0
  00038	75 2d		 jne	 SHORT $LN10@detect_dat
  0003a	66 83 bf c8 00
	00 00 00	 cmp	 WORD PTR [edi+200], 0
  00042	75 23		 jne	 SHORT $LN10@detect_dat

; 981  :     for (n = 32; n < LITERALS; n++)

  00044	b9 20 00 00 00	 mov	 ecx, 32			; 00000020H
  00049	8d 87 14 01 00
	00		 lea	 eax, DWORD PTR [edi+276]
  0004f	90		 npad	 1
$LL7@detect_dat:

; 982  :         if (s->dyn_ltree[n].Freq != 0)

  00050	66 83 38 00	 cmp	 WORD PTR [eax], 0
  00054	75 11		 jne	 SHORT $LN10@detect_dat

; 981  :     for (n = 32; n < LITERALS; n++)

  00056	41		 inc	 ecx
  00057	83 c0 04	 add	 eax, 4
  0005a	81 f9 00 01 00
	00		 cmp	 ecx, 256		; 00000100H
  00060	7c ee		 jl	 SHORT $LL7@detect_dat
$LN15@detect_dat:
  00062	5f		 pop	 edi

; 983  :             return Z_TEXT;
; 984  : 
; 985  :     /* There are no "block-listed" or "allow-listed" bytes:
; 986  :      * this stream either is empty or has tolerated ("gray-listed") bytes only.
; 987  :      */
; 988  :     return Z_BINARY;
; 989  : }

  00063	33 c0		 xor	 eax, eax
  00065	5e		 pop	 esi
  00066	c3		 ret	 0
$LN10@detect_dat:
  00067	5f		 pop	 edi

; 980  :         return Z_TEXT;

  00068	b8 01 00 00 00	 mov	 eax, 1

; 983  :             return Z_TEXT;
; 984  : 
; 985  :     /* There are no "block-listed" or "allow-listed" bytes:
; 986  :      * this stream either is empty or has tolerated ("gray-listed") bytes only.
; 987  :      */
; 988  :     return Z_BINARY;
; 989  : }

  0006d	5e		 pop	 esi
  0006e	c3		 ret	 0
_detect_data_type ENDP
_TEXT	ENDS
END
