 zlibwapi

 Timestamp is 65bc3376 (Thu Feb  1 21:12:38 2024)

 Preferred load address is 10000000

 Start         Length     Name                   Class
 0001:00000000 0005dffdH .text$mn                CODE
 0001:0005dffd 000001d7H .text$x                 CODE
 0002:00000000 00000154H .idata$5                DATA
 0002:00000154 0000000cH .00cfg                  DATA
 0002:00000160 00000004H .CRT$XCA                DATA
 0002:00000164 00000004H .CRT$XCZ                DATA
 0002:00000168 00000004H .CRT$XIA                DATA
 0002:0000016c 00000010H .CRT$XIC                DATA
 0002:0000017c 00000004H .CRT$XIZ                DATA
 0002:00000180 00000004H .CRT$XPA                DATA
 0002:00000184 00000008H .CRT$XPX                DATA
 0002:0000018c 00000004H .CRT$XPXA               DATA
 0002:00000190 00000004H .CRT$XPZ                DATA
 0002:00000194 00000004H .CRT$XTA                DATA
 0002:00000198 00000008H .CRT$XTZ                DATA
 0002:0000019c 00000000H .gfids$y                DATA
 0002:000001a0 0000c8e0H .rdata                  DATA
 0002:0000ca80 00000040H .rdata$CastGuardVftablesA DATA
 0002:0000cac0 00000040H .rdata$CastGuardVftablesC DATA
 0002:0000cb00 000002a0H .rdata$r                DATA
 0002:0000cda0 000004b4H .rdata$voltmd           DATA
 0002:0000d254 000003b8H .rdata$zzzdbg           DATA
 0002:0000d60c 00000004H .rtc$IAA                DATA
 0002:0000d610 00000004H .rtc$IZZ                DATA
 0002:0000d614 00000004H .rtc$TAA                DATA
 0002:0000d618 00000008H .rtc$TZZ                DATA
 0002:0000d620 00000c30H .xdata$x                DATA
 0002:0000e250 00000d50H .edata                  DATA
 0002:0000efa0 00000014H .idata$2                DATA
 0002:0000efb4 00000014H .idata$3                DATA
 0002:0000efc8 00000154H .idata$4                DATA
 0002:0000f11c 0000062cH .idata$6                DATA
 0003:00000000 00000920H .data                   DATA
 0003:00000920 00000058H .data$r                 DATA
 0003:00000978 000000b8H .data$rs                DATA
 0003:00000a30 000012e0H .bss                    DATA
 0004:00000000 00000060H .rsrc$01                DATA
 0004:00000060 00000338H .rsrc$02                DATA

  Address         Publics by Value              Rva+Base       Lib:Object

 0000:00000000       ___AbsoluteZero            00000000     <absolute>
 0000:00000000       ___arm64x_extra_rfe_table  00000000     <absolute>
 0000:00000000       ___arm64x_extra_rfe_table_size 00000000     <absolute>
 0000:00000000       ___arm64x_native_entrypoint 00000000     <absolute>
 0000:00000000       ___arm64x_redirection_metadata 00000000     <absolute>
 0000:00000000       ___arm64x_redirection_metadata_count 00000000     <absolute>
 0000:00000000       ___dynamic_value_reloc_table 00000000     <absolute>
 0000:00000000       ___enclave_config          00000000     <absolute>
 0000:00000000       ___guard_check_icall_a64n_fptr 00000000     <absolute>
 0000:00000000       ___guard_eh_cont_count     00000000     <absolute>
 0000:00000000       ___guard_eh_cont_table     00000000     <absolute>
 0000:00000000       ___guard_fids_count        00000000     <absolute>
 0000:00000000       ___guard_fids_table        00000000     <absolute>
 0000:00000000       ___guard_iat_count         00000000     <absolute>
 0000:00000000       ___guard_iat_table         00000000     <absolute>
 0000:00000000       ___guard_longjmp_count     00000000     <absolute>
 0000:00000000       ___guard_longjmp_table     00000000     <absolute>
 0000:00000000       ___hybrid_auxiliary_delayload_iat 00000000     <absolute>
 0000:00000000       ___hybrid_auxiliary_delayload_iat_copy 00000000     <absolute>
 0000:00000000       ___hybrid_auxiliary_iat    00000000     <absolute>
 0000:00000000       ___hybrid_auxiliary_iat_copy 00000000     <absolute>
 0000:00000000       ___hybrid_code_map         00000000     <absolute>
 0000:00000000       ___hybrid_code_map_count   00000000     <absolute>
 0000:00000000       ___hybrid_image_info_bitfield 00000000     <absolute>
 0000:00000000       ___safe_se_handler_count   00000000     <absolute>
 0000:00000000       ___safe_se_handler_table   00000000     <absolute>
 0000:00000000       ___x64_code_ranges_to_entry_points 00000000     <absolute>
 0000:00000000       ___x64_code_ranges_to_entry_points_count 00000000     <absolute>
 0000:00000000       __except_list              00000000     <absolute>
 0000:00000100       ___guard_flags             00000100     <absolute>
 0000:00000000       ___ImageBase               10000000     <linker-defined>
 0001:00000000       _adler32_z@12              10001000 f   adler32.obj
 0001:00000280       _adler32@12                10001280 f   adler32.obj
 0001:000003c0       _adler32_combine@12        100013c0 f   adler32.obj
 0001:000003e0       _compress2@20              100013e0 f   compress.obj
 0001:000004c0       _compress@16               100014c0 f   compress.obj
 0001:000004e0       _compressBound@4           100014e0 f   compress.obj
 0001:000005b0       _get_crc_table@0           100015b0 f   crc32.obj
 0001:00000650       _crc32_z@12                10001650 f   crc32.obj
 0001:00000970       _crc32@12                  10001970 f   crc32.obj
 0001:00000980       _crc32_combine64@16        10001980 f   crc32.obj
 0001:000009b0       _crc32_combine@12          100019b0 f   crc32.obj
 0001:000009d0       _crc32_combine_gen64@8     100019d0 f   crc32.obj
 0001:000009f0       _crc32_combine_gen@4       100019f0 f   crc32.obj
 0001:00000a10       _crc32_combine_op@12       10001a10 f   crc32.obj
 0001:00000cd0       _deflateInit_@16           10001cd0 f   deflate.obj
 0001:00000cf0       _deflateInit2_@32          10001cf0 f   deflate.obj
 0001:00000f90       _deflateSetDictionary@12   10001f90 f   deflate.obj
 0001:00001130       _deflateGetDictionary@12   10002130 f   deflate.obj
 0001:00001190       _deflateResetKeep@4        10002190 f   deflate.obj
 0001:000012e0       _deflateReset@4            100022e0 f   deflate.obj
 0001:00001310       _deflateSetHeader@8        10002310 f   deflate.obj
 0001:00001340       _deflatePending@12         10002340 f   deflate.obj
 0001:00001380       _deflatePrime@12           10002380 f   deflate.obj
 0001:00001420       _deflateParams@12          10002420 f   deflate.obj
 0001:00001570       _deflateTune@20            10002570 f   deflate.obj
 0001:000015c0       _deflateBound@8            100025c0 f   deflate.obj
 0001:00001770       _deflate@8                 10002770 f   deflate.obj
 0001:00002060       _deflateEnd@4              10003060 f   deflate.obj
 0001:00002120       _deflateCopy@8             10003120 f   deflate.obj
 0001:00003410       _gzclose@4                 10004410 f   gzclose.obj
 0001:00003440       ___local_stdio_printf_options 10004440 f i gzlib.obj
 0001:00003450       _vsnprintf                 10004450 f i gzlib.obj
 0001:00003490       _snprintf                  10004490 f i gzlib.obj
 0001:00003840       _gzopen@8                  10004840 f   gzlib.obj
 0001:00003860       _gzdopen@8                 10004860 f   gzlib.obj
 0001:000038c0       _gzopen_w@8                100048c0 f   gzlib.obj
 0001:000038e0       _gzbuffer@8                100048e0 f   gzlib.obj
 0001:00003930       _gzrewind@4                10004930 f   gzlib.obj
 0001:00003990       _gzseek64@16               10004990 f   gzlib.obj
 0001:00003b40       _gzseek@12                 10004b40 f   gzlib.obj
 0001:00003b80       _gztell64@4                10004b80 f   gzlib.obj
 0001:00003be0       _gztell@4                  10004be0 f   gzlib.obj
 0001:00003c10       _gzoffset64@4              10004c10 f   gzlib.obj
 0001:00003c60       _gzoffset@4                10004c60 f   gzlib.obj
 0001:00003c90       _gzeof@4                   10004c90 f   gzlib.obj
 0001:00003cc0       _gzerror@8                 10004cc0 f   gzlib.obj
 0001:00003d10       _gzclearerr@4              10004d10 f   gzlib.obj
 0001:00003d60       _gz_error                  10004d60 f   gzlib.obj
 0001:00004430       _gzread@12                 10005430 f   gzread.obj
 0001:000044a0       _gzfread@16                100054a0 f   gzread.obj
 0001:00004520       _gzgetc@4                  10005520 f   gzread.obj
 0001:00004590       _gzgetc_@4                 10005590 f   gzread.obj
 0001:000045a0       _gzungetc@8                100055a0 f   gzread.obj
 0001:000046b0       _gzgets@12                 100056b0 f   gzread.obj
 0001:000047d0       _gzdirect@4                100057d0 f   gzread.obj
 0001:00004810       _gzclose_r@4               10005810 f   gzread.obj
 0001:00004c90       _gzwrite@12                10005c90 f   gzwrite.obj
 0001:00004ce0       _gzfwrite@16               10005ce0 f   gzwrite.obj
 0001:00004d50       _gzputc@8                  10005d50 f   gzwrite.obj
 0001:00004e10       _gzputs@8                  10005e10 f   gzwrite.obj
 0001:00004e80       _gzvprintf                 10005e80 f   gzwrite.obj
 0001:00004fb0       _gzprintf                  10005fb0 f   gzwrite.obj
 0001:00004fd0       _gzflush@8                 10005fd0 f   gzwrite.obj
 0001:00005040       _gzsetparams@12            10006040 f   gzwrite.obj
 0001:00005130       _gzclose_w@4               10006130 f   gzwrite.obj
 0001:00005200       _inflateBackInit_@20       10006200 f   infback.obj
 0001:00005310       _inflateBack@20            10006310 f   infback.obj
 0001:00006120       _inflateBackEnd@4          10007120 f   infback.obj
 0001:00006160       _inflate_fast              10007160 f   inffast.obj
 0001:000065d0       _inflateResetKeep@4        100075d0 f   inflate.obj
 0001:00006680       _inflateReset@4            10007680 f   inflate.obj
 0001:000066c0       _inflateReset2@8           100076c0 f   inflate.obj
 0001:00006750       _inflateInit2_@16          10007750 f   inflate.obj
 0001:00006820       _inflateInit_@12           10007820 f   inflate.obj
 0001:00006840       _inflatePrime@12           10007840 f   inflate.obj
 0001:000069d0       _inflate@8                 100079d0 f   inflate.obj
 0001:00008130       _inflateEnd@4              10009130 f   inflate.obj
 0001:00008190       _inflateGetDictionary@12   10009190 f   inflate.obj
 0001:00008200       _inflateSetDictionary@12   10009200 f   inflate.obj
 0001:000082a0       _inflateGetHeader@8        100092a0 f   inflate.obj
 0001:00008360       _inflateSync@4             10009360 f   inflate.obj
 0001:00008490       _inflateSyncPoint@4        10009490 f   inflate.obj
 0001:000084d0       _inflateCopy@8             100094d0 f   inflate.obj
 0001:00008630       _inflateUndermine@8        10009630 f   inflate.obj
 0001:00008660       _inflateValidate@8         10009660 f   inflate.obj
 0001:000086a0       _inflateMark@4             100096a0 f   inflate.obj
 0001:00008710       _inflateCodesUsed@4        10009710 f   inflate.obj
 0001:00008740       _inflate_table             10009740 f   inftrees.obj
 0001:00008c20       _call_zopen64              10009c20 f   ioapi.obj
 0001:00008c40       _call_zseek64              10009c40 f   ioapi.obj
 0001:00008c90       _call_ztell64              10009c90 f   ioapi.obj
 0001:00008cc0       _fill_zlib_filefunc64_32_def_from_filefunc32 10009cc0 f   ioapi.obj
 0001:00008ec0       _fill_fopen64_filefunc     10009ec0 f   ioapi.obj
 0001:00008fb0       _win32_open64_file_func    10009fb0 f   iowin32.obj
 0001:00009010       _win32_open64_file_funcA   1000a010 f   iowin32.obj
 0001:00009070       _win32_open64_file_funcW   1000a070 f   iowin32.obj
 0001:000090d0       _win32_open_file_func      1000a0d0 f   iowin32.obj
 0001:00009130       _win32_read_file_func      1000a130 f   iowin32.obj
 0001:00009180       _win32_write_file_func     1000a180 f   iowin32.obj
 0001:00009230       _win32_tell_file_func      1000a230 f   iowin32.obj
 0001:00009280       _win32_tell64_file_func    1000a280 f   iowin32.obj
 0001:000092e0       _win32_seek_file_func      1000a2e0 f   iowin32.obj
 0001:00009350       _win32_seek64_file_func    1000a350 f   iowin32.obj
 0001:000093d0       _win32_close_file_func     1000a3d0 f   iowin32.obj
 0001:00009400       _win32_error_file_func     1000a400 f   iowin32.obj
 0001:00009420       _fill_win32_filefunc       1000a420 f   iowin32.obj
 0001:00009460       _fill_win32_filefunc64     1000a460 f   iowin32.obj
 0001:000094a0       _fill_win32_filefunc64A    1000a4a0 f   iowin32.obj
 0001:000094e0       _fill_win32_filefunc64W    1000a4e0 f   iowin32.obj
 0001:00009730       __tr_init                  1000a730 f   trees.obj
 0001:0000a610       __tr_stored_block          1000b610 f   trees.obj
 0001:0000a710       __tr_flush_bits            1000b710 f   trees.obj
 0001:0000a720       __tr_align                 1000b720 f   trees.obj
 0001:0000ad10       __tr_flush_block           1000bd10 f   trees.obj
 0001:0000af30       _uncompress2@16            1000bf30 f   uncompr.obj
 0001:0000b060       _uncompress@16             1000c060 f   uncompr.obj
 0001:0000b370       _unzStringFileNameCompare@12 1000c370 f   unzip.obj
 0001:0000bbf0       _unzOpen2@8                1000cbf0 f   unzip.obj
 0001:0000bc40       _unzOpen2_64@8             1000cc40 f   unzip.obj
 0001:0000bca0       _unzOpen@4                 1000cca0 f   unzip.obj
 0001:0000bcc0       _unzOpen64@4               1000ccc0 f   unzip.obj
 0001:0000bce0       _unzClose@4                1000cce0 f   unzip.obj
 0001:0000bd20       _unzGetGlobalInfo64@8      1000cd20 f   unzip.obj
 0001:0000bd50       _unzGetGlobalInfo@8        1000cd50 f   unzip.obj
 0001:0000c3d0       _unzGetCurrentFileInfo64@32 1000d3d0 f   unzip.obj
 0001:0000c400       _unzGetCurrentFileInfo@32  1000d400 f   unzip.obj
 0001:0000c4c0       _unzGoToFirstFile@4        1000d4c0 f   unzip.obj
 0001:0000c530       _unzGoToNextFile@4         1000d530 f   unzip.obj
 0001:0000c5e0       _unzLocateFile@12          1000d5e0 f   unzip.obj
 0001:0000c790       _unzGetFilePos64@8         1000d790 f   unzip.obj
 0001:0000c7e0       _unzGetFilePos@8           1000d7e0 f   unzip.obj
 0001:0000c810       _unzGoToFilePos64@8        1000d810 f   unzip.obj
 0001:0000c880       _unzGoToFilePos@8          1000d880 f   unzip.obj
 0001:0000cb20       _unzOpenCurrentFile3@20    1000db20 f   unzip.obj
 0001:0000ce70       _unzOpenCurrentFile@4      1000de70 f   unzip.obj
 0001:0000ce90       _unzOpenCurrentFilePassword@8 1000de90 f   unzip.obj
 0001:0000ceb0       _unzOpenCurrentFile2@16    1000deb0 f   unzip.obj
 0001:0000ced0       _unzGetCurrentFileZStreamPos64@4 1000ded0 f   unzip.obj
 0001:0000cf10       _unzReadCurrentFile@12     1000df10 f   unzip.obj
 0001:0000d230       _unztell@4                 1000e230 f   unzip.obj
 0001:0000d260       _unztell64@4               1000e260 f   unzip.obj
 0001:0000d290       _unzeof@4                  1000e290 f   unzip.obj
 0001:0000d2d0       _unzGetLocalExtrafield@12  1000e2d0 f   unzip.obj
 0001:0000d3a0       _unzCloseCurrentFile@4     1000e3a0 f   unzip.obj
 0001:0000d430       _unzGetGlobalComment@12    1000e430 f   unzip.obj
 0001:0000e500       _zipOpen3@16               1000f500 f   zip.obj
 0001:0000e670       _zipOpen2@16               1000f670 f   zip.obj
 0001:0000e6c0       _zipOpen2_64@16            1000f6c0 f   zip.obj
 0001:0000e720       _zipOpen@8                 1000f720 f   zip.obj
 0001:0000e740       _zipOpen64@8               1000f740 f   zip.obj
 0001:0000e9a0       _zipOpenNewFileInZip4_64@76 1000f9a0 f   zip.obj
 0001:0000ef40       _zipOpenNewFileInZip3@64   1000ff40 f   zip.obj
 0001:0000ef90       _zipOpenNewFileInZip3_64@68 1000ff90 f   zip.obj
 0001:0000efe0       _zipOpenNewFileInZip2@44   1000ffe0 f   zip.obj
 0001:0000f020       _zipOpenNewFileInZip2_64@48 10010020 f   zip.obj
 0001:0000f060       _zipOpenNewFileInZip64@44  10010060 f   zip.obj
 0001:0000f0a0       _zipOpenNewFileInZip@40    100100a0 f   zip.obj
 0001:0000f1a0       _zipWriteInFileInZip@12    100101a0 f   zip.obj
 0001:0000f2b0       _zipCloseFileInZipRaw@12   100102b0 f   zip.obj
 0001:0000f2d0       _zipCloseFileInZipRaw64@16 100102d0 f   zip.obj
 0001:0000f870       _zipCloseFileInZip@4       10010870 f   zip.obj
 0001:0000fbd0       _zipClose@8                10010bd0 f   zip.obj
 0001:0000fd60       _zlibVersion@0             10010d60 f   zutil.obj
 0001:0000fd70       _zlibCompileFlags@0        10010d70 f   zutil.obj
 0001:0000fd80       _zError@4                  10010d80 f   zutil.obj
 0001:0000fdb0       _zcalloc                   10010db0 f   zutil.obj
 0001:0000fdd0       _zcfree                    10010dd0 f   zutil.obj
 0001:0000fde0       _ReadFile@20               10010de0 f   kernel32:KERNEL32.dll
 0001:0000fde6       _WriteFile@20              10010de6 f   kernel32:KERNEL32.dll
 0001:0000fdec       _SetFilePointer@16         10010dec f   kernel32:KERNEL32.dll
 0001:0000fdf2       _CreateFileW@28            10010df2 f   kernel32:KERNEL32.dll
 0001:0000fdf8       _GetLastError@0            10010df8 f   kernel32:KERNEL32.dll
 0001:0000fdfe       _CreateFileA@28            10010dfe f   kernel32:KERNEL32.dll
 0001:0000fe04       _CloseHandle@4             10010e04 f   kernel32:KERNEL32.dll
 0001:0001014a       __CRT_INIT@12              1001114a f   LIBCMT:dll_dllmain.obj
 0001:00010153       __DllMainCRTStartup@12     10011153 f   LIBCMT:dll_dllmain.obj
 0001:000101c3       ___security_init_cookie    100111c3 f   LIBCMT:gs_support.obj
 0001:0001020e       _DllMain@12                1001120e f   LIBCMT:dll_dllmain_stub.obj
 0001:00010214       ?__scrt_initialize_type_info@@YAXXZ 10011214 f   LIBCMT:tncleanup.obj
 0001:00010220       ?__scrt_uninitialize_type_info@@YAXXZ 10011220 f   LIBCMT:tncleanup.obj
 0001:0001022c       ___local_stdio_scanf_options 1001122c f i LIBCMT:default_local_stdio_options.obj
 0001:00010232       ___scrt_initialize_default_local_stdio_options 10011232 f   LIBCMT:default_local_stdio_options.obj
 0001:0001024f       ?configure_argv@__scrt_narrow_argv_policy@@SAHXZ 1001124f f i LIBCMT:utility.obj
 0001:000102a0       ?initialize_environment@__scrt_narrow_environment_policy@@SAHXZ 100112a0 f i LIBCMT:utility.obj
 0001:000102d8       _NtCurrentTeb              100112d8 f i LIBCMT:utility.obj
 0001:000102df       ___scrt_acquire_startup_lock 100112df f   LIBCMT:utility.obj
 0001:00010311       ___scrt_dllmain_after_initialize_c 10011311 f   LIBCMT:utility.obj
 0001:0001033c       ___scrt_dllmain_before_initialize_c 1001133c f   LIBCMT:utility.obj
 0001:0001034a       ___scrt_dllmain_crt_thread_attach 1001134a f   LIBCMT:utility.obj
 0001:00010369       ___scrt_dllmain_crt_thread_detach 10011369 f   LIBCMT:utility.obj
 0001:00010376       ___scrt_dllmain_exception_filter 10011376 f   LIBCMT:utility.obj
 0001:000103aa       ___scrt_dllmain_uninitialize_c 100113aa f   LIBCMT:utility.obj
 0001:000103cd       ___scrt_dllmain_uninitialize_critical 100113cd f   LIBCMT:utility.obj
 0001:000103da       ___scrt_initialize_crt     100113da f   LIBCMT:utility.obj
 0001:00010413       ___scrt_initialize_onexit_tables 10011413 f   LIBCMT:utility.obj
 0001:0001049a       ___scrt_is_nonwritable_in_current_image 1001149a f   LIBCMT:utility.obj
 0001:0001052e       ___scrt_release_startup_lock 1001152e f   LIBCMT:utility.obj
 0001:0001054b       ___scrt_uninitialize_crt   1001154b f   LIBCMT:utility.obj
 0001:00010573       __onexit                   10011573 f   LIBCMT:utility.obj
 0001:000105a0       _at_quick_exit             100115a0 f   LIBCMT:utility.obj
 0001:000105c3       _atexit                    100115c3 f   LIBCMT:utility.obj
 0001:000105d8       ___scrt_get_dyn_tls_init_callback 100115d8 f   LIBCMT:dyn_tls_init.obj
 0001:000105de       ___scrt_fastfail           100115de f   LIBCMT:utility_desktop.obj
 0001:000106f3       ___scrt_get_show_window_mode 100116f3 f   LIBCMT:utility_desktop.obj
 0001:00010724       ___scrt_initialize_mta     10011724 f   LIBCMT:utility_desktop.obj
 0001:00010729       ___scrt_initialize_winrt   10011729 f   LIBCMT:utility_desktop.obj
 0001:0001072c       ___scrt_is_managed_app     1001172c f   LIBCMT:utility_desktop.obj
 0001:0001076e       ___scrt_set_unhandled_exception_filter 1001176e f   LIBCMT:utility_desktop.obj
 0001:0001077a       ___scrt_exe_initialize_mta 1001177a f   LIBCMT:utility_desktop.obj
 0001:0001077a       ___scrt_stub_for_initialize_mta 1001177a f   LIBCMT:utility_desktop.obj
 0001:0001077d       ___scrt_unhandled_exception_filter@4 1001177d f   LIBCMT:utility_desktop.obj
 0001:000107d3       __crt_debugger_hook        100117d3 f   LIBCMT:utility_desktop.obj
 0001:000107db       __RTC_Initialize           100117db f   LIBCMT:initsect.obj
 0001:00010807       __RTC_Terminate            10011807 f   LIBCMT:initsect.obj
 0001:00010840       __SEH_prolog4              10011840 f   LIBCMT:sehprolg4.obj
 0001:00010890       __SEH_epilog4              10011890 f   LIBCMT:sehprolg4.obj
 0001:000108a4       @_guard_check_icall_nop@4  100118a4 f i LIBCMT:guard_support.obj
 0001:000108a7       _ReadNoFence               100118a7 f i LIBCMT:guard_support.obj
 0001:000108b1       _ReadPointerNoFence        100118b1 f i LIBCMT:guard_support.obj
 0001:000108bb       __InlineInterlockedExchangePointer 100118bb f i LIBCMT:guard_support.obj
 0001:000108c8       ___castguard_check_failure_debugbreak 100118c8 f i LIBCMT:guard_support.obj
 0001:000108e3       ___castguard_check_failure_fastfail 100118e3 f i LIBCMT:guard_support.obj
 0001:00010902       ___castguard_check_failure_nop 10011902 f i LIBCMT:guard_support.obj
 0001:00010905       ___castguard_check_failure_os_handled 10011905 f i LIBCMT:guard_support.obj
 0001:0001093c       ___castguard_check_failure_user_handled 1001193c f i LIBCMT:guard_support.obj
 0001:000109aa       ___castguard_set_user_handler 100119aa f i LIBCMT:guard_support.obj
 0001:000109b9       ___castguard_slow_path_check_debugbreak 100119b9 f i LIBCMT:guard_support.obj
 0001:000109e6       ___castguard_slow_path_check_fastfail 100119e6 f i LIBCMT:guard_support.obj
 0001:00010a17       ___castguard_slow_path_check_nop 10011a17 f i LIBCMT:guard_support.obj
 0001:00010a1a       ___castguard_slow_path_check_os_handled 10011a1a f i LIBCMT:guard_support.obj
 0001:00010a56       ___castguard_slow_path_check_user_handled 10011a56 f i LIBCMT:guard_support.obj
 0001:00010ab7       __guard_icall_checks_enforced 10011ab7 f i LIBCMT:guard_support.obj
 0001:00010ac9       ___isa_available_init      10011ac9 f   LIBCMT:cpu_disp.obj
 0001:00010c9d       __get_startup_argv_mode    10011c9d f   LIBCMT:argv_mode.obj
 0001:00010ca1       ___scrt_is_ucrt_dll_in_use 10011ca1 f   LIBCMT:ucrt_detection.obj
 0001:00010cad       @__security_check_cookie@4 10011cad f   LIBCMT:secchk.obj
 0001:00010cbb       ___raise_securityfailure   10011cbb f   LIBCMT:gs_report.obj
 0001:00010ce3       ___report_gsfailure        10011ce3 f   LIBCMT:gs_report.obj
 0001:00010ddd       ___report_rangecheckfailure 10011ddd f   LIBCMT:gs_report.obj
 0001:00010de9       ___report_securityfailure  10011de9 f   LIBCMT:gs_report.obj
 0001:00010eb8       ___report_securityfailureEx 10011eb8 f   LIBCMT:gs_report.obj
 0001:00011010       __except_handler4          10012010 f   libvcruntime:chandler4.obj
 0001:0001117c       ??$?RD@__crt_internal_free_policy@@QBEXQBD@Z 1001217c f i libvcruntime:std_type_info.obj
 0001:0001118c       ??$?RX@__crt_internal_free_policy@@QBEXQBX@Z 1001218c f i libvcruntime:std_type_info.obj
 0001:0001119c       ??$__crt_interlocked_compare_exchange_pointer@$$CBDPAD$$T@@YAPBDPDSBDQAD$$T@Z 1001219c f i libvcruntime:std_type_info.obj
 0001:000111ae       ??$__crt_interlocked_read_pointer@$$CBD@@YAPBDPDSBD@Z 100121ae f i libvcruntime:std_type_info.obj
 0001:000111b9       ??0?$__crt_unique_heap_ptr@DU__crt_internal_free_policy@@@@QAE@QAD@Z 100121b9 f i libvcruntime:std_type_info.obj
 0001:000111c7       ??0?$__crt_unique_heap_ptr@XU__crt_internal_free_policy@@@@QAE@QAX@Z 100121c7 f i libvcruntime:std_type_info.obj
 0001:000111d5       ??1?$__crt_unique_heap_ptr@DU__crt_internal_free_policy@@@@QAE@XZ 100121d5 f i libvcruntime:std_type_info.obj
 0001:000111e5       ??1?$__crt_unique_heap_ptr@XU__crt_internal_free_policy@@@@QAE@XZ 100121e5 f i libvcruntime:std_type_info.obj
 0001:000111f5       ??B?$__crt_unique_heap_ptr@DU__crt_internal_free_policy@@@@QBE_NXZ 100121f5 f i libvcruntime:std_type_info.obj
 0001:000111fc       ??B?$__crt_unique_heap_ptr@XU__crt_internal_free_policy@@@@QBE_NXZ 100121fc f i libvcruntime:std_type_info.obj
 0001:00011223       ?__crt_interlocked_read_32@@YAHPDH@Z 10012223 f i libvcruntime:std_type_info.obj
 0001:0001122e       ?detach@?$__crt_unique_heap_ptr@XU__crt_internal_free_policy@@@@QAEPAXXZ 1001222e f i libvcruntime:std_type_info.obj
 0001:00011234       ?get@?$__crt_unique_heap_ptr@DU__crt_internal_free_policy@@@@QBEPADXZ 10012234 f i libvcruntime:std_type_info.obj
 0001:00011237       ?get@?$__crt_unique_heap_ptr@XU__crt_internal_free_policy@@@@QBEPAXXZ 10012237 f i libvcruntime:std_type_info.obj
 0001:0001123a       ?is_valid@?$__crt_unique_heap_ptr@DU__crt_internal_free_policy@@@@QBE_NXZ 1001223a f i libvcruntime:std_type_info.obj
 0001:00011241       ?is_valid@?$__crt_unique_heap_ptr@XU__crt_internal_free_policy@@@@QBE_NXZ 10012241 f i libvcruntime:std_type_info.obj
 0001:00011248       ?release@?$__crt_unique_heap_ptr@DU__crt_internal_free_policy@@@@QAEXXZ 10012248 f i libvcruntime:std_type_info.obj
 0001:00011258       ?release@?$__crt_unique_heap_ptr@XU__crt_internal_free_policy@@@@QAEXXZ 10012258 f i libvcruntime:std_type_info.obj
 0001:00011268       ___std_type_info_compare   10012268 f   libvcruntime:std_type_info.obj
 0001:000112a4       ___std_type_info_destroy_list 100122a4 f   libvcruntime:std_type_info.obj
 0001:000112c7       ___std_type_info_hash      100122c7 f   libvcruntime:std_type_info.obj
 0001:000112ed       ___std_type_info_name      100122ed f   libvcruntime:std_type_info.obj
 0001:000113b3       ___vcrt_initialize         100123b3 f   libvcruntime:initialization.obj
 0001:000113d2       ___vcrt_thread_attach      100123d2 f   libvcruntime:initialization.obj
 0001:000113dd       ___vcrt_thread_detach      100123dd f   libvcruntime:initialization.obj
 0001:000113e5       ___vcrt_uninitialize       100123e5 f   libvcruntime:initialization.obj
 0001:000113fc       ___vcrt_uninitialize_critical 100123fc f   libvcruntime:initialization.obj
 0001:00011407       ___DestructExceptionObject 10012407 f   libvcruntime:ehhelpers.obj
 0001:000114a8       ?_CallMemberFunction0@@YGXQAX0@Z 100124a8 f i libvcruntime:ehhelpers.obj
 0001:0001150d       ?raw_name@type_info@@QBEPBDXZ 1001250d f i libvcruntime:ehhelpers.obj
 0001:00011511       __IsExceptionObjectToBeDestroyed 10012511 f   libvcruntime:ehhelpers.obj
 0001:00011537       __SetWinRTOutOfMemoryExceptionCallback 10012537 f   libvcruntime:ehhelpers.obj
 0001:00011544       ___AdjustPointer           10012544 f   libvcruntime:ehhelpers.obj
 0001:00011569       ___FrameUnwindFilter       10012569 f   libvcruntime:ehhelpers.obj
 0001:000115bf       ___GetPlatformExceptionInfo 100125bf f   libvcruntime:ehhelpers.obj
 0001:0001160b       ___current_exception       1001260b f   libvcruntime:ehhelpers.obj
 0001:00011614       ___current_exception_context 10012614 f   libvcruntime:ehhelpers.obj
 0001:0001161d       ___processing_throw        1001261d f   libvcruntime:ehhelpers.obj
 0001:00011626       ___std_terminate           10012626 f   libvcruntime:ehhelpers.obj
 0001:0001162b       __is_exception_typeof      1001262b f   libvcruntime:ehhelpers.obj
 0001:000116d0       _memset                    100126d0 f   libvcruntime:memset.obj
 0001:00011830       __local_unwind4            10012830 f   libvcruntime:exsup4.obj
 0001:00011920       __seh_longjmp_unwind4@4    10012920 f   libvcruntime:exsup4.obj
 0001:00011950       @_EH4_CallFilterFunc@8     10012950 f   libvcruntime:exsup4.obj
 0001:00011970       @_EH4_TransferToHandler@8  10012970 f   libvcruntime:exsup4.obj
 0001:00011990       @_EH4_GlobalUnwind2@8      10012990 f   libvcruntime:exsup4.obj
 0001:000119b0       @_EH4_LocalUnwind@16       100129b0 f   libvcruntime:exsup4.obj
 0001:000119d2       ___except_validate_context_record 100129d2 f   libvcruntime:jbcxrval.obj
 0001:00011a02       ___except_validate_jump_buffer 10012a02 f   libvcruntime:jbcxrval.obj
 0001:00011a2f       ___except_validate_jump_buffer_common 10012a2f f i libvcruntime:jbcxrval.obj
 0001:00011a68       ??$?0$00@DName@@QAE@PBDU?$StringLifeSelector@$00@@@Z 10012a68 f i libvcruntime:undname.obj
 0001:00011a9b       ??$?0$00@pcharNode@@QAE@PBDHU?$StringLifeSelector@$00@@@Z 10012a9b f i libvcruntime:undname.obj
 0001:00011ab6       ??$?0$01@DName@@QAE@PBDU?$StringLifeSelector@$01@@@Z 10012ab6 f i libvcruntime:undname.obj
 0001:00011ae9       ??$?0$01@pcharNode@@QAE@PBDHU?$StringLifeSelector@$01@@@Z 10012ae9 f i libvcruntime:undname.obj
 0001:00011b29       ??$?0$0A@@DName@@QAE@PBDU?$StringLifeSelector@$0A@@@@Z 10012b29 f i libvcruntime:undname.obj
 0001:00011b5c       ??$?0$0A@@pcharNode@@QAE@PBDHU?$StringLifeSelector@$0A@@@@Z 10012b5c f i libvcruntime:undname.obj
 0001:00011b9c       ??$?0_K$0A@@?$optional@_K@std@@QAE@$$QA_K@Z 10012b9c f i libvcruntime:undname.obj
 0001:00011bb6       ??$?0_K@?$_Optional_construct_base@_K@std@@QAE@Uin_place_t@1@$$QA_K@Z 10012bb6 f i libvcruntime:undname.obj
 0001:00011bd0       ??$?0_K@?$_Optional_destruct_base@_K$00@std@@QAE@Uin_place_t@1@$$QA_K@Z 10012bd0 f i libvcruntime:undname.obj
 0001:00011bea       ??$append@VDNameNode@@@DName@@AAEXPBVDNameNode@@@Z 10012bea f i libvcruntime:undname.obj
 0001:00011c2b       ??$append@VDNameStatusNode@@@DName@@AAEXPBVDNameStatusNode@@@Z 10012c2b f i libvcruntime:undname.obj
 0001:00011c6c       ??$append@VcharNode@@@DName@@AAEXPBVcharNode@@@Z 10012c6c f i libvcruntime:undname.obj
 0001:00011cad       ??$append@VpDNameNode@@@DName@@AAEXPBVpDNameNode@@@Z 10012cad f i libvcruntime:undname.obj
 0001:00011cee       ??$append@VpcharNode@@@DName@@AAEXPBVpcharNode@@@Z 10012cee f i libvcruntime:undname.obj
 0001:00011d2f       ??$doPchar@$00@DName@@AAEXPBDH@Z 10012d2f f i libvcruntime:undname.obj
 0001:00011d9a       ??$doPchar@$01@DName@@AAEXPBDH@Z 10012d9a f i libvcruntime:undname.obj
 0001:00011e0b       ??$doPchar@$0A@@DName@@AAEXPBDH@Z 10012e0b f i libvcruntime:undname.obj
 0001:00011e7c       ??$forward@_K@std@@YA$$QA_KAA_K@Z 10012e7c f i libvcruntime:undname.obj
 0001:00011f40       ??$size@D$04@std@@YAIAAY04$$CBD@Z 10012f40 f i libvcruntime:undname.obj
 0001:00011f44       ??0?$_Optional_construct_base@_K@std@@QAE@XZ 10012f44 f i libvcruntime:undname.obj
 0001:00011f4b       ??0?$_Optional_destruct_base@_K$00@std@@QAE@XZ 10012f4b f i libvcruntime:undname.obj
 0001:00011f52       ??0?$optional@_K@std@@QAE@XZ 10012f52 f i libvcruntime:undname.obj
 0001:00011f59       ??0Block@_HeapManager@@QAE@XZ 10012f59 f i libvcruntime:undname.obj
 0001:00011f5f       ??0DName@@QAE@AAPBDD@Z     10012f5f f   libvcruntime:undname.obj
 0001:00011fdf       ??0DName@@QAE@ABUStringLiteral@@@Z 10012fdf f   libvcruntime:undname.obj
 0001:00012006       ??0DName@@QAE@ABV0@@Z      10013006 f i libvcruntime:undname.obj
 0001:0001201c       ??0DName@@QAE@D@Z          1001301c f   libvcruntime:undname.obj
 0001:00012038       ??0DName@@QAE@PAV0@@Z      10013038 f   libvcruntime:undname.obj
 0001:00012081       ??0DName@@QAE@W4DNameStatus@@@Z 10013081 f   libvcruntime:undname.obj
 0001:000120c1       ??0DName@@QAE@XZ           100130c1 f i libvcruntime:undname.obj
 0001:000120cb       ??0DName@@QAE@_J@Z         100130cb f   libvcruntime:undname.obj
 0001:00012155       ??0DName@@QAE@_K@Z         10013155 f   libvcruntime:undname.obj
 0001:000121b9       ??0DNameNode@@IAE@XZ       100131b9 f i libvcruntime:undname.obj
 0001:000121c2       ??0Replicator@@QAE@XZ      100131c2 f i libvcruntime:undname.obj
 0001:000121df       ??0UnDecorator@@QAE@PBDP6APADJ@ZK@Z 100131df f i libvcruntime:undname.obj
 0001:00012243       ??0_Nontrivial_dummy_type@std@@QAE@XZ 10013243 f i libvcruntime:undname.obj
 0001:00012246       ??0charNode@@QAE@D@Z       10013246 f i libvcruntime:undname.obj
 0001:0001225b       ??0pDNameNode@@QAE@PAVDName@@@Z 1001325b f   libvcruntime:undname.obj
 0001:00012283       ??0pairNode@@QAE@PBVDNameNode@@0@Z 10013283 f i libvcruntime:undname.obj
 0001:000122a9       ??2@YAPAXIAAV_HeapManager@@H@Z 100132a9 f   libvcruntime:undname.obj
 0001:000122c8       ??4DName@@QAEAAV0@ABUStringLiteral@@@Z 100132c8 f   libvcruntime:undname.obj
 0001:000122e9       ??4DName@@QAEAAV0@ABV0@@Z  100132e9 f   libvcruntime:undname.obj
 0001:000122ff       ??4DName@@QAEAAV0@D@Z      100132ff f i libvcruntime:undname.obj
 0001:0001231b       ??4DName@@QAEAAV0@PAV0@@Z  1001331b f   libvcruntime:undname.obj
 0001:0001235e       ??4DName@@QAEAAV0@W4DNameStatus@@@Z 1001335e f   libvcruntime:undname.obj
 0001:00012390       ??AReplicator@@QBE?AVDName@@H@Z 10013390 f   libvcruntime:undname.obj
 0001:000123cc       ??B?$optional@_K@std@@QBE_NXZ 100133cc f i libvcruntime:undname.obj
 0001:000123d0       ??D?$_Optional_construct_base@_K@std@@QGAEAA_KXZ 100133d0 f i libvcruntime:undname.obj
 0001:000123d3       ??H@YA?AVDName@@ABUStringLiteral@@ABV0@@Z 100133d3 f i libvcruntime:undname.obj
 0001:000123f5       ??H@YA?AVDName@@DABV0@@Z   100133f5 f i libvcruntime:undname.obj
 0001:00012420       ??H@YA?AVDName@@W4DNameStatus@@ABV0@@Z 10013420 f i libvcruntime:undname.obj
 0001:00012442       ??HDName@@QBE?AV0@ABUStringLiteral@@@Z 10013442 f   libvcruntime:undname.obj
 0001:00012464       ??HDName@@QBE?AV0@ABV0@@Z  10013464 f   libvcruntime:undname.obj
 0001:00012486       ??HDName@@QBE?AV0@D@Z      10013486 f   libvcruntime:undname.obj
 0001:000124a8       ??HDName@@QBE?AV0@PAV0@@Z  100134a8 f   libvcruntime:undname.obj
 0001:000124ca       ??HDName@@QBE?AV0@W4DNameStatus@@@Z 100134ca f   libvcruntime:undname.obj
 0001:000124ec       ??HStringLiteral@@QBE?AU0@H@Z 100134ec f i libvcruntime:undname.obj
 0001:00012506       ??YDName@@QAEAAV0@ABUStringLiteral@@@Z 10013506 f   libvcruntime:undname.obj
 0001:0001255e       ??YDName@@QAEAAV0@ABV0@@Z  1001355e f   libvcruntime:undname.obj
 0001:000125b5       ??YDName@@QAEAAV0@D@Z      100135b5 f   libvcruntime:undname.obj
 0001:0001260a       ??YDName@@QAEAAV0@PAV0@@Z  1001360a f   libvcruntime:undname.obj
 0001:0001266e       ??YDName@@QAEAAV0@W4DNameStatus@@@Z 1001366e f   libvcruntime:undname.obj
 0001:000126ae       ??YReplicator@@QAEAAV0@ABVDName@@@Z 100136ae f   libvcruntime:undname.obj
 0001:000126ee       ??_5DName@@QAEAAV0@ABV0@@Z 100136ee f   libvcruntime:undname.obj
 0001:0001270d       ??__K_l@@YA?AUStringLiteral@@PBDI@Z 1001370d f i libvcruntime:undname.obj
 0001:00012718       ?Constructor@_HeapManager@@QAEXP6APAXI@ZP6AXPAX@Z@Z 10013718 f i libvcruntime:undname.obj
 0001:00012735       ?Destructor@_HeapManager@@QAEXXZ 10013735 f i libvcruntime:undname.obj
 0001:00012779       ?UScore@UnDecorator@@SA?AUStringLiteral@@W4Tokens@@@Z 10013779 f   libvcruntime:undname.obj
 0001:000127a0       ?composeDeclaration@UnDecorator@@CA?AVDName@@ABV2@@Z 100137a0 f i libvcruntime:undname.obj
 0001:00013531       ?doAccessSpecifiers@UnDecorator@@SAHXZ 10014531 f i libvcruntime:undname.obj
 0001:0001353f       ?doAllocationLanguage@UnDecorator@@SAHXZ 1001453f f i libvcruntime:undname.obj
 0001:0001354d       ?doAllocationModel@UnDecorator@@SAHXZ 1001454d f i libvcruntime:undname.obj
 0001:0001355b       ?doEcsu@UnDecorator@@SAHXZ 1001455b f i libvcruntime:undname.obj
 0001:00013569       ?doEllipsis@UnDecorator@@SAHXZ 10014569 f i libvcruntime:undname.obj
 0001:00013577       ?doFunctionReturns@UnDecorator@@SAHXZ 10014577 f i libvcruntime:undname.obj
 0001:00013585       ?doMSKeywords@UnDecorator@@SAHXZ 10014585 f i libvcruntime:undname.obj
 0001:00013592       ?doMemberTypes@UnDecorator@@SAHXZ 10014592 f i libvcruntime:undname.obj
 0001:000135a0       ?doNameOnly@UnDecorator@@SAHXZ 100145a0 f i libvcruntime:undname.obj
 0001:000135ab       ?doNoIdentCharCheck@UnDecorator@@SAHXZ 100145ab f i libvcruntime:undname.obj
 0001:000135b6       ?doPchar@DName@@AAEXD@Z    100145b6 f   libvcruntime:undname.obj
 0001:000135ee       ?doPtr64@UnDecorator@@SAHXZ 100145ee f i libvcruntime:undname.obj
 0001:000135fc       ?doRestrictionSpec@UnDecorator@@SAHXZ 100145fc f i libvcruntime:undname.obj
 0001:0001360a       ?doThisTypes@UnDecorator@@SAHXZ 1001460a f i libvcruntime:undname.obj
 0001:0001361c       ?doThrowTypes@UnDecorator@@SAHXZ 1001461c f i libvcruntime:undname.obj
 0001:0001362a       ?doTypeOnly@UnDecorator@@SAHXZ 1001462a f i libvcruntime:undname.obj
 0001:00013635       ?doUnderScore@UnDecorator@@SAHXZ 10014635 f i libvcruntime:undname.obj
 0001:00013640       ?getAddressOf@UnDecorator@@CA?AVDName@@XZ 10014640 f   libvcruntime:undname.obj
 0001:000136a8       ?getArgumentList@UnDecorator@@CA?AVDName@@XZ 100146a8 f   libvcruntime:undname.obj
 0001:000137b5       ?getArgumentTypes@UnDecorator@@CA?AVDName@@XZ 100147b5 f   libvcruntime:undname.obj
 0001:000138bd       ?getArrayAccess@UnDecorator@@CA?AVDName@@XZ 100148bd f   libvcruntime:undname.obj
 0001:00013931       ?getArrayObject@UnDecorator@@CA?AVDName@@XZ 10014931 f   libvcruntime:undname.obj
 0001:000139cf       ?getArrayType@UnDecorator@@CA?AVDName@@ABV2@@Z 100149cf f i libvcruntime:undname.obj
 0001:00013b6c       ?getBasedType@UnDecorator@@CA?AVDName@@XZ 10014b6c f   libvcruntime:undname.obj
 0001:00013c1b       ?getBasicDataType@UnDecorator@@CA?AVDName@@ABV2@@Z 10014c1b f   libvcruntime:undname.obj
 0001:00014177       ?getCHPEName@UnDecorator@@QAEPADPADH@Z 10015177 f i libvcruntime:undname.obj
 0001:00014254       ?getCallIndex@UnDecorator@@CA?AVDName@@XZ 10015254 f i libvcruntime:undname.obj
 0001:00014268       ?getCallingConvention@UnDecorator@@CA?AVDName@@XZ 10015268 f   libvcruntime:undname.obj
 0001:00014332       ?getDataIndirectType@UnDecorator@@CA?AVDName@@ABV2@W4IndirectionKind@@0H@Z 10015332 f   libvcruntime:undname.obj
 0001:00014ab8       ?getDataIndirectType@UnDecorator@@CA?AVDName@@XZ 10015ab8 f i libvcruntime:undname.obj
 0001:00014ae6       ?getDataType@UnDecorator@@CA?AVDName@@PAV2@@Z 10015ae6 f   libvcruntime:undname.obj
 0001:00014bbd       ?getDecoratedName@UnDecorator@@CA?AVDName@@XZ 10015bbd f   libvcruntime:undname.obj
 0001:00014e11       ?getDimension@UnDecorator@@CA?AVDName@@_N@Z 10015e11 f   libvcruntime:undname.obj
 0001:00014f28       ?getDispatchTarget@UnDecorator@@CA?AVDName@@XZ 10015f28 f   libvcruntime:undname.obj
 0001:00014f79       ?getDisplacement@UnDecorator@@CA?AVDName@@XZ 10015f79 f i libvcruntime:undname.obj
 0001:00014f8d       ?getECSUDataType@UnDecorator@@CA?AVDName@@XZ 10015f8d f   libvcruntime:undname.obj
 0001:00015137       ?getECSUName@UnDecorator@@CA?AVDName@@XZ 10016137 f i libvcruntime:undname.obj
 0001:00015148       ?getEnumType@UnDecorator@@CA?AVDName@@XZ 10016148 f i libvcruntime:undname.obj
 0001:0001525c       ?getExtendedDataIndirectType@UnDecorator@@CA?AVDName@@AAW4IndirectionKind@@AA_NH@Z 1001625c f   libvcruntime:undname.obj
 0001:00015460       ?getExternalDataType@UnDecorator@@CA?AVDName@@ABV2@@Z 10016460 f i libvcruntime:undname.obj
 0001:000154c5       ?getFloatingPoint@UnDecorator@@CA?AVDName@@H@Z 100164c5 f   libvcruntime:undname.obj
 0001:00015588       ?getFunctionIndirectType@UnDecorator@@CA?AVDName@@ABV2@@Z 10016588 f   libvcruntime:undname.obj
 0001:00015932       ?getGuardNumber@UnDecorator@@CA?AVDName@@XZ 10016932 f i libvcruntime:undname.obj
 0001:00015946       ?getLastChar@DName@@QBEDXZ 10016946 f i libvcruntime:undname.obj
 0001:00015966       ?getLastChar@DNameStatusNode@@UBEDXZ 10016966 f i libvcruntime:undname.obj
 0001:00015972       ?getLastChar@charNode@@UBEDXZ 10016972 f i libvcruntime:undname.obj
 0001:00015976       ?getLastChar@pDNameNode@@UBEDXZ 10016976 f i libvcruntime:undname.obj
 0001:00015984       ?getLastChar@pairNode@@UBEDXZ 10016984 f i libvcruntime:undname.obj
 0001:000159b9       ?getLastChar@pcharNode@@UBEDXZ 100169b9 f i libvcruntime:undname.obj
 0001:000159cb       ?getLexicalFrame@UnDecorator@@CA?AVDName@@XZ 100169cb f i libvcruntime:undname.obj
 0001:000159fc       ?getMemberAccess@UnDecorator@@CA?AVDName@@XZ 100169fc f   libvcruntime:undname.obj
 0001:00015a6c       ?getMemoryWithBuffer@_HeapManager@@QAEPAXI@Z 10016a6c f   libvcruntime:undname.obj
 0001:00015ad6       ?getMemoryWithoutBuffer@_HeapManager@@QAEPAXI@Z 10016ad6 f   libvcruntime:undname.obj
 0001:00015af6       ?getNoexcept@UnDecorator@@CA?AVDName@@XZ 10016af6 f   libvcruntime:undname.obj
 0001:00015b3e       ?getNumberOfDimensions@UnDecorator@@CAHXZ 10016b3e f   libvcruntime:undname.obj
 0001:00015b98       ?getOperatorName@UnDecorator@@CA?AVDName@@_NPA_N@Z 10016b98 f i libvcruntime:undname.obj
 0001:0001645e       ?getPointerToMember@UnDecorator@@CA?AVDName@@XZ 1001745e f   libvcruntime:undname.obj
 0001:0001651a       ?getPointerType@UnDecorator@@CA?AVDName@@ABV2@0@Z 1001751a f i libvcruntime:undname.obj
 0001:00016535       ?getPointerTypeArray@UnDecorator@@CA?AVDName@@ABV2@0@Z 10017535 f i libvcruntime:undname.obj
 0001:00016550       ?getPrimaryDataType@UnDecorator@@CA?AVDName@@ABV2@@Z 10017550 f   libvcruntime:undname.obj
 0001:0001679e       ?getPtrRefDataType@UnDecorator@@CA?AVDName@@ABV2@H@Z 1001779e f   libvcruntime:undname.obj
 0001:0001690b       ?getPtrRefType@UnDecorator@@CA?AVDName@@ABV2@0W4IndirectionKind@@@Z 1001790b f   libvcruntime:undname.obj
 0001:00016a1c       ?getReferenceType@UnDecorator@@CA?AVDName@@ABV2@0W4IndirectionKind@@@Z 10017a1c f i libvcruntime:undname.obj
 0001:00016a38       ?getRestrictionSpec@UnDecorator@@CA?AVDName@@XZ 10017a38 f   libvcruntime:undname.obj
 0001:00016b51       ?getReturnType@UnDecorator@@CA?AVDName@@PAV2@@Z 10017b51 f   libvcruntime:undname.obj
 0001:00016b80       ?getScope@UnDecorator@@CA?AVDName@@XZ 10017b80 f   libvcruntime:undname.obj
 0001:00016f3e       ?getScopedName@UnDecorator@@CA?AVDName@@XZ 10017f3e f   libvcruntime:undname.obj
 0001:00017033       ?getSignedDimension@UnDecorator@@CA?AVDName@@XZ 10018033 f   libvcruntime:undname.obj
 0001:00017084       ?getStorageConvention@UnDecorator@@CA?AVDName@@XZ 10018084 f i libvcruntime:undname.obj
 0001:00017095       ?getString@DName@@QBEPADPAD0@Z 10018095 f i libvcruntime:undname.obj
 0001:000170c2       ?getString@DName@@QBEPADPADH@Z 100180c2 f i libvcruntime:undname.obj
 0001:00017117       ?getString@DNameStatusNode@@UBEPADPAD0@Z 10018117 f i libvcruntime:undname.obj
 0001:0001715e       ?getString@charNode@@UBEPADPAD0@Z 1001815e f i libvcruntime:undname.obj
 0001:00017173       ?getString@pDNameNode@@UBEPADPAD0@Z 10018173 f i libvcruntime:undname.obj
 0001:0001718a       ?getString@pairNode@@UBEPADPAD0@Z 1001818a f i libvcruntime:undname.obj
 0001:000171d0       ?getString@pcharNode@@UBEPADPAD0@Z 100181d0 f i libvcruntime:undname.obj
 0001:000171eb       ?getStringEncoding@UnDecorator@@CA?AVDName@@W4PrefixKind@@H@Z 100181eb f   libvcruntime:undname.obj
 0001:0001727e       ?getStringHelper@@YAPADPADPBD1H@Z 1001827e f i libvcruntime:undname.obj
 0001:000172a8       ?getStringObject@UnDecorator@@CA?AVDName@@XZ 100182a8 f   libvcruntime:undname.obj
 0001:00017314       ?getSymbolName@UnDecorator@@CA?AVDName@@XZ 10018314 f i libvcruntime:undname.obj
 0001:0001735c       ?getTemplateArgumentList@UnDecorator@@CA?AVDName@@XZ 1001835c f   libvcruntime:undname.obj
 0001:0001750c       ?getTemplateName@UnDecorator@@CA?AVDName@@_N@Z 1001850c f   libvcruntime:undname.obj
 0001:00017687       ?getTemplateNonTypeArgument@UnDecorator@@CA?AVDName@@XZ 10018687 f   libvcruntime:undname.obj
 0001:00017a4f       ?getTemplateTypeArgument@UnDecorator@@CA?AVDName@@XZ 10018a4f f   libvcruntime:undname.obj
 0001:00017b60       ?getThisType@UnDecorator@@CA?AVDName@@XZ 10018b60 f i libvcruntime:undname.obj
 0001:00017b8f       ?getThrowTypes@UnDecorator@@CA?AVDName@@XZ 10018b8f f   libvcruntime:undname.obj
 0001:00017bae       ?getTypeEncoding@UnDecorator@@CAHXZ 10018bae f i libvcruntime:undname.obj
 0001:00017eea       ?getUndecoratedName@UnDecorator@@QAEPADPADH@Z 10018eea f i libvcruntime:undname.obj
 0001:00018009       ?getUnionObject@UnDecorator@@CA?AVDName@@XZ 10019009 f   libvcruntime:undname.obj
 0001:000180b0       ?getVCallThunkType@UnDecorator@@CA?AVDName@@XZ 100190b0 f i libvcruntime:undname.obj
 0001:000180fa       ?getValue@UnDecorator@@CA?AV?$optional@_K@std@@XZ 100190fa f   libvcruntime:undname.obj
 0001:0001814a       ?getValueObject@UnDecorator@@CA?AVDName@@XZ 1001914a f   libvcruntime:undname.obj
 0001:00018276       ?getVbTableType@UnDecorator@@CA?AVDName@@ABV2@@Z 10019276 f i libvcruntime:undname.obj
 0001:0001828b       ?getVdispMapType@UnDecorator@@CA?AVDName@@ABV2@@Z 1001928b f i libvcruntime:undname.obj
 0001:000182ec       ?getVfTableType@UnDecorator@@CA?AVDName@@ABV2@@Z 100192ec f i libvcruntime:undname.obj
 0001:00018440       ?getZName@UnDecorator@@CA?AVDName@@_N0@Z 10019440 f   libvcruntime:undname.obj
 0001:00018659       ?get_current_character_and_increment_buffer@UnDecorator@@CADXZ 10019659 f i libvcruntime:undname.obj
 0001:0001866d       ?haveTemplateParameters@UnDecorator@@SAHXZ 1001966d f i libvcruntime:undname.obj
 0001:00018678       ?increment_buffer@UnDecorator@@CA_NI@Z 10019678 f i libvcruntime:undname.obj
 0001:000186a0       ?increment_buffer_no_check@UnDecorator@@CAXI@Z 100196a0 f i libvcruntime:undname.obj
 0001:000186ae       ?increment_buffer_no_check@UnDecorator@@CAXXZ 100196ae f i libvcruntime:undname.obj
 0001:000186b5       ?isArray@DName@@QBEHXZ     100196b5 f i libvcruntime:undname.obj
 0001:000186bf       ?isComArray@DName@@QBEHXZ  100196bf f i libvcruntime:undname.obj
 0001:000186c9       ?isEmpty@DName@@QBEHXZ     100196c9 f i libvcruntime:undname.obj
 0001:000186d1       ?isFull@Replicator@@QBEHXZ 100196d1 f i libvcruntime:undname.obj
 0001:000186da       ?isNoTE@DName@@QBEHXZ      100196da f i libvcruntime:undname.obj
 0001:000186e4       ?isPinPtr@DName@@QBEHXZ    100196e4 f i libvcruntime:undname.obj
 0001:000186ee       ?isPtrRef@DName@@QBEHXZ    100196ee f i libvcruntime:undname.obj
 0001:000186f8       ?isUDC@DName@@QBEHXZ       100196f8 f i libvcruntime:undname.obj
 0001:00018709       ?isUDTThunk@DName@@QBEHXZ  10019709 f i libvcruntime:undname.obj
 0001:0001871a       ?isVCallThunk@DName@@QBEHXZ 1001971a f i libvcruntime:undname.obj
 0001:00018724       ?isValid@DName@@QBEHXZ     10019724 f i libvcruntime:undname.obj
 0001:0001872e       ?length@DName@@QBEHXZ      1001972e f i libvcruntime:undname.obj
 0001:0001874d       ?length@DNameStatusNode@@UBEHXZ 1001974d f i libvcruntime:undname.obj
 0001:00018751       ?length@charNode@@UBEHXZ   10019751 f i libvcruntime:undname.obj
 0001:00018755       ?length@pDNameNode@@UBEHXZ 10019755 f i libvcruntime:undname.obj
 0001:00018763       ?length@pairNode@@UBEHXZ   10019763 f i libvcruntime:undname.obj
 0001:000187ac       ?length@pcharNode@@UBEHXZ  100197ac f i libvcruntime:undname.obj
 0001:000187b0       ?make@DNameStatusNode@@SAPBV1@W4DNameStatus@@@Z 100197b0 f i libvcruntime:undname.obj
 0001:000187cc       ?parseDecoratedName@UnDecorator@@CA?AVDName@@XZ 100197cc f   libvcruntime:undname.obj
 0001:000188c7       ?raw_length@DNameStatusNode@@UBEHXZ 100198c7 f i libvcruntime:undname.obj
 0001:000188cb       ?raw_length@charNode@@UBEHXZ 100198cb f i libvcruntime:undname.obj
 0001:000188cf       ?raw_length@pDNameNode@@UBEHXZ 100198cf f i libvcruntime:undname.obj
 0001:000188d3       ?raw_length@pairNode@@UBEHXZ 100198d3 f i libvcruntime:undname.obj
 0001:000188d7       ?raw_length@pcharNode@@UBEHXZ 100198d7 f i libvcruntime:undname.obj
 0001:000188db       ?setIsArray@DName@@QAEXXZ  100198db f i libvcruntime:undname.obj
 0001:000188e3       ?setIsComArray@DName@@QAEXXZ 100198e3 f i libvcruntime:undname.obj
 0001:000188eb       ?setIsNoTE@DName@@QAEXXZ   100198eb f i libvcruntime:undname.obj
 0001:000188f3       ?setIsPinPtr@DName@@QAEXXZ 100198f3 f i libvcruntime:undname.obj
 0001:000188fb       ?setIsUDC@DName@@QAEXXZ    100198fb f i libvcruntime:undname.obj
 0001:00018908       ?setIsVCallThunk@DName@@QAEXXZ 10019908 f i libvcruntime:undname.obj
 0001:00018910       ?setPtrRef@DName@@QAEAAV1@XZ 10019910 f i libvcruntime:undname.obj
 0001:0001891a       ?status@DName@@QBE?AW4DNameStatus@@XZ 1001991a f i libvcruntime:undname.obj
 0001:00018986       ___unDName                 10019986 f   libvcruntime:undname.obj
 0001:000189a9       ___unDNameEx               100199a9 f   libvcruntime:undname.obj
 0001:00018a48       __vsprintf_s_l             10019a48 f i libvcruntime:undname.obj
 0001:00018a75       _sprintf_s                 10019a75 f i libvcruntime:undname.obj
 0001:00018a91       _unDNameGenerateCHPE       10019a91 f   libvcruntime:undname.obj
 0001:00018b2e       ??$?RU__vcrt_ptd@@@__crt_internal_free_policy@@QBEXQBU__vcrt_ptd@@@Z 10019b2e f i libvcruntime:per_thread_data.obj
 0001:00018b3e       ??0?$__crt_unique_heap_ptr@U__vcrt_ptd@@U__crt_internal_free_policy@@@@QAE@QAU__vcrt_ptd@@@Z 10019b3e f i libvcruntime:per_thread_data.obj
 0001:00018b5b       ??1?$__crt_unique_heap_ptr@U__vcrt_ptd@@U__crt_internal_free_policy@@@@QAE@XZ 10019b5b f i libvcruntime:per_thread_data.obj
 0001:00018b74       ??B?$__crt_unique_heap_ptr@U__vcrt_ptd@@U__crt_internal_free_policy@@@@QBE_NXZ 10019b74 f i libvcruntime:per_thread_data.obj
 0001:00018b7b       ?detach@?$__crt_unique_heap_ptr@U__vcrt_ptd@@U__crt_internal_free_policy@@@@QAEPAU__vcrt_ptd@@XZ 10019b7b f i libvcruntime:per_thread_data.obj
 0001:00018b81       ?get@?$__crt_unique_heap_ptr@U__vcrt_ptd@@U__crt_internal_free_policy@@@@QBEPAU__vcrt_ptd@@XZ 10019b81 f i libvcruntime:per_thread_data.obj
 0001:00018b84       ?is_valid@?$__crt_unique_heap_ptr@U__vcrt_ptd@@U__crt_internal_free_policy@@@@QBE_NXZ 10019b84 f i libvcruntime:per_thread_data.obj
 0001:00018b8b       ?release@?$__crt_unique_heap_ptr@U__vcrt_ptd@@U__crt_internal_free_policy@@@@QAEXXZ 10019b8b f i libvcruntime:per_thread_data.obj
 0001:00018bb5       ___vcrt_freefls@4          10019bb5 f   libvcruntime:per_thread_data.obj
 0001:00018bd1       ___vcrt_freeptd_for_this_thread 10019bd1 f   libvcruntime:per_thread_data.obj
 0001:00018bfc       ___vcrt_getptd             10019bfc f   libvcruntime:per_thread_data.obj
 0001:00018c0a       ___vcrt_getptd_noexit      10019c0a f   libvcruntime:per_thread_data.obj
 0001:00018c9c       ___vcrt_getptd_noinit      10019c9c f   libvcruntime:per_thread_data.obj
 0001:00018cd3       ___vcrt_initialize_ptd     10019cd3 f   libvcruntime:per_thread_data.obj
 0001:00018d06       ___vcrt_uninitialize_ptd   10019d06 f   libvcruntime:per_thread_data.obj
 0001:00018d21       ___vcrt_initialize_locks   10019d21 f   libvcruntime:locks.obj
 0001:00018d5d       ___vcrt_lock               10019d5d f   libvcruntime:locks.obj
 0001:00018d72       ___vcrt_uninitialize_locks 10019d72 f   libvcruntime:locks.obj
 0001:00018da1       ___vcrt_unlock             10019da1 f   libvcruntime:locks.obj
 0001:00018dc0       __global_unwind2           10019dc0 f   libvcruntime:exsup.obj
 0001:00018e40       __local_unwind2            10019e40 f   libvcruntime:exsup.obj
 0001:00018ee0       __abnormal_termination     10019ee0 f   libvcruntime:exsup.obj
 0001:00018f10       __NLG_Notify1              10019f10 f   libvcruntime:exsup.obj
 0001:00018f20       __NLG_Notify               10019f20 f   libvcruntime:exsup.obj
 0001:00018f37       __NLG_Dispatch             10019f37     libvcruntime:exsup.obj
 0001:00018f37       __NLG_Dispatch2            10019f37     libvcruntime:exsup.obj
 0001:00018f40       __NLG_Call                 10019f40 f   libvcruntime:exsup.obj
 0001:00018f42       __NLG_Return2              10019f42     libvcruntime:exsup.obj
 0001:00018f43       ??$__crt_interlocked_exchange_pointer@$$A6AXXZP6AXXZ@@YAP6AXXZPDS6AXXZQ6AXXZ@Z 10019f43 f i libvcruntime:purevirt.obj
 0001:00018f50       ??$__crt_interlocked_read_pointer@$$A6AXXZ@@YAP6AXXZPDS6AXXZ@Z 10019f50 f i libvcruntime:purevirt.obj
 0001:00018f5b       __get_purecall_handler     10019f5b f   libvcruntime:purevirt.obj
 0001:00018f62       __purecall                 10019f62 f   libvcruntime:purevirt.obj
 0001:00018f7e       __set_purecall_handler     10019f7e f   libvcruntime:purevirt.obj
 0001:00018f8d       ??$?0AAViterator@TryBlockMap@__FrameHandler3@@AAV012@$0A@@?$pair@Viterator@TryBlockMap@__FrameHandler3@@V123@@std@@QAE@AAViterator@TryBlockMap@__FrameHandler3@@0@Z 10019f8d f i libvcruntime:trnsctrl.obj
 0001:00018fb1       ??$forward@AAViterator@TryBlockMap@__FrameHandler3@@@std@@YAAAViterator@TryBlockMap@__FrameHandler3@@AAV123@@Z 10019fb1 f i libvcruntime:trnsctrl.obj
 0001:00018fb9       ??0iterator@TryBlockMap@__FrameHandler3@@QAE@AAV12@I@Z 10019fb9 f i libvcruntime:trnsctrl.obj
 0001:00018fcd       ?GetRangeOfTrysToCheck@__FrameHandler3@@SA?AU?$pair@Viterator@TryBlockMap@__FrameHandler3@@V123@@std@@AAVTryBlockMap@1@HPAXPBU_s_FuncInfo@@H@Z 10019fcd f   libvcruntime:trnsctrl.obj
 0001:0001903c       ?_CallCatchBlock2@@YAPAXPAUEHRegistrationNode@@PBU_s_FuncInfo@@PAXHK@Z 1001a03c f   libvcruntime:trnsctrl.obj
 0001:00019099       ?_CallSETranslator@@YAHPAUEHExceptionRecord@@PAUEHRegistrationNode@@PAX2PBU_s_FuncInfo@@H1@Z 1001a099 f   libvcruntime:trnsctrl.obj
 0001:00019189       ?_JumpToContinuation@@YGXPAXPAUEHRegistrationNode@@@Z 1001a189 f   libvcruntime:trnsctrl.obj
 0001:000191b9       ?_UnwindNestedFrames@@YGXPAUEHRegistrationNode@@PAUEHExceptionRecord@@@Z 1001a1b9 f   libvcruntime:trnsctrl.obj
 0001:0001920c       __CatchGuardHandler        1001a20c f   libvcruntime:trnsctrl.obj
 0001:0001923d       __CreateFrameInfo          1001a23d f   libvcruntime:trnsctrl.obj
 0001:00019261       __FindAndUnlinkFrame       1001a261 f   libvcruntime:trnsctrl.obj
 0001:000192a9       __TranslatorGuardHandler   1001a2a9 f   libvcruntime:trnsctrl.obj
 0001:00019346       ___CxxFrameHandler         1001a346 f   libvcruntime:trnsctrl.obj
 0001:0001937c       ___CxxFrameHandler2        1001a37c f   libvcruntime:trnsctrl.obj
 0001:000193b2       ___CxxFrameHandler3        1001a3b2 f   libvcruntime:trnsctrl.obj
 0001:000193e8       ___CxxLongjmpUnwind@4      1001a3e8 f   libvcruntime:trnsctrl.obj
 0001:00019410       _memcpy                    1001a410 f   libvcruntime:memcpy.obj
 0001:00019984       ??$__crt_interlocked_exchange_pointer@UHINSTANCE__@@PAU1@@@YAPAUHINSTANCE__@@PDSAU0@QAU0@@Z 1001a984 f i libvcruntime:winapi_downlevel.obj
 0001:00019991       ??$__crt_interlocked_exchange_pointer@UHINSTANCE__@@PAX@@YAPAUHINSTANCE__@@PDSAU0@QAX@Z 1001a991 f i libvcruntime:winapi_downlevel.obj
 0001:0001999e       ??$__crt_interlocked_exchange_pointer@XPAX@@YAPAXPDSAXQAX@Z 1001a99e f i libvcruntime:winapi_downlevel.obj
 0001:000199ab       ??$__crt_interlocked_read_pointer@UHINSTANCE__@@@@YAPAUHINSTANCE__@@PDSAU0@@Z 1001a9ab f i libvcruntime:winapi_downlevel.obj
 0001:000199b6       ??$__crt_interlocked_read_pointer@X@@YAPAXPDSAX@Z 1001a9b6 f i libvcruntime:winapi_downlevel.obj
 0001:00019c42       ___vcrt_FlsAlloc           1001ac42 f   libvcruntime:winapi_downlevel.obj
 0001:00019c7d       ___vcrt_FlsFree            1001ac7d f   libvcruntime:winapi_downlevel.obj
 0001:00019cb8       ___vcrt_FlsGetValue        1001acb8 f   libvcruntime:winapi_downlevel.obj
 0001:00019cf3       ___vcrt_FlsSetValue        1001acf3 f   libvcruntime:winapi_downlevel.obj
 0001:00019d31       ___vcrt_InitializeCriticalSectionEx 1001ad31 f   libvcruntime:winapi_downlevel.obj
 0001:0001a4aa       ??$TypeMatchHelper@V__FrameHandler3@@@@YAHPBU_s_HandlerType@@PBU_s_CatchableType@@PBU_s_ThrowInfo@@@Z 1001b4aa f i libvcruntime:frame.obj
 0001:0001a538       ??$__InternalCxxFrameHandler@V__FrameHandler3@@@@YA?AW4_EXCEPTION_DISPOSITION@@PAUEHExceptionRecord@@PAUEHRegistrationNode@@PAU_CONTEXT@@PAXPBU_s_FuncInfo@@H1E@Z 1001b538 f i libvcruntime:frame.obj
 0001:0001a63a       ??$__InternalCxxFrameHandlerWrapper@V__FrameHandler3@@@@YA?AW4_EXCEPTION_DISPOSITION@@PAUEHExceptionRecord@@PAUEHRegistrationNode@@PAU_CONTEXT@@PAXPBU_s_FuncInfo@@H1E@Z 1001b63a f i libvcruntime:frame.obj
 0001:0001a643       ??0HandlerMap@__FrameHandler3@@QAE@PBU_s_TryBlockMapEntry@@II@Z 1001b643 f i libvcruntime:frame.obj
 0001:0001a65a       ??0TryBlockMap@__FrameHandler3@@QAE@PBU_s_FuncInfo@@I@Z 1001b65a f i libvcruntime:frame.obj
 0001:0001a66e       ??0bad_exception@std@@QAE@ABV01@@Z 1001b66e f i libvcruntime:frame.obj
 0001:0001a689       ??0bad_exception@std@@QAE@XZ 1001b689 f i libvcruntime:frame.obj
 0001:0001a6a1       ??0exception@std@@QAE@ABV01@@Z 1001b6a1 f i libvcruntime:frame.obj
 0001:0001a6cd       ??0exception@std@@QAE@QBDH@Z 1001b6cd f i libvcruntime:frame.obj
 0001:0001a6ea       ??0iterator@HandlerMap@__FrameHandler3@@QAE@AAV12@I@Z 1001b6ea f i libvcruntime:frame.obj
 0001:0001a6fe       ??1bad_exception@std@@UAE@XZ 1001b6fe f i libvcruntime:frame.obj
 0001:0001a70f       ??1exception@std@@UAE@XZ   1001b70f f i libvcruntime:frame.obj
 0001:0001a720       ??8iterator@HandlerMap@__FrameHandler3@@QBE_NABV012@@Z 1001b720 f i libvcruntime:frame.obj
 0001:0001a733       ??8type_info@@QBE_NABV0@@Z 1001b733 f i libvcruntime:frame.obj
 0001:0001a752       ??9iterator@HandlerMap@__FrameHandler3@@QBE_NABV012@@Z 1001b752 f i libvcruntime:frame.obj
 0001:0001a765       ??Diterator@HandlerMap@__FrameHandler3@@QAE?BU_s_HandlerType@@XZ 1001b765 f i libvcruntime:frame.obj
 0001:0001a784       ??Diterator@TryBlockMap@__FrameHandler3@@QAE?BU_s_TryBlockMapEntry@@XZ 1001b784 f i libvcruntime:frame.obj
 0001:0001a7a6       ??Eiterator@HandlerMap@__FrameHandler3@@QAEAAV012@XZ 1001b7a6 f i libvcruntime:frame.obj
 0001:0001a7ac       ??Eiterator@TryBlockMap@__FrameHandler3@@QAEAAV012@XZ 1001b7ac f i libvcruntime:frame.obj
 0001:0001a7b2       ??Miterator@TryBlockMap@__FrameHandler3@@QBE_NABV012@@Z 1001b7b2 f i libvcruntime:frame.obj
 0001:0001a7c5       ??_Ebad_exception@std@@UAEPAXI@Z 1001b7c5 f i libvcruntime:frame.obj
 0001:0001a7c5       ??_Gbad_exception@std@@UAEPAXI@Z 1001b7c5 f i libvcruntime:frame.obj
 0001:0001a7f2       ??_Eexception@std@@UAEPAXI@Z 1001b7f2 f i libvcruntime:frame.obj
 0001:0001a7f2       ??_Gexception@std@@UAEPAXI@Z 1001b7f2 f i libvcruntime:frame.obj
 0001:0001a81f       ?BuildCatchObject@__FrameHandler3@@SAXPAUEHExceptionRecord@@PAXPBU_s_HandlerType@@PBU_s_CatchableType@@@Z 1001b81f f   libvcruntime:frame.obj
 0001:0001a824       ?BuildCatchObjectHelper@__FrameHandler3@@SAHPAUEHExceptionRecord@@PAXPBU_s_HandlerType@@PBU_s_CatchableType@@@Z 1001b824 f   libvcruntime:frame.obj
 0001:0001aa85       ?FrameUnwindToEmptyState@__FrameHandler3@@SAXPAUEHRegistrationNode@@PAXPBU_s_FuncInfo@@@Z 1001ba85 f   libvcruntime:frame.obj
 0001:0001aa9d       ?FrameUnwindToState@__FrameHandler3@@SAXPAUEHRegistrationNode@@PAXPBU_s_FuncInfo@@H@Z 1001ba9d f   libvcruntime:frame.obj
 0001:0001ab85       ?GetMaxState@__FrameHandler3@@SAHPAXPBU_s_FuncInfo@@@Z 1001bb85 f i libvcruntime:frame.obj
 0001:0001ac63       ?TypeMatch@__FrameHandler3@@SAHPBU_s_HandlerType@@PBU_s_CatchableType@@PBU_s_ThrowInfo@@@Z 1001bc63 f   libvcruntime:frame.obj
 0001:0001ac6c       ?_CallMemberFunction1@@YGXQAX00@Z 1001bc6c f i libvcruntime:frame.obj
 0001:0001ac7c       ?_CallMemberFunction2@@YGXQAX00H@Z 1001bc7c f i libvcruntime:frame.obj
 0001:0001ac8f       ?begin@HandlerMap@__FrameHandler3@@QAE?AViterator@12@XZ 1001bc8f f i libvcruntime:frame.obj
 0001:0001ac9f       ?end@HandlerMap@__FrameHandler3@@QAE?AViterator@12@XZ 1001bc9f f i libvcruntime:frame.obj
 0001:0001acb0       ?getESTypes@__FrameHandler3@@SAPBU_s_ESTypeList@@PBU_s_FuncInfo@@@Z 1001bcb0 f i libvcruntime:frame.obj
 0001:0001acbb       ?getLastEntry@HandlerMap@__FrameHandler3@@QAEPBU_s_HandlerType@@XZ 1001bcbb f i libvcruntime:frame.obj
 0001:0001acc9       ?getMagicNum@__FrameHandler3@@SAIPBU_s_FuncInfo@@@Z 1001bcc9 f i libvcruntime:frame.obj
 0001:0001acd8       ?getNumTryBlocks@TryBlockMap@__FrameHandler3@@QAEIXZ 1001bcd8 f i libvcruntime:frame.obj
 0001:0001acde       ?isEHs@__FrameHandler3@@SA_NPBU_s_FuncInfo@@@Z 1001bcde f i libvcruntime:frame.obj
 0001:0001aceb       ?isNoExcept@__FrameHandler3@@SA_NPBU_s_FuncInfo@@@Z 1001bceb f i libvcruntime:frame.obj
 0001:0001acfb       ?what@exception@std@@UBEPBDXZ 1001bcfb f i libvcruntime:frame.obj
 0001:0001ad08       ___BuildCatchObject        1001bd08 f   libvcruntime:frame.obj
 0001:0001ad0d       ___BuildCatchObjectHelper  1001bd0d f   libvcruntime:frame.obj
 0001:0001ad16       ___TypeMatch               1001bd16 f   libvcruntime:frame.obj
 0001:0001ad1f       ___vcrt_EncodePointer      1001bd1f f i libvcruntime:frame.obj
 0001:0001ad30       __CallSettingFrame@12      1001bd30 f   libvcruntime:lowhelpr.obj
 0001:0001ad57       __NLG_Return               1001bd57     libvcruntime:lowhelpr.obj
 0001:0001ad90       __get_unexpected           1001bd90 f   libvcruntime:unexpected.obj
 0001:0001ada2       _set_unexpected            1001bda2 f   libvcruntime:unexpected.obj
 0001:0001adc0       _unexpected                1001bdc0 f   libvcruntime:unexpected.obj
 0001:0001addd       ?GetCurrentState@__FrameHandler3@@SAHPAUEHRegistrationNode@@PAXPBU_s_FuncInfo@@@Z 1001bddd f   libvcruntime:ehstate.obj
 0001:0001adfa       ?SetState@__FrameHandler3@@SAXPAUEHRegistrationNode@@PBU_s_FuncInfo@@H@Z 1001bdfa f   libvcruntime:ehstate.obj
 0001:0001ae08       ??$?RD@__crt_public_free_policy@@QBEXQBD@Z 1001be08 f i libvcruntime:std_exception.obj
 0001:0001ae18       ??0?$__crt_unique_heap_ptr@DU__crt_public_free_policy@@@@QAE@QAD@Z 1001be18 f i libvcruntime:std_exception.obj
 0001:0001ae26       ??1?$__crt_unique_heap_ptr@DU__crt_public_free_policy@@@@QAE@XZ 1001be26 f i libvcruntime:std_exception.obj
 0001:0001ae36       ??B?$__crt_unique_heap_ptr@DU__crt_public_free_policy@@@@QBE_NXZ 1001be36 f i libvcruntime:std_exception.obj
 0001:0001ae3d       ?detach@?$__crt_unique_heap_ptr@DU__crt_public_free_policy@@@@QAEPADXZ 1001be3d f i libvcruntime:std_exception.obj
 0001:0001ae43       ?get@?$__crt_unique_heap_ptr@DU__crt_public_free_policy@@@@QBEPADXZ 1001be43 f i libvcruntime:std_exception.obj
 0001:0001ae46       ?is_valid@?$__crt_unique_heap_ptr@DU__crt_public_free_policy@@@@QBE_NXZ 1001be46 f i libvcruntime:std_exception.obj
 0001:0001ae4d       ?release@?$__crt_unique_heap_ptr@DU__crt_public_free_policy@@@@QAEXXZ 1001be4d f i libvcruntime:std_exception.obj
 0001:0001ae5d       ___std_exception_copy      1001be5d f   libvcruntime:std_exception.obj
 0001:0001aec0       ___std_exception_destroy   1001bec0 f   libvcruntime:std_exception.obj
 0001:0001aedf       __CxxThrowException@8      1001bedf f   libvcruntime:throw.obj
 0001:0001af50       _memmove                   1001bf50 f   libvcruntime:memmove.obj
 0001:0001b7da       ??0?$cached@H@__crt_cached_ptd_host@@QAE@XZ 1001c7da f i libucrt:lseek.obj
 0001:0001b7e1       ??0?$cached@K@__crt_cached_ptd_host@@QAE@XZ 1001c7e1 f i libucrt:lseek.obj
 0001:0001b7e8       ??0__crt_cached_ptd_host@@QAE@QAU__crt_locale_pointers@@@Z 1001c7e8 f i libucrt:lseek.obj
 0001:0001b830       ??0__crt_scoped_get_last_error_reset@@QAE@XZ 1001c830 f i libucrt:lseek.obj
 0001:0001b841       ??1__crt_cached_ptd_host@@QAE@XZ 1001c841 f i libucrt:lseek.obj
 0001:0001b87d       ??1__crt_scoped_get_last_error_reset@@QAE@XZ 1001c87d f i libucrt:lseek.obj
 0001:0001b886       ?check_synchronize_global_state_index@__crt_cached_ptd_host@@AAEIABV__crt_scoped_get_last_error_reset@@@Z 1001c886 f i libucrt:lseek.obj
 0001:0001b89e       ?check_synchronize_per_thread_data@__crt_cached_ptd_host@@AAEPAU__acrt_ptd@@XZ 1001c89e f i libucrt:lseek.obj
 0001:0001b985       ?force_synchronize_global_state_index@__crt_cached_ptd_host@@AAEIABV__crt_scoped_get_last_error_reset@@@Z 1001c985 f i libucrt:lseek.obj
 0001:0001b992       ?force_synchronize_per_thread_data@__crt_cached_ptd_host@@AAEPAU__acrt_ptd@@XZ 1001c992 f i libucrt:lseek.obj
 0001:0001b9d8       ?get_current_state_index@__crt_state_management@@YAIABV__crt_scoped_get_last_error_reset@@@Z 1001c9d8 f i libucrt:lseek.obj
 0001:0001b9db       ?get_doserrno@__crt_cached_ptd_host@@QAE@XZ 1001c9db f i libucrt:lseek.obj
 0001:0001b9df       ?get_errno@__crt_cached_ptd_host@@QAE@XZ 1001c9df f i libucrt:lseek.obj
 0001:0001b9e3       ?get_raw_ptd@__crt_cached_ptd_host@@QAEPAU__acrt_ptd@@XZ 1001c9e3 f i libucrt:lseek.obj
 0001:0001ba00       ?set@?$cached@H@__crt_cached_ptd_host@@QAEHH@Z 1001ca00 f i libucrt:lseek.obj
 0001:0001ba12       ?set@?$cached@K@__crt_cached_ptd_host@@QAEKK@Z 1001ca12 f i libucrt:lseek.obj
 0001:0001ba24       ?unsafe_value@?$cached@H@__crt_cached_ptd_host@@QAEHXZ 1001ca24 f i libucrt:lseek.obj
 0001:0001ba27       ?unsafe_value@?$cached@K@__crt_cached_ptd_host@@QAEKXZ 1001ca27 f i libucrt:lseek.obj
 0001:0001ba2a       ?valid@?$cached@H@__crt_cached_ptd_host@@QBE_NXZ 1001ca2a f i libucrt:lseek.obj
 0001:0001ba2e       ?valid@?$cached@K@__crt_cached_ptd_host@@QBE_NXZ 1001ca2e f i libucrt:lseek.obj
 0001:0001ba32       ___acrt_enable_global_locale_sync 1001ca32 f i libucrt:lseek.obj
 0001:0001ba47       ___acrt_locale_changed     1001ca47 f i libucrt:lseek.obj
 0001:0001ba52       __lseek                    1001ca52 f   libucrt:lseek.obj
 0001:0001ba89       __lseek_internal           1001ca89 f   libucrt:lseek.obj
 0001:0001ba94       __lseek_nolock             1001ca94 f   libucrt:lseek.obj
 0001:0001bacb       __lseek_nolock_internal    1001cacb f   libucrt:lseek.obj
 0001:0001bad6       __lseeki64                 1001cad6 f   libucrt:lseek.obj
 0001:0001bb16       __lseeki64_internal        1001cb16 f   libucrt:lseek.obj
 0001:0001bb34       __lseeki64_nolock          1001cb34 f   libucrt:lseek.obj
 0001:0001bb74       __lseeki64_nolock_internal 1001cb74 f   libucrt:lseek.obj
 0001:0001bb92       ??$__acrt_convert_wcs_mbs_cp@D_WV<lambda_62f6974d9771e494a5ea317cc32e971c>@@U__crt_win32_buffer_internal_dynamic_resizing@@@@YAHQBDAAV?$__crt_win32_buffer@_WU__crt_win32_buffer_internal_dynamic_resizing@@@@ABV<lambda_62f6974d9771e494a5ea317cc32e971c>@@I@Z 1001cb92 f i libucrt:open.obj
 0001:0001bc44       ??$__acrt_mbs_to_wcs_cp@U__crt_win32_buffer_internal_dynamic_resizing@@@@YAHQBDAAV?$__crt_win32_buffer@_WU__crt_win32_buffer_internal_dynamic_resizing@@@@I@Z 1001cc44 f i libucrt:open.obj
 0001:0001bfb9       ??$tsopen_nolock@PAHABQAHABQBDABHABHABHABH@?$__crt_char_traits@D@@SAH$$QAPAHABQAHABQBDABH333@Z 1001cfb9 f i libucrt:open.obj
 0001:0001bfeb       ??$tsopen_nolock@PAHABQAHABQB_WABHABHABHABH@?$__crt_char_traits@_W@@SAH$$QAPAHABQAHABQB_WABH333@Z 1001cfeb f i libucrt:open.obj
 0001:0001c01d       ??$tsopen_nolock@PAHPAHABQBDABHHABHH@?$__crt_char_traits@D@@SAH$$QAPAH0ABQBDABH$$QAH23@Z 1001d01d f i libucrt:open.obj
 0001:0001c04f       ??$tsopen_nolock@PAHPAHABQB_WABHHABHH@?$__crt_char_traits@_W@@SAH$$QAPAH0ABQB_WABH$$QAH23@Z 1001d04f f i libucrt:open.obj
 0001:0001c081       ??0?$__crt_win32_buffer@_WU__crt_win32_buffer_internal_dynamic_resizing@@@@QAE@XZ 1001d081 f i libucrt:open.obj
 0001:0001c097       ??0_LocaleUpdate@@QAE@QAU__crt_locale_pointers@@@Z 1001d097 f i libucrt:open.obj
 0001:0001c119       ??1?$__crt_win32_buffer@_WU__crt_win32_buffer_internal_dynamic_resizing@@@@QAE@XZ 1001d119 f i libucrt:open.obj
 0001:0001c11e       ??1_LocaleUpdate@@QAE@XZ   1001d11e f i libucrt:open.obj
 0001:0001c12e       ??R<lambda_62f6974d9771e494a5ea317cc32e971c>@@QBE@IQBDQA_WI@Z 1001d12e f i libucrt:open.obj
 0001:0001c14f       ?GetLocaleT@_LocaleUpdate@@QAEPAU__crt_locale_pointers@@XZ 1001d14f f i libucrt:open.obj
 0001:0001c153       ?__acrt_get_utf8_acp_compatibility_codepage@@YAIXZ 1001d153 f i libucrt:open.obj
 0001:0001c192       ?_deallocate@?$__crt_win32_buffer@_WU__crt_win32_buffer_internal_dynamic_resizing@@@@AAEXXZ 1001d192 f i libucrt:open.obj
 0001:0001c1ac       ?allocate@?$__crt_win32_buffer@_WU__crt_win32_buffer_internal_dynamic_resizing@@@@QAEHI@Z 1001d1ac f i libucrt:open.obj
 0001:0001c1eb       ?allocate@__crt_win32_buffer_internal_dynamic_resizing@@SAHQAPAXIABV__crt_win32_buffer_empty_debug_info@@@Z 1001d1eb f i libucrt:open.obj
 0001:0001c20a       ?capacity@?$__crt_win32_buffer@_WU__crt_win32_buffer_internal_dynamic_resizing@@@@QBEIXZ 1001d20a f i libucrt:open.obj
 0001:0001c489       ?data@?$__crt_win32_buffer@_WU__crt_win32_buffer_internal_dynamic_resizing@@@@QAEPA_WXZ 1001d489 f i libucrt:open.obj
 0001:0001c48d       ?deallocate@__crt_win32_buffer_internal_dynamic_resizing@@SAXQAXABV__crt_win32_buffer_empty_debug_info@@@Z 1001d48d f i libucrt:open.obj
 0001:0001c49d       ?debug_info@?$__crt_win32_buffer@_WU__crt_win32_buffer_internal_dynamic_resizing@@@@QBEABV__crt_win32_buffer_empty_debug_info@@XZ 1001d49d f i libucrt:open.obj
 0001:0001c783       ?set_to_nullptr@?$__crt_win32_buffer@_WU__crt_win32_buffer_internal_dynamic_resizing@@@@QAEXXZ 1001d783 f i libucrt:open.obj
 0001:0001c79a       ?size@?$__crt_win32_buffer@_WU__crt_win32_buffer_internal_dynamic_resizing@@@@QAEXI@Z 1001d79a f i libucrt:open.obj
 0001:0001c853       ___acrt_disable_global_locale_sync 1001d853 f i libucrt:open.obj
 0001:0001c866       __invoke_watson_if_error   1001d866 f i libucrt:open.obj
 0001:0001c888       __open                     1001d888 f   libucrt:open.obj
 0001:0001c8a0       __sopen                    1001d8a0 f   libucrt:open.obj
 0001:0001c8d3       __sopen_dispatch           1001d8d3 f   libucrt:open.obj
 0001:0001c8de       __sopen_nolock             1001d8de f   libucrt:open.obj
 0001:0001c94c       __sopen_s                  1001d94c f   libucrt:open.obj
 0001:0001c96c       __wopen                    1001d96c f   libucrt:open.obj
 0001:0001c984       __wsopen                   1001d984 f   libucrt:open.obj
 0001:0001c9b7       __wsopen_dispatch          1001d9b7 f   libucrt:open.obj
 0001:0001c9c2       __wsopen_nolock            1001d9c2 f   libucrt:open.obj
 0001:0001ccec       __wsopen_s                 1001dcec f   libucrt:open.obj
 0001:0001d088       ?get_locale@__crt_cached_ptd_host@@QAEPAU__crt_locale_pointers@@XZ 1001e088 f i libucrt:wcstombs.obj
 0001:0001d09d       ?update_locale@__crt_cached_ptd_host@@AAEXXZ 1001e09d f i libucrt:wcstombs.obj
 0001:0001d0a8       ?update_locale_slow@__crt_cached_ptd_host@@AAEXXZ 1001e0a8 f i libucrt:wcstombs.obj
 0001:0001d101       ?value_or@?$cached@H@__crt_cached_ptd_host@@QBEHH@Z 1001e101 f i libucrt:wcstombs.obj
 0001:0001d142       __wcstombs_l               1001e142 f   libucrt:wcstombs.obj
 0001:0001d17a       __wcstombs_s_l             1001e17a f   libucrt:wcstombs.obj
 0001:0001d1b8       _wcstombs                  1001e1b8 f   libucrt:wcstombs.obj
 0001:0001d1ef       _wcstombs_s                1001e1ef f   libucrt:wcstombs.obj
 0001:0001d22c       ??$?0ABV?$stream_output_adapter@D@__crt_stdio_output@@AB_KABQBDAAV__crt_cached_ptd_host@@ABQAD@?$format_validation_base@DV?$stream_output_adapter@D@__crt_stdio_output@@@__crt_stdio_output@@IAE@ABV?$stream_output_adapter@D@1@AB_KABQBDAAV__crt_cached_ptd_host@@ABQAD@Z 1001e22c f i libucrt:output.obj
 0001:0001d24f       ??$?0ABV?$stream_output_adapter@D@__crt_stdio_output@@AB_KABQBDAAV__crt_cached_ptd_host@@ABQAD@?$positional_parameter_base@DV?$stream_output_adapter@D@__crt_stdio_output@@@__crt_stdio_output@@IAE@ABV?$stream_output_adapter@D@1@AB_KABQBDAAV__crt_cached_ptd_host@@ABQAD@Z 1001e24f f i libucrt:output.obj
 0001:0001d297       ??$?0ABV?$stream_output_adapter@D@__crt_stdio_output@@AB_KABQBDAAV__crt_cached_ptd_host@@ABQAD@?$standard_base@DV?$stream_output_adapter@D@__crt_stdio_output@@@__crt_stdio_output@@IAE@ABV?$stream_output_adapter@D@1@AB_KABQBDAAV__crt_cached_ptd_host@@ABQAD@Z 1001e297 f i libucrt:output.obj
 0001:0001d2ca       ??$?0ABV?$stream_output_adapter@_W@__crt_stdio_output@@AB_KABQB_WAAV__crt_cached_ptd_host@@ABQAD@?$format_validation_base@_WV?$stream_output_adapter@_W@__crt_stdio_output@@@__crt_stdio_output@@IAE@ABV?$stream_output_adapter@_W@1@AB_KABQB_WAAV__crt_cached_ptd_host@@ABQAD@Z 1001e2ca f i libucrt:output.obj
 0001:0001d2ed       ??$?0ABV?$stream_output_adapter@_W@__crt_stdio_output@@AB_KABQB_WAAV__crt_cached_ptd_host@@ABQAD@?$positional_parameter_base@_WV?$stream_output_adapter@_W@__crt_stdio_output@@@__crt_stdio_output@@IAE@ABV?$stream_output_adapter@_W@1@AB_KABQB_WAAV__crt_cached_ptd_host@@ABQAD@Z 1001e2ed f i libucrt:output.obj
 0001:0001d335       ??$?0ABV?$stream_output_adapter@_W@__crt_stdio_output@@AB_KABQB_WAAV__crt_cached_ptd_host@@ABQAD@?$standard_base@_WV?$stream_output_adapter@_W@__crt_stdio_output@@@__crt_stdio_output@@IAE@ABV?$stream_output_adapter@_W@1@AB_KABQB_WAAV__crt_cached_ptd_host@@ABQAD@Z 1001e335 f i libucrt:output.obj
 0001:0001d368       ??$?0ABV?$string_output_adapter@D@__crt_stdio_output@@AB_KABQBDAAV__crt_cached_ptd_host@@ABQAD@?$format_validation_base@DV?$string_output_adapter@D@__crt_stdio_output@@@__crt_stdio_output@@IAE@ABV?$string_output_adapter@D@1@AB_KABQBDAAV__crt_cached_ptd_host@@ABQAD@Z 1001e368 f i libucrt:output.obj
 0001:0001d38b       ??$?0ABV?$string_output_adapter@D@__crt_stdio_output@@AB_KABQBDAAV__crt_cached_ptd_host@@ABQAD@?$positional_parameter_base@DV?$string_output_adapter@D@__crt_stdio_output@@@__crt_stdio_output@@IAE@ABV?$string_output_adapter@D@1@AB_KABQBDAAV__crt_cached_ptd_host@@ABQAD@Z 1001e38b f i libucrt:output.obj
 0001:0001d3d3       ??$?0ABV?$string_output_adapter@D@__crt_stdio_output@@AB_KABQBDAAV__crt_cached_ptd_host@@ABQAD@?$standard_base@DV?$string_output_adapter@D@__crt_stdio_output@@@__crt_stdio_output@@IAE@ABV?$string_output_adapter@D@1@AB_KABQBDAAV__crt_cached_ptd_host@@ABQAD@Z 1001e3d3 f i libucrt:output.obj
 0001:0001d406       ??$?0ABV?$string_output_adapter@_W@__crt_stdio_output@@AB_KABQB_WAAV__crt_cached_ptd_host@@ABQAD@?$format_validation_base@_WV?$string_output_adapter@_W@__crt_stdio_output@@@__crt_stdio_output@@IAE@ABV?$string_output_adapter@_W@1@AB_KABQB_WAAV__crt_cached_ptd_host@@ABQAD@Z 1001e406 f i libucrt:output.obj
 0001:0001d429       ??$?0ABV?$string_output_adapter@_W@__crt_stdio_output@@AB_KABQB_WAAV__crt_cached_ptd_host@@ABQAD@?$positional_parameter_base@_WV?$string_output_adapter@_W@__crt_stdio_output@@@__crt_stdio_output@@IAE@ABV?$string_output_adapter@_W@1@AB_KABQB_WAAV__crt_cached_ptd_host@@ABQAD@Z 1001e429 f i libucrt:output.obj
 0001:0001d471       ??$?0ABV?$string_output_adapter@_W@__crt_stdio_output@@AB_KABQB_WAAV__crt_cached_ptd_host@@ABQAD@?$standard_base@_WV?$string_output_adapter@_W@__crt_stdio_output@@@__crt_stdio_output@@IAE@ABV?$string_output_adapter@_W@1@AB_KABQB_WAAV__crt_cached_ptd_host@@ABQAD@Z 1001e471 f i libucrt:output.obj
 0001:0001d7aa       ??$__crt_interlocked_read@J@@YAJPDJ@Z 1001e7aa f i libucrt:output.obj
 0001:0001d7b7       ??$_tcstol_internal@DPAPAD$0A@@@YAJAAV__crt_cached_ptd_host@@QBDQAPADH@Z 1001e7b7 f i libucrt:output.obj
 0001:0001d7e2       ??$_tcstol_internal@_WPAPA_W$0A@@@YAJAAV__crt_cached_ptd_host@@QB_WQAPA_WH@Z 1001e7e2 f i libucrt:output.obj
 0001:0001e73c       ??$count@D@formatting_buffer@__crt_stdio_output@@QBEIXZ 1001f73c f i libucrt:output.obj
 0001:0001e754       ??$count@_W@formatting_buffer@__crt_stdio_output@@QBEIXZ 1001f754 f i libucrt:output.obj
 0001:0001e76d       ??$data@D@formatting_buffer@__crt_stdio_output@@QAEPADXZ 1001f76d f i libucrt:output.obj
 0001:0001e77a       ??$data@_W@formatting_buffer@__crt_stdio_output@@QAEPA_WXZ 1001f77a f i libucrt:output.obj
 0001:0001e787       ??$ensure_buffer_is_big_enough@D@formatting_buffer@__crt_stdio_output@@QAE_NIAAV__crt_cached_ptd_host@@@Z 1001f787 f i libucrt:output.obj
 0001:0001e808       ??$ensure_buffer_is_big_enough@_W@formatting_buffer@__crt_stdio_output@@QAE_NIAAV__crt_cached_ptd_host@@@Z 1001f808 f i libucrt:output.obj
 0001:0001e88a       ??$extract_argument_from_va_list@C_J@?$positional_parameter_base@DV?$stream_output_adapter@D@__crt_stdio_output@@@__crt_stdio_output@@IAE_NAA_J@Z 1001f88a f i libucrt:output.obj
 0001:0001e919       ??$extract_argument_from_va_list@C_J@?$positional_parameter_base@DV?$string_output_adapter@D@__crt_stdio_output@@@__crt_stdio_output@@IAE_NAA_J@Z 1001f919 f i libucrt:output.obj
 0001:0001e9a8       ??$extract_argument_from_va_list@C_J@?$positional_parameter_base@_WV?$stream_output_adapter@_W@__crt_stdio_output@@@__crt_stdio_output@@IAE_NAA_J@Z 1001f9a8 f i libucrt:output.obj
 0001:0001ea38       ??$extract_argument_from_va_list@C_J@?$positional_parameter_base@_WV?$string_output_adapter@_W@__crt_stdio_output@@@__crt_stdio_output@@IAE_NAA_J@Z 1001fa38 f i libucrt:output.obj
 0001:0001eac8       ??$extract_argument_from_va_list@C_J@?$standard_base@DV?$stream_output_adapter@D@__crt_stdio_output@@@__crt_stdio_output@@IAE_NAA_J@Z 1001fac8 f i libucrt:output.obj
 0001:0001eae8       ??$extract_argument_from_va_list@C_J@?$standard_base@DV?$string_output_adapter@D@__crt_stdio_output@@@__crt_stdio_output@@IAE_NAA_J@Z 1001fae8 f i libucrt:output.obj
 0001:0001eb08       ??$extract_argument_from_va_list@C_J@?$standard_base@_WV?$stream_output_adapter@_W@__crt_stdio_output@@@__crt_stdio_output@@IAE_NAA_J@Z 1001fb08 f i libucrt:output.obj
 0001:0001eb28       ??$extract_argument_from_va_list@C_J@?$standard_base@_WV?$string_output_adapter@_W@__crt_stdio_output@@@__crt_stdio_output@@IAE_NAA_J@Z 1001fb28 f i libucrt:output.obj
 0001:0001eb48       ??$extract_argument_from_va_list@E_J@?$positional_parameter_base@DV?$stream_output_adapter@D@__crt_stdio_output@@@__crt_stdio_output@@IAE_NAA_J@Z 1001fb48 f i libucrt:output.obj
 0001:0001ebd7       ??$extract_argument_from_va_list@E_J@?$positional_parameter_base@DV?$string_output_adapter@D@__crt_stdio_output@@@__crt_stdio_output@@IAE_NAA_J@Z 1001fbd7 f i libucrt:output.obj
 0001:0001ec66       ??$extract_argument_from_va_list@E_J@?$positional_parameter_base@_WV?$stream_output_adapter@_W@__crt_stdio_output@@@__crt_stdio_output@@IAE_NAA_J@Z 1001fc66 f i libucrt:output.obj
 0001:0001ecf6       ??$extract_argument_from_va_list@E_J@?$positional_parameter_base@_WV?$string_output_adapter@_W@__crt_stdio_output@@@__crt_stdio_output@@IAE_NAA_J@Z 1001fcf6 f i libucrt:output.obj
 0001:0001ed86       ??$extract_argument_from_va_list@E_J@?$standard_base@DV?$stream_output_adapter@D@__crt_stdio_output@@@__crt_stdio_output@@IAE_NAA_J@Z 1001fd86 f i libucrt:output.obj
 0001:0001eda6       ??$extract_argument_from_va_list@E_J@?$standard_base@DV?$string_output_adapter@D@__crt_stdio_output@@@__crt_stdio_output@@IAE_NAA_J@Z 1001fda6 f i libucrt:output.obj
 0001:0001edc6       ??$extract_argument_from_va_list@E_J@?$standard_base@_WV?$stream_output_adapter@_W@__crt_stdio_output@@@__crt_stdio_output@@IAE_NAA_J@Z 1001fdc6 f i libucrt:output.obj
 0001:0001ede6       ??$extract_argument_from_va_list@E_J@?$standard_base@_WV?$string_output_adapter@_W@__crt_stdio_output@@@__crt_stdio_output@@IAE_NAA_J@Z 1001fde6 f i libucrt:output.obj
 0001:0001ee06       ??$extract_argument_from_va_list@F_J@?$positional_parameter_base@DV?$stream_output_adapter@D@__crt_stdio_output@@@__crt_stdio_output@@IAE_NAA_J@Z 1001fe06 f i libucrt:output.obj
 0001:0001ee95       ??$extract_argument_from_va_list@F_J@?$positional_parameter_base@DV?$string_output_adapter@D@__crt_stdio_output@@@__crt_stdio_output@@IAE_NAA_J@Z 1001fe95 f i libucrt:output.obj
 0001:0001ef24       ??$extract_argument_from_va_list@F_J@?$positional_parameter_base@_WV?$stream_output_adapter@_W@__crt_stdio_output@@@__crt_stdio_output@@IAE_NAA_J@Z 1001ff24 f i libucrt:output.obj
 0001:0001efb4       ??$extract_argument_from_va_list@F_J@?$positional_parameter_base@_WV?$string_output_adapter@_W@__crt_stdio_output@@@__crt_stdio_output@@IAE_NAA_J@Z 1001ffb4 f i libucrt:output.obj
 0001:0001f044       ??$extract_argument_from_va_list@F_J@?$standard_base@DV?$stream_output_adapter@D@__crt_stdio_output@@@__crt_stdio_output@@IAE_NAA_J@Z 10020044 f i libucrt:output.obj
 0001:0001f064       ??$extract_argument_from_va_list@F_J@?$standard_base@DV?$string_output_adapter@D@__crt_stdio_output@@@__crt_stdio_output@@IAE_NAA_J@Z 10020064 f i libucrt:output.obj
 0001:0001f084       ??$extract_argument_from_va_list@F_J@?$standard_base@_WV?$stream_output_adapter@_W@__crt_stdio_output@@@__crt_stdio_output@@IAE_NAA_J@Z 10020084 f i libucrt:output.obj
 0001:0001f0a4       ??$extract_argument_from_va_list@F_J@?$standard_base@_WV?$string_output_adapter@_W@__crt_stdio_output@@@__crt_stdio_output@@IAE_NAA_J@Z 100200a4 f i libucrt:output.obj
 0001:0001f0c4       ??$extract_argument_from_va_list@GD@?$positional_parameter_base@DV?$stream_output_adapter@D@__crt_stdio_output@@@__crt_stdio_output@@IAE_NAAD@Z 100200c4 f i libucrt:output.obj
 0001:0001f152       ??$extract_argument_from_va_list@GD@?$positional_parameter_base@DV?$string_output_adapter@D@__crt_stdio_output@@@__crt_stdio_output@@IAE_NAAD@Z 10020152 f i libucrt:output.obj
 0001:0001f1e0       ??$extract_argument_from_va_list@GD@?$standard_base@DV?$stream_output_adapter@D@__crt_stdio_output@@@__crt_stdio_output@@IAE_NAAD@Z 100201e0 f i libucrt:output.obj
 0001:0001f1fb       ??$extract_argument_from_va_list@GD@?$standard_base@DV?$string_output_adapter@D@__crt_stdio_output@@@__crt_stdio_output@@IAE_NAAD@Z 100201fb f i libucrt:output.obj
 0001:0001f216       ??$extract_argument_from_va_list@G_J@?$positional_parameter_base@DV?$stream_output_adapter@D@__crt_stdio_output@@@__crt_stdio_output@@IAE_NAA_J@Z 10020216 f i libucrt:output.obj
 0001:0001f2a5       ??$extract_argument_from_va_list@G_J@?$positional_parameter_base@DV?$string_output_adapter@D@__crt_stdio_output@@@__crt_stdio_output@@IAE_NAA_J@Z 100202a5 f i libucrt:output.obj
 0001:0001f334       ??$extract_argument_from_va_list@G_J@?$positional_parameter_base@_WV?$stream_output_adapter@_W@__crt_stdio_output@@@__crt_stdio_output@@IAE_NAA_J@Z 10020334 f i libucrt:output.obj
 0001:0001f3c4       ??$extract_argument_from_va_list@G_J@?$positional_parameter_base@_WV?$string_output_adapter@_W@__crt_stdio_output@@@__crt_stdio_output@@IAE_NAA_J@Z 100203c4 f i libucrt:output.obj
 0001:0001f454       ??$extract_argument_from_va_list@G_J@?$standard_base@DV?$stream_output_adapter@D@__crt_stdio_output@@@__crt_stdio_output@@IAE_NAA_J@Z 10020454 f i libucrt:output.obj
 0001:0001f474       ??$extract_argument_from_va_list@G_J@?$standard_base@DV?$string_output_adapter@D@__crt_stdio_output@@@__crt_stdio_output@@IAE_NAA_J@Z 10020474 f i libucrt:output.obj
 0001:0001f494       ??$extract_argument_from_va_list@G_J@?$standard_base@_WV?$stream_output_adapter@_W@__crt_stdio_output@@@__crt_stdio_output@@IAE_NAA_J@Z 10020494 f i libucrt:output.obj
 0001:0001f4b4       ??$extract_argument_from_va_list@G_J@?$standard_base@_WV?$string_output_adapter@_W@__crt_stdio_output@@@__crt_stdio_output@@IAE_NAA_J@Z 100204b4 f i libucrt:output.obj
 0001:0001f4d4       ??$extract_argument_from_va_list@H_J@?$positional_parameter_base@DV?$stream_output_adapter@D@__crt_stdio_output@@@__crt_stdio_output@@IAE_NAA_J@Z 100204d4 f i libucrt:output.obj
 0001:0001f55d       ??$extract_argument_from_va_list@H_J@?$positional_parameter_base@DV?$string_output_adapter@D@__crt_stdio_output@@@__crt_stdio_output@@IAE_NAA_J@Z 1002055d f i libucrt:output.obj
 0001:0001f5e6       ??$extract_argument_from_va_list@H_J@?$positional_parameter_base@_WV?$stream_output_adapter@_W@__crt_stdio_output@@@__crt_stdio_output@@IAE_NAA_J@Z 100205e6 f i libucrt:output.obj
 0001:0001f670       ??$extract_argument_from_va_list@H_J@?$positional_parameter_base@_WV?$string_output_adapter@_W@__crt_stdio_output@@@__crt_stdio_output@@IAE_NAA_J@Z 10020670 f i libucrt:output.obj
 0001:0001f6fa       ??$extract_argument_from_va_list@H_J@?$standard_base@DV?$stream_output_adapter@D@__crt_stdio_output@@@__crt_stdio_output@@IAE_NAA_J@Z 100206fa f i libucrt:output.obj
 0001:0001f719       ??$extract_argument_from_va_list@H_J@?$standard_base@DV?$string_output_adapter@D@__crt_stdio_output@@@__crt_stdio_output@@IAE_NAA_J@Z 10020719 f i libucrt:output.obj
 0001:0001f738       ??$extract_argument_from_va_list@H_J@?$standard_base@_WV?$stream_output_adapter@_W@__crt_stdio_output@@@__crt_stdio_output@@IAE_NAA_J@Z 10020738 f i libucrt:output.obj
 0001:0001f757       ??$extract_argument_from_va_list@H_J@?$standard_base@_WV?$string_output_adapter@_W@__crt_stdio_output@@@__crt_stdio_output@@IAE_NAA_J@Z 10020757 f i libucrt:output.obj
 0001:0001f776       ??$extract_argument_from_va_list@I_J@?$positional_parameter_base@DV?$stream_output_adapter@D@__crt_stdio_output@@@__crt_stdio_output@@IAE_NAA_J@Z 10020776 f i libucrt:output.obj
 0001:0001f80c       ??$extract_argument_from_va_list@I_J@?$positional_parameter_base@DV?$string_output_adapter@D@__crt_stdio_output@@@__crt_stdio_output@@IAE_NAA_J@Z 1002080c f i libucrt:output.obj
 0001:0001f8a2       ??$extract_argument_from_va_list@I_J@?$positional_parameter_base@_WV?$stream_output_adapter@_W@__crt_stdio_output@@@__crt_stdio_output@@IAE_NAA_J@Z 100208a2 f i libucrt:output.obj
 0001:0001f939       ??$extract_argument_from_va_list@I_J@?$positional_parameter_base@_WV?$string_output_adapter@_W@__crt_stdio_output@@@__crt_stdio_output@@IAE_NAA_J@Z 10020939 f i libucrt:output.obj
 0001:0001f9d0       ??$extract_argument_from_va_list@I_J@?$standard_base@DV?$stream_output_adapter@D@__crt_stdio_output@@@__crt_stdio_output@@IAE_NAA_J@Z 100209d0 f i libucrt:output.obj
 0001:0001f9ef       ??$extract_argument_from_va_list@I_J@?$standard_base@DV?$string_output_adapter@D@__crt_stdio_output@@@__crt_stdio_output@@IAE_NAA_J@Z 100209ef f i libucrt:output.obj
 0001:0001fa0e       ??$extract_argument_from_va_list@I_J@?$standard_base@_WV?$stream_output_adapter@_W@__crt_stdio_output@@@__crt_stdio_output@@IAE_NAA_J@Z 10020a0e f i libucrt:output.obj
 0001:0001fa2d       ??$extract_argument_from_va_list@I_J@?$standard_base@_WV?$string_output_adapter@_W@__crt_stdio_output@@@__crt_stdio_output@@IAE_NAA_J@Z 10020a2d f i libucrt:output.obj
 0001:0001fa4c       ??$extract_argument_from_va_list@PADPAD@?$positional_parameter_base@DV?$stream_output_adapter@D@__crt_stdio_output@@@__crt_stdio_output@@IAE_NAAPAD@Z 10020a4c f i libucrt:output.obj
 0001:0001fada       ??$extract_argument_from_va_list@PADPAD@?$positional_parameter_base@DV?$string_output_adapter@D@__crt_stdio_output@@@__crt_stdio_output@@IAE_NAAPAD@Z 10020ada f i libucrt:output.obj
 0001:0001fb68       ??$extract_argument_from_va_list@PADPAD@?$positional_parameter_base@_WV?$stream_output_adapter@_W@__crt_stdio_output@@@__crt_stdio_output@@IAE_NAAPAD@Z 10020b68 f i libucrt:output.obj
 0001:0001fbf7       ??$extract_argument_from_va_list@PADPAD@?$positional_parameter_base@_WV?$string_output_adapter@_W@__crt_stdio_output@@@__crt_stdio_output@@IAE_NAAPAD@Z 10020bf7 f i libucrt:output.obj
 0001:0001fc86       ??$extract_argument_from_va_list@PADPAD@?$standard_base@DV?$stream_output_adapter@D@__crt_stdio_output@@@__crt_stdio_output@@IAE_NAAPAD@Z 10020c86 f i libucrt:output.obj
 0001:0001fca3       ??$extract_argument_from_va_list@PADPAD@?$standard_base@DV?$string_output_adapter@D@__crt_stdio_output@@@__crt_stdio_output@@IAE_NAAPAD@Z 10020ca3 f i libucrt:output.obj
 0001:0001fcc0       ??$extract_argument_from_va_list@PADPAD@?$standard_base@_WV?$stream_output_adapter@_W@__crt_stdio_output@@@__crt_stdio_output@@IAE_NAAPAD@Z 10020cc0 f i libucrt:output.obj
 0001:0001fcdd       ??$extract_argument_from_va_list@PADPAD@?$standard_base@_WV?$string_output_adapter@_W@__crt_stdio_output@@@__crt_stdio_output@@IAE_NAAPAD@Z 10020cdd f i libucrt:output.obj
 0001:0001fcfa       ??$extract_argument_from_va_list@PAUansi_string@?1??type_case_Z@?$output_processor@DV?$stream_output_adapter@D@__crt_stdio_output@@V?$format_validation_base@DV?$stream_output_adapter@D@__crt_stdio_output@@@2@@__crt_stdio_output@@AAE_NXZ@PAU1?1??234@AAE_NXZ@@?$standard_base@DV?$stream_output_adapter@D@__crt_stdio_output@@@__crt_stdio_output@@IAE_NAAPAUansi_string@?1??type_case_Z@?$output_processor@DV?$stream_output_adapter@D@__crt_stdio_output@@V?$format_validation_base@DV?$stream_output_adapter@D@__crt_stdio_output@@@2@@1@AAE_NXZ@@Z 10020cfa f i libucrt:output.obj
 0001:0001fd17       ??$extract_argument_from_va_list@PAUansi_string@?1??type_case_Z@?$output_processor@DV?$stream_output_adapter@D@__crt_stdio_output@@V?$positional_parameter_base@DV?$stream_output_adapter@D@__crt_stdio_output@@@2@@__crt_stdio_output@@AAE_NXZ@PAU1?1??234@AAE_NXZ@@?$positional_parameter_base@DV?$stream_output_adapter@D@__crt_stdio_output@@@__crt_stdio_output@@IAE_NAAPAUansi_string@?1??type_case_Z@?$output_processor@DV?$stream_output_adapter@D@__crt_stdio_output@@V?$positional_parameter_base@DV?$stream_output_adapter@D@__crt_stdio_output@@@2@@1@AAE_NXZ@@Z 10020d17 f i libucrt:output.obj
 0001:0001fda5       ??$extract_argument_from_va_list@PAUansi_string@?1??type_case_Z@?$output_processor@DV?$stream_output_adapter@D@__crt_stdio_output@@V?$positional_parameter_base@DV?$stream_output_adapter@D@__crt_stdio_output@@@2@@__crt_stdio_output@@AAE_NXZ@PAU1?1??234@AAE_NXZ@@?$standard_base@DV?$stream_output_adapter@D@__crt_stdio_output@@@__crt_stdio_output@@IAE_NAAPAUansi_string@?1??type_case_Z@?$output_processor@DV?$stream_output_adapter@D@__crt_stdio_output@@V?$positional_parameter_base@DV?$stream_output_adapter@D@__crt_stdio_output@@@2@@1@AAE_NXZ@@Z 10020da5 f i libucrt:output.obj
 0001:0001fdc2       ??$extract_argument_from_va_list@PAUansi_string@?1??type_case_Z@?$output_processor@DV?$stream_output_adapter@D@__crt_stdio_output@@V?$standard_base@DV?$stream_output_adapter@D@__crt_stdio_output@@@2@@__crt_stdio_output@@AAE_NXZ@PAU1?1??234@AAE_NXZ@@?$standard_base@DV?$stream_output_adapter@D@__crt_stdio_output@@@__crt_stdio_output@@IAE_NAAPAUansi_string@?1??type_case_Z@?$output_processor@DV?$stream_output_adapter@D@__crt_stdio_output@@V?$standard_base@DV?$stream_output_adapter@D@__crt_stdio_output@@@2@@1@AAE_NXZ@@Z 10020dc2 f i libucrt:output.obj
 0001:0001fddf       ??$extract_argument_from_va_list@PAUansi_string@?1??type_case_Z@?$output_processor@DV?$string_output_adapter@D@__crt_stdio_output@@V?$format_validation_base@DV?$string_output_adapter@D@__crt_stdio_output@@@2@@__crt_stdio_output@@AAE_NXZ@PAU1?1??234@AAE_NXZ@@?$standard_base@DV?$string_output_adapter@D@__crt_stdio_output@@@__crt_stdio_output@@IAE_NAAPAUansi_string@?1??type_case_Z@?$output_processor@DV?$string_output_adapter@D@__crt_stdio_output@@V?$format_validation_base@DV?$string_output_adapter@D@__crt_stdio_output@@@2@@1@AAE_NXZ@@Z 10020ddf f i libucrt:output.obj
 0001:0001fdfc       ??$extract_argument_from_va_list@PAUansi_string@?1??type_case_Z@?$output_processor@DV?$string_output_adapter@D@__crt_stdio_output@@V?$positional_parameter_base@DV?$string_output_adapter@D@__crt_stdio_output@@@2@@__crt_stdio_output@@AAE_NXZ@PAU1?1??234@AAE_NXZ@@?$positional_parameter_base@DV?$string_output_adapter@D@__crt_stdio_output@@@__crt_stdio_output@@IAE_NAAPAUansi_string@?1??type_case_Z@?$output_processor@DV?$string_output_adapter@D@__crt_stdio_output@@V?$positional_parameter_base@DV?$string_output_adapter@D@__crt_stdio_output@@@2@@1@AAE_NXZ@@Z 10020dfc f i libucrt:output.obj
 0001:0001fe8a       ??$extract_argument_from_va_list@PAUansi_string@?1??type_case_Z@?$output_processor@DV?$string_output_adapter@D@__crt_stdio_output@@V?$positional_parameter_base@DV?$string_output_adapter@D@__crt_stdio_output@@@2@@__crt_stdio_output@@AAE_NXZ@PAU1?1??234@AAE_NXZ@@?$standard_base@DV?$string_output_adapter@D@__crt_stdio_output@@@__crt_stdio_output@@IAE_NAAPAUansi_string@?1??type_case_Z@?$output_processor@DV?$string_output_adapter@D@__crt_stdio_output@@V?$positional_parameter_base@DV?$string_output_adapter@D@__crt_stdio_output@@@2@@1@AAE_NXZ@@Z 10020e8a f i libucrt:output.obj
 0001:0001fea7       ??$extract_argument_from_va_list@PAUansi_string@?1??type_case_Z@?$output_processor@DV?$string_output_adapter@D@__crt_stdio_output@@V?$standard_base@DV?$string_output_adapter@D@__crt_stdio_output@@@2@@__crt_stdio_output@@AAE_NXZ@PAU1?1??234@AAE_NXZ@@?$standard_base@DV?$string_output_adapter@D@__crt_stdio_output@@@__crt_stdio_output@@IAE_NAAPAUansi_string@?1??type_case_Z@?$output_processor@DV?$string_output_adapter@D@__crt_stdio_output@@V?$standard_base@DV?$string_output_adapter@D@__crt_stdio_output@@@2@@1@AAE_NXZ@@Z 10020ea7 f i libucrt:output.obj
 0001:0001fec4       ??$extract_argument_from_va_list@PAUansi_string@?1??type_case_Z@?$output_processor@_WV?$stream_output_adapter@_W@__crt_stdio_output@@V?$format_validation_base@_WV?$stream_output_adapter@_W@__crt_stdio_output@@@2@@__crt_stdio_output@@AAE_NXZ@PAU1?1??234@AAE_NXZ@@?$standard_base@_WV?$stream_output_adapter@_W@__crt_stdio_output@@@__crt_stdio_output@@IAE_NAAPAUansi_string@?1??type_case_Z@?$output_processor@_WV?$stream_output_adapter@_W@__crt_stdio_output@@V?$format_validation_base@_WV?$stream_output_adapter@_W@__crt_stdio_output@@@2@@1@AAE_NXZ@@Z 10020ec4 f i libucrt:output.obj
 0001:0001fee1       ??$extract_argument_from_va_list@PAUansi_string@?1??type_case_Z@?$output_processor@_WV?$stream_output_adapter@_W@__crt_stdio_output@@V?$positional_parameter_base@_WV?$stream_output_adapter@_W@__crt_stdio_output@@@2@@__crt_stdio_output@@AAE_NXZ@PAU1?1??234@AAE_NXZ@@?$positional_parameter_base@_WV?$stream_output_adapter@_W@__crt_stdio_output@@@__crt_stdio_output@@IAE_NAAPAUansi_string@?1??type_case_Z@?$output_processor@_WV?$stream_output_adapter@_W@__crt_stdio_output@@V?$positional_parameter_base@_WV?$stream_output_adapter@_W@__crt_stdio_output@@@2@@1@AAE_NXZ@@Z 10020ee1 f i libucrt:output.obj
 0001:0001ff70       ??$extract_argument_from_va_list@PAUansi_string@?1??type_case_Z@?$output_processor@_WV?$stream_output_adapter@_W@__crt_stdio_output@@V?$positional_parameter_base@_WV?$stream_output_adapter@_W@__crt_stdio_output@@@2@@__crt_stdio_output@@AAE_NXZ@PAU1?1??234@AAE_NXZ@@?$standard_base@_WV?$stream_output_adapter@_W@__crt_stdio_output@@@__crt_stdio_output@@IAE_NAAPAUansi_string@?1??type_case_Z@?$output_processor@_WV?$stream_output_adapter@_W@__crt_stdio_output@@V?$positional_parameter_base@_WV?$stream_output_adapter@_W@__crt_stdio_output@@@2@@1@AAE_NXZ@@Z 10020f70 f i libucrt:output.obj
 0001:0001ff8d       ??$extract_argument_from_va_list@PAUansi_string@?1??type_case_Z@?$output_processor@_WV?$stream_output_adapter@_W@__crt_stdio_output@@V?$standard_base@_WV?$stream_output_adapter@_W@__crt_stdio_output@@@2@@__crt_stdio_output@@AAE_NXZ@PAU1?1??234@AAE_NXZ@@?$standard_base@_WV?$stream_output_adapter@_W@__crt_stdio_output@@@__crt_stdio_output@@IAE_NAAPAUansi_string@?1??type_case_Z@?$output_processor@_WV?$stream_output_adapter@_W@__crt_stdio_output@@V?$standard_base@_WV?$stream_output_adapter@_W@__crt_stdio_output@@@2@@1@AAE_NXZ@@Z 10020f8d f i libucrt:output.obj
 0001:0001ffaa       ??$extract_argument_from_va_list@PAUansi_string@?1??type_case_Z@?$output_processor@_WV?$string_output_adapter@_W@__crt_stdio_output@@V?$format_validation_base@_WV?$string_output_adapter@_W@__crt_stdio_output@@@2@@__crt_stdio_output@@AAE_NXZ@PAU1?1??234@AAE_NXZ@@?$standard_base@_WV?$string_output_adapter@_W@__crt_stdio_output@@@__crt_stdio_output@@IAE_NAAPAUansi_string@?1??type_case_Z@?$output_processor@_WV?$string_output_adapter@_W@__crt_stdio_output@@V?$format_validation_base@_WV?$string_output_adapter@_W@__crt_stdio_output@@@2@@1@AAE_NXZ@@Z 10020faa f i libucrt:output.obj
 0001:0001ffc7       ??$extract_argument_from_va_list@PAUansi_string@?1??type_case_Z@?$output_processor@_WV?$string_output_adapter@_W@__crt_stdio_output@@V?$positional_parameter_base@_WV?$string_output_adapter@_W@__crt_stdio_output@@@2@@__crt_stdio_output@@AAE_NXZ@PAU1?1??234@AAE_NXZ@@?$positional_parameter_base@_WV?$string_output_adapter@_W@__crt_stdio_output@@@__crt_stdio_output@@IAE_NAAPAUansi_string@?1??type_case_Z@?$output_processor@_WV?$string_output_adapter@_W@__crt_stdio_output@@V?$positional_parameter_base@_WV?$string_output_adapter@_W@__crt_stdio_output@@@2@@1@AAE_NXZ@@Z 10020fc7 f i libucrt:output.obj
 0001:00020056       ??$extract_argument_from_va_list@PAUansi_string@?1??type_case_Z@?$output_processor@_WV?$string_output_adapter@_W@__crt_stdio_output@@V?$positional_parameter_base@_WV?$string_output_adapter@_W@__crt_stdio_output@@@2@@__crt_stdio_output@@AAE_NXZ@PAU1?1??234@AAE_NXZ@@?$standard_base@_WV?$string_output_adapter@_W@__crt_stdio_output@@@__crt_stdio_output@@IAE_NAAPAUansi_string@?1??type_case_Z@?$output_processor@_WV?$string_output_adapter@_W@__crt_stdio_output@@V?$positional_parameter_base@_WV?$string_output_adapter@_W@__crt_stdio_output@@@2@@1@AAE_NXZ@@Z 10021056 f i libucrt:output.obj
 0001:00020073       ??$extract_argument_from_va_list@PAUansi_string@?1??type_case_Z@?$output_processor@_WV?$string_output_adapter@_W@__crt_stdio_output@@V?$standard_base@_WV?$string_output_adapter@_W@__crt_stdio_output@@@2@@__crt_stdio_output@@AAE_NXZ@PAU1?1??234@AAE_NXZ@@?$standard_base@_WV?$string_output_adapter@_W@__crt_stdio_output@@@__crt_stdio_output@@IAE_NAAPAUansi_string@?1??type_case_Z@?$output_processor@_WV?$string_output_adapter@_W@__crt_stdio_output@@V?$standard_base@_WV?$string_output_adapter@_W@__crt_stdio_output@@@2@@1@AAE_NXZ@@Z 10021073 f i libucrt:output.obj
 0001:00020090       ??$extract_argument_from_va_list@PAXPAX@?$positional_parameter_base@DV?$stream_output_adapter@D@__crt_stdio_output@@@__crt_stdio_output@@IAE_NAAPAX@Z 10021090 f i libucrt:output.obj
 0001:0002011e       ??$extract_argument_from_va_list@PAXPAX@?$positional_parameter_base@DV?$string_output_adapter@D@__crt_stdio_output@@@__crt_stdio_output@@IAE_NAAPAX@Z 1002111e f i libucrt:output.obj
 0001:000201ac       ??$extract_argument_from_va_list@PAXPAX@?$positional_parameter_base@_WV?$stream_output_adapter@_W@__crt_stdio_output@@@__crt_stdio_output@@IAE_NAAPAX@Z 100211ac f i libucrt:output.obj
 0001:0002023b       ??$extract_argument_from_va_list@PAXPAX@?$positional_parameter_base@_WV?$string_output_adapter@_W@__crt_stdio_output@@@__crt_stdio_output@@IAE_NAAPAX@Z 1002123b f i libucrt:output.obj
 0001:000202ca       ??$extract_argument_from_va_list@PAXPAX@?$standard_base@DV?$stream_output_adapter@D@__crt_stdio_output@@@__crt_stdio_output@@IAE_NAAPAX@Z 100212ca f i libucrt:output.obj
 0001:000202e7       ??$extract_argument_from_va_list@PAXPAX@?$standard_base@DV?$string_output_adapter@D@__crt_stdio_output@@@__crt_stdio_output@@IAE_NAAPAX@Z 100212e7 f i libucrt:output.obj
 0001:00020304       ??$extract_argument_from_va_list@PAXPAX@?$standard_base@_WV?$stream_output_adapter@_W@__crt_stdio_output@@@__crt_stdio_output@@IAE_NAAPAX@Z 10021304 f i libucrt:output.obj
 0001:00020321       ??$extract_argument_from_va_list@PAXPAX@?$standard_base@_WV?$string_output_adapter@_W@__crt_stdio_output@@@__crt_stdio_output@@IAE_NAAPAX@Z 10021321 f i libucrt:output.obj
 0001:0002033e       ??$extract_argument_from_va_list@U_CRT_DOUBLE@@U1@@?$positional_parameter_base@DV?$stream_output_adapter@D@__crt_stdio_output@@@__crt_stdio_output@@IAE_NAAU_CRT_DOUBLE@@@Z 1002133e f i libucrt:output.obj
 0001:000203d4       ??$extract_argument_from_va_list@U_CRT_DOUBLE@@U1@@?$positional_parameter_base@DV?$string_output_adapter@D@__crt_stdio_output@@@__crt_stdio_output@@IAE_NAAU_CRT_DOUBLE@@@Z 100213d4 f i libucrt:output.obj
 0001:0002046a       ??$extract_argument_from_va_list@U_CRT_DOUBLE@@U1@@?$positional_parameter_base@_WV?$stream_output_adapter@_W@__crt_stdio_output@@@__crt_stdio_output@@IAE_NAAU_CRT_DOUBLE@@@Z 1002146a f i libucrt:output.obj
 0001:00020501       ??$extract_argument_from_va_list@U_CRT_DOUBLE@@U1@@?$positional_parameter_base@_WV?$string_output_adapter@_W@__crt_stdio_output@@@__crt_stdio_output@@IAE_NAAU_CRT_DOUBLE@@@Z 10021501 f i libucrt:output.obj
 0001:00020598       ??$extract_argument_from_va_list@U_CRT_DOUBLE@@U1@@?$standard_base@DV?$stream_output_adapter@D@__crt_stdio_output@@@__crt_stdio_output@@IAE_NAAU_CRT_DOUBLE@@@Z 10021598 f i libucrt:output.obj
 0001:000205b9       ??$extract_argument_from_va_list@U_CRT_DOUBLE@@U1@@?$standard_base@DV?$string_output_adapter@D@__crt_stdio_output@@@__crt_stdio_output@@IAE_NAAU_CRT_DOUBLE@@@Z 100215b9 f i libucrt:output.obj
 0001:000205da       ??$extract_argument_from_va_list@U_CRT_DOUBLE@@U1@@?$standard_base@_WV?$stream_output_adapter@_W@__crt_stdio_output@@@__crt_stdio_output@@IAE_NAAU_CRT_DOUBLE@@@Z 100215da f i libucrt:output.obj
 0001:000205fb       ??$extract_argument_from_va_list@U_CRT_DOUBLE@@U1@@?$standard_base@_WV?$string_output_adapter@_W@__crt_stdio_output@@@__crt_stdio_output@@IAE_NAAU_CRT_DOUBLE@@@Z 100215fb f i libucrt:output.obj
 0001:0002061c       ??$extract_argument_from_va_list@_J_J@?$positional_parameter_base@DV?$stream_output_adapter@D@__crt_stdio_output@@@__crt_stdio_output@@IAE_NAA_J@Z 1002161c f i libucrt:output.obj
 0001:000206b6       ??$extract_argument_from_va_list@_J_J@?$positional_parameter_base@DV?$string_output_adapter@D@__crt_stdio_output@@@__crt_stdio_output@@IAE_NAA_J@Z 100216b6 f i libucrt:output.obj
 0001:00020750       ??$extract_argument_from_va_list@_J_J@?$positional_parameter_base@_WV?$stream_output_adapter@_W@__crt_stdio_output@@@__crt_stdio_output@@IAE_NAA_J@Z 10021750 f i libucrt:output.obj
 0001:000207eb       ??$extract_argument_from_va_list@_J_J@?$positional_parameter_base@_WV?$string_output_adapter@_W@__crt_stdio_output@@@__crt_stdio_output@@IAE_NAA_J@Z 100217eb f i libucrt:output.obj
 0001:00020886       ??$extract_argument_from_va_list@_J_J@?$standard_base@DV?$stream_output_adapter@D@__crt_stdio_output@@@__crt_stdio_output@@IAE_NAA_J@Z 10021886 f i libucrt:output.obj
 0001:000208a7       ??$extract_argument_from_va_list@_J_J@?$standard_base@DV?$string_output_adapter@D@__crt_stdio_output@@@__crt_stdio_output@@IAE_NAA_J@Z 100218a7 f i libucrt:output.obj
 0001:000208c8       ??$extract_argument_from_va_list@_J_J@?$standard_base@_WV?$stream_output_adapter@_W@__crt_stdio_output@@@__crt_stdio_output@@IAE_NAA_J@Z 100218c8 f i libucrt:output.obj
 0001:000208e9       ??$extract_argument_from_va_list@_J_J@?$standard_base@_WV?$string_output_adapter@_W@__crt_stdio_output@@@__crt_stdio_output@@IAE_NAA_J@Z 100218e9 f i libucrt:output.obj
 0001:0002090a       ??$extract_argument_from_va_list@_K_J@?$positional_parameter_base@DV?$stream_output_adapter@D@__crt_stdio_output@@@__crt_stdio_output@@IAE_NAA_J@Z 1002190a f i libucrt:output.obj
 0001:000209a4       ??$extract_argument_from_va_list@_K_J@?$positional_parameter_base@DV?$string_output_adapter@D@__crt_stdio_output@@@__crt_stdio_output@@IAE_NAA_J@Z 100219a4 f i libucrt:output.obj
 0001:00020a3e       ??$extract_argument_from_va_list@_K_J@?$positional_parameter_base@_WV?$stream_output_adapter@_W@__crt_stdio_output@@@__crt_stdio_output@@IAE_NAA_J@Z 10021a3e f i libucrt:output.obj
 0001:00020ad9       ??$extract_argument_from_va_list@_K_J@?$positional_parameter_base@_WV?$string_output_adapter@_W@__crt_stdio_output@@@__crt_stdio_output@@IAE_NAA_J@Z 10021ad9 f i libucrt:output.obj
 0001:00020b74       ??$extract_argument_from_va_list@_K_J@?$standard_base@DV?$stream_output_adapter@D@__crt_stdio_output@@@__crt_stdio_output@@IAE_NAA_J@Z 10021b74 f i libucrt:output.obj
 0001:00020b95       ??$extract_argument_from_va_list@_K_J@?$standard_base@DV?$string_output_adapter@D@__crt_stdio_output@@@__crt_stdio_output@@IAE_NAA_J@Z 10021b95 f i libucrt:output.obj
 0001:00020bb6       ??$extract_argument_from_va_list@_K_J@?$standard_base@_WV?$stream_output_adapter@_W@__crt_stdio_output@@@__crt_stdio_output@@IAE_NAA_J@Z 10021bb6 f i libucrt:output.obj
 0001:00020bd7       ??$extract_argument_from_va_list@_K_J@?$standard_base@_WV?$string_output_adapter@_W@__crt_stdio_output@@@__crt_stdio_output@@IAE_NAA_J@Z 10021bd7 f i libucrt:output.obj
 0001:00020bf8       ??$extract_argument_from_va_list@_W_W@?$positional_parameter_base@DV?$stream_output_adapter@D@__crt_stdio_output@@@__crt_stdio_output@@IAE_NAA_W@Z 10021bf8 f i libucrt:output.obj
 0001:00020c8a       ??$extract_argument_from_va_list@_W_W@?$positional_parameter_base@DV?$string_output_adapter@D@__crt_stdio_output@@@__crt_stdio_output@@IAE_NAA_W@Z 10021c8a f i libucrt:output.obj
 0001:00020d1c       ??$extract_argument_from_va_list@_W_W@?$positional_parameter_base@_WV?$stream_output_adapter@_W@__crt_stdio_output@@@__crt_stdio_output@@IAE_NAA_W@Z 10021d1c f i libucrt:output.obj
 0001:00020daf       ??$extract_argument_from_va_list@_W_W@?$positional_parameter_base@_WV?$string_output_adapter@_W@__crt_stdio_output@@@__crt_stdio_output@@IAE_NAA_W@Z 10021daf f i libucrt:output.obj
 0001:00020e42       ??$extract_argument_from_va_list@_W_W@?$standard_base@DV?$stream_output_adapter@D@__crt_stdio_output@@@__crt_stdio_output@@IAE_NAA_W@Z 10021e42 f i libucrt:output.obj
 0001:00020e5f       ??$extract_argument_from_va_list@_W_W@?$standard_base@DV?$string_output_adapter@D@__crt_stdio_output@@@__crt_stdio_output@@IAE_NAA_W@Z 10021e5f f i libucrt:output.obj
 0001:00020e7c       ??$extract_argument_from_va_list@_W_W@?$standard_base@_WV?$stream_output_adapter@_W@__crt_stdio_output@@@__crt_stdio_output@@IAE_NAA_W@Z 10021e7c f i libucrt:output.obj
 0001:00020e99       ??$extract_argument_from_va_list@_W_W@?$standard_base@_WV?$string_output_adapter@_W@__crt_stdio_output@@@__crt_stdio_output@@IAE_NAA_W@Z 10021e99 f i libucrt:output.obj
 0001:00020eb6       ??$get_parameter_type@D@?$positional_parameter_base@DV?$stream_output_adapter@D@__crt_stdio_output@@@__crt_stdio_output@@CA?AW4parameter_type@01@PAD@Z 10021eb6 f i libucrt:output.obj
 0001:00020eba       ??$get_parameter_type@D@?$positional_parameter_base@DV?$string_output_adapter@D@__crt_stdio_output@@@__crt_stdio_output@@CA?AW4parameter_type@01@PAD@Z 10021eba f i libucrt:output.obj
 0001:00020ebe       ??$get_parameter_type@D@?$positional_parameter_base@_WV?$stream_output_adapter@_W@__crt_stdio_output@@@__crt_stdio_output@@CA?AW4parameter_type@01@PAD@Z 10021ebe f i libucrt:output.obj
 0001:00020ec2       ??$get_parameter_type@D@?$positional_parameter_base@_WV?$string_output_adapter@_W@__crt_stdio_output@@@__crt_stdio_output@@CA?AW4parameter_type@01@PAD@Z 10021ec2 f i libucrt:output.obj
 0001:00020ec6       ??$get_parameter_type@Uansi_string@?1??type_case_Z@?$output_processor@DV?$stream_output_adapter@D@__crt_stdio_output@@V?$positional_parameter_base@DV?$stream_output_adapter@D@__crt_stdio_output@@@2@@__crt_stdio_output@@AAE_NXZ@@?$positional_parameter_base@DV?$stream_output_adapter@D@__crt_stdio_output@@@__crt_stdio_output@@CA?AW4parameter_type@01@PAUansi_string@?1??type_case_Z@?$output_processor@DV?$stream_output_adapter@D@__crt_stdio_output@@V?$positional_parameter_base@DV?$stream_output_adapter@D@__crt_stdio_output@@@2@@1@AAE_NXZ@@Z 10021ec6 f i libucrt:output.obj
 0001:00020eca       ??$get_parameter_type@Uansi_string@?1??type_case_Z@?$output_processor@DV?$string_output_adapter@D@__crt_stdio_output@@V?$positional_parameter_base@DV?$string_output_adapter@D@__crt_stdio_output@@@2@@__crt_stdio_output@@AAE_NXZ@@?$positional_parameter_base@DV?$string_output_adapter@D@__crt_stdio_output@@@__crt_stdio_output@@CA?AW4parameter_type@01@PAUansi_string@?1??type_case_Z@?$output_processor@DV?$string_output_adapter@D@__crt_stdio_output@@V?$positional_parameter_base@DV?$string_output_adapter@D@__crt_stdio_output@@@2@@1@AAE_NXZ@@Z 10021eca f i libucrt:output.obj
 0001:00020ece       ??$get_parameter_type@Uansi_string@?1??type_case_Z@?$output_processor@_WV?$stream_output_adapter@_W@__crt_stdio_output@@V?$positional_parameter_base@_WV?$stream_output_adapter@_W@__crt_stdio_output@@@2@@__crt_stdio_output@@AAE_NXZ@@?$positional_parameter_base@_WV?$stream_output_adapter@_W@__crt_stdio_output@@@__crt_stdio_output@@CA?AW4parameter_type@01@PAUansi_string@?1??type_case_Z@?$output_processor@_WV?$stream_output_adapter@_W@__crt_stdio_output@@V?$positional_parameter_base@_WV?$stream_output_adapter@_W@__crt_stdio_output@@@2@@1@AAE_NXZ@@Z 10021ece f i libucrt:output.obj
 0001:00020ed2       ??$get_parameter_type@Uansi_string@?1??type_case_Z@?$output_processor@_WV?$string_output_adapter@_W@__crt_stdio_output@@V?$positional_parameter_base@_WV?$string_output_adapter@_W@__crt_stdio_output@@@2@@__crt_stdio_output@@AAE_NXZ@@?$positional_parameter_base@_WV?$string_output_adapter@_W@__crt_stdio_output@@@__crt_stdio_output@@CA?AW4parameter_type@01@PAUansi_string@?1??type_case_Z@?$output_processor@_WV?$string_output_adapter@_W@__crt_stdio_output@@V?$positional_parameter_base@_WV?$string_output_adapter@_W@__crt_stdio_output@@@2@@1@AAE_NXZ@@Z 10021ed2 f i libucrt:output.obj
 0001:00020ed6       ??$get_parameter_type@X@?$positional_parameter_base@DV?$stream_output_adapter@D@__crt_stdio_output@@@__crt_stdio_output@@CA?AW4parameter_type@01@PAX@Z 10021ed6 f i libucrt:output.obj
 0001:00020eda       ??$get_parameter_type@X@?$positional_parameter_base@DV?$string_output_adapter@D@__crt_stdio_output@@@__crt_stdio_output@@CA?AW4parameter_type@01@PAX@Z 10021eda f i libucrt:output.obj
 0001:00020ede       ??$get_parameter_type@X@?$positional_parameter_base@_WV?$stream_output_adapter@_W@__crt_stdio_output@@@__crt_stdio_output@@CA?AW4parameter_type@01@PAX@Z 10021ede f i libucrt:output.obj
 0001:00020ee2       ??$get_parameter_type@X@?$positional_parameter_base@_WV?$string_output_adapter@_W@__crt_stdio_output@@@__crt_stdio_output@@CA?AW4parameter_type@01@PAX@Z 10021ee2 f i libucrt:output.obj
 0001:00020ee6       ??$is_character_specifier@D@?$positional_parameter_base@DV?$stream_output_adapter@D@__crt_stdio_output@@@__crt_stdio_output@@CA_ND@Z 10021ee6 f i libucrt:output.obj
 0001:00020efe       ??$is_character_specifier@D@?$positional_parameter_base@DV?$string_output_adapter@D@__crt_stdio_output@@@__crt_stdio_output@@CA_ND@Z 10021efe f i libucrt:output.obj
 0001:00020f16       ??$is_character_specifier@_W@?$positional_parameter_base@_WV?$stream_output_adapter@_W@__crt_stdio_output@@@__crt_stdio_output@@CA_N_W@Z 10021f16 f i libucrt:output.obj
 0001:00020f31       ??$is_character_specifier@_W@?$positional_parameter_base@_WV?$string_output_adapter@_W@__crt_stdio_output@@@__crt_stdio_output@@CA_N_W@Z 10021f31 f i libucrt:output.obj
 0001:00020f4c       ??$is_integral_specifier@D@?$positional_parameter_base@DV?$stream_output_adapter@D@__crt_stdio_output@@@__crt_stdio_output@@CA_ND@Z 10021f4c f i libucrt:output.obj
 0001:00020f78       ??$is_integral_specifier@D@?$positional_parameter_base@DV?$string_output_adapter@D@__crt_stdio_output@@@__crt_stdio_output@@CA_ND@Z 10021f78 f i libucrt:output.obj
 0001:00020fa4       ??$is_integral_specifier@_W@?$positional_parameter_base@_WV?$stream_output_adapter@_W@__crt_stdio_output@@@__crt_stdio_output@@CA_N_W@Z 10021fa4 f i libucrt:output.obj
 0001:00020fdf       ??$is_integral_specifier@_W@?$positional_parameter_base@_WV?$string_output_adapter@_W@__crt_stdio_output@@@__crt_stdio_output@@CA_N_W@Z 10021fdf f i libucrt:output.obj
 0001:0002101a       ??$is_overflow_condition@K@__crt_strtox@@YA_NIK@Z 1002201a f i libucrt:output.obj
 0001:0002104e       ??$is_pointer_specifier@D@?$positional_parameter_base@DV?$stream_output_adapter@D@__crt_stdio_output@@@__crt_stdio_output@@CA_ND@Z 1002204e f i libucrt:output.obj
 0001:0002105c       ??$is_pointer_specifier@D@?$positional_parameter_base@DV?$string_output_adapter@D@__crt_stdio_output@@@__crt_stdio_output@@CA_ND@Z 1002205c f i libucrt:output.obj
 0001:0002106a       ??$is_pointer_specifier@_W@?$positional_parameter_base@_WV?$stream_output_adapter@_W@__crt_stdio_output@@@__crt_stdio_output@@CA_N_W@Z 1002206a f i libucrt:output.obj
 0001:00021079       ??$is_pointer_specifier@_W@?$positional_parameter_base@_WV?$string_output_adapter@_W@__crt_stdio_output@@@__crt_stdio_output@@CA_N_W@Z 10022079 f i libucrt:output.obj
 0001:00021088       ??$is_string_specifier@D@?$positional_parameter_base@DV?$stream_output_adapter@D@__crt_stdio_output@@@__crt_stdio_output@@CA_ND@Z 10022088 f i libucrt:output.obj
 0001:000210a0       ??$is_string_specifier@D@?$positional_parameter_base@DV?$string_output_adapter@D@__crt_stdio_output@@@__crt_stdio_output@@CA_ND@Z 100220a0 f i libucrt:output.obj
 0001:000210b8       ??$is_string_specifier@_W@?$positional_parameter_base@_WV?$stream_output_adapter@_W@__crt_stdio_output@@@__crt_stdio_output@@CA_N_W@Z 100220b8 f i libucrt:output.obj
 0001:000210d3       ??$is_string_specifier@_W@?$positional_parameter_base@_WV?$string_output_adapter@_W@__crt_stdio_output@@@__crt_stdio_output@@CA_N_W@Z 100220d3 f i libucrt:output.obj
 0001:000210ee       ??$is_wide_character_specifier@D@__crt_stdio_output@@YA_N_KDW4length_modifier@0@@Z 100220ee f i libucrt:output.obj
 0001:0002111f       ??$is_wide_character_specifier@_W@__crt_stdio_output@@YA_N_K_WW4length_modifier@0@@Z 1002211f f i libucrt:output.obj
 0001:0002116d       ??$make_c_string_character_source@DPAPAD@__crt_strtox@@YA?AV?$c_string_character_source@D@0@QBDQAPAD@Z 1002216d f i libucrt:output.obj
 0001:00021188       ??$make_c_string_character_source@_WPAPA_W@__crt_strtox@@YA?AV?$c_string_character_source@_W@0@QB_WQAPA_W@Z 10022188 f i libucrt:output.obj
 0001:000211a3       ??$parse_integer@KV?$c_string_character_source@D@__crt_strtox@@$0A@@__crt_strtox@@YAKAAV__crt_cached_ptd_host@@V?$c_string_character_source@D@0@H_N@Z 100221a3 f i libucrt:output.obj
 0001:000213b2       ??$parse_integer@KV?$c_string_character_source@_W@__crt_strtox@@$0A@@__crt_strtox@@YAKAAV__crt_cached_ptd_host@@V?$c_string_character_source@_W@0@H_N@Z 100223b2 f i libucrt:output.obj
 0001:00021985       ??$peek_va_arg@C@__crt_stdio_output@@YACPAD@Z 10022985 f i libucrt:output.obj
 0001:00021991       ??$peek_va_arg@E@__crt_stdio_output@@YAEPAD@Z 10022991 f i libucrt:output.obj
 0001:0002199d       ??$peek_va_arg@F@__crt_stdio_output@@YAFPAD@Z 1002299d f i libucrt:output.obj
 0001:000219aa       ??$peek_va_arg@G@__crt_stdio_output@@YAGPAD@Z 100229aa f i libucrt:output.obj
 0001:000219b7       ??$peek_va_arg@H@__crt_stdio_output@@YAHPAD@Z 100229b7 f i libucrt:output.obj
 0001:000219c3       ??$peek_va_arg@I@__crt_stdio_output@@YAIPAD@Z 100229c3 f i libucrt:output.obj
 0001:000219cf       ??$peek_va_arg@PAD@__crt_stdio_output@@YAPADPAD@Z 100229cf f i libucrt:output.obj
 0001:000219db       ??$peek_va_arg@PAUansi_string@?1??type_case_Z@?$output_processor@DV?$stream_output_adapter@D@__crt_stdio_output@@V?$positional_parameter_base@DV?$stream_output_adapter@D@__crt_stdio_output@@@2@@__crt_stdio_output@@AAE_NXZ@@__crt_stdio_output@@YAPAUansi_string@?1??type_case_Z@?$output_processor@DV?$stream_output_adapter@D@__crt_stdio_output@@V?$positional_parameter_base@DV?$stream_output_adapter@D@__crt_stdio_output@@@2@@0@AAE_NXZ@PAD@Z 100229db f i libucrt:output.obj
 0001:000219e7       ??$peek_va_arg@PAUansi_string@?1??type_case_Z@?$output_processor@DV?$string_output_adapter@D@__crt_stdio_output@@V?$positional_parameter_base@DV?$string_output_adapter@D@__crt_stdio_output@@@2@@__crt_stdio_output@@AAE_NXZ@@__crt_stdio_output@@YAPAUansi_string@?1??type_case_Z@?$output_processor@DV?$string_output_adapter@D@__crt_stdio_output@@V?$positional_parameter_base@DV?$string_output_adapter@D@__crt_stdio_output@@@2@@0@AAE_NXZ@PAD@Z 100229e7 f i libucrt:output.obj
 0001:000219f3       ??$peek_va_arg@PAUansi_string@?1??type_case_Z@?$output_processor@_WV?$stream_output_adapter@_W@__crt_stdio_output@@V?$positional_parameter_base@_WV?$stream_output_adapter@_W@__crt_stdio_output@@@2@@__crt_stdio_output@@AAE_NXZ@@__crt_stdio_output@@YAPAUansi_string@?1??type_case_Z@?$output_processor@_WV?$stream_output_adapter@_W@__crt_stdio_output@@V?$positional_parameter_base@_WV?$stream_output_adapter@_W@__crt_stdio_output@@@2@@0@AAE_NXZ@PAD@Z 100229f3 f i libucrt:output.obj
 0001:000219ff       ??$peek_va_arg@PAUansi_string@?1??type_case_Z@?$output_processor@_WV?$string_output_adapter@_W@__crt_stdio_output@@V?$positional_parameter_base@_WV?$string_output_adapter@_W@__crt_stdio_output@@@2@@__crt_stdio_output@@AAE_NXZ@@__crt_stdio_output@@YAPAUansi_string@?1??type_case_Z@?$output_processor@_WV?$string_output_adapter@_W@__crt_stdio_output@@V?$positional_parameter_base@_WV?$string_output_adapter@_W@__crt_stdio_output@@@2@@0@AAE_NXZ@PAD@Z 100229ff f i libucrt:output.obj
 0001:00021a0b       ??$peek_va_arg@PAX@__crt_stdio_output@@YAPAXPAD@Z 10022a0b f i libucrt:output.obj
 0001:00021a17       ??$peek_va_arg@U_CRT_DOUBLE@@@__crt_stdio_output@@YA?AU_CRT_DOUBLE@@PAD@Z 10022a17 f i libucrt:output.obj
 0001:00021a26       ??$peek_va_arg@_J@__crt_stdio_output@@YA_JPAD@Z 10022a26 f i libucrt:output.obj
 0001:00021a35       ??$peek_va_arg@_K@__crt_stdio_output@@YA_KPAD@Z 10022a35 f i libucrt:output.obj
 0001:00021a44       ??$peek_va_arg@_W@__crt_stdio_output@@YA_WPAD@Z 10022a44 f i libucrt:output.obj
 0001:00021a51       ??$puttc_nolock_internal@ABDPAU_iobuf@@AAV__crt_cached_ptd_host@@@?$__crt_char_traits@D@@SAHABD$$QAPAU_iobuf@@AAV__crt_cached_ptd_host@@@Z 10022a51 f i libucrt:output.obj
 0001:00021a6f       ??$puttc_nolock_internal@AB_WPAU_iobuf@@AAV__crt_cached_ptd_host@@@?$__crt_char_traits@_W@@SAGAB_W$$QAPAU_iobuf@@AAV__crt_cached_ptd_host@@@Z 10022a6f f i libucrt:output.obj
 0001:00021a8d       ??$read_va_arg@C@__crt_stdio_output@@YACAAPAD@Z 10022a8d f i libucrt:output.obj
 0001:00021aa0       ??$read_va_arg@E@__crt_stdio_output@@YAEAAPAD@Z 10022aa0 f i libucrt:output.obj
 0001:00021ab3       ??$read_va_arg@F@__crt_stdio_output@@YAFAAPAD@Z 10022ab3 f i libucrt:output.obj
 0001:00021ac7       ??$read_va_arg@G@__crt_stdio_output@@YAGAAPAD@Z 10022ac7 f i libucrt:output.obj
 0001:00021adb       ??$read_va_arg@H@__crt_stdio_output@@YAHAAPAD@Z 10022adb f i libucrt:output.obj
 0001:00021aee       ??$read_va_arg@I@__crt_stdio_output@@YAIAAPAD@Z 10022aee f i libucrt:output.obj
 0001:00021b01       ??$read_va_arg@PAD@__crt_stdio_output@@YAPADAAPAD@Z 10022b01 f i libucrt:output.obj
 0001:00021b14       ??$read_va_arg@PAUansi_string@?1??type_case_Z@?$output_processor@DV?$stream_output_adapter@D@__crt_stdio_output@@V?$format_validation_base@DV?$stream_output_adapter@D@__crt_stdio_output@@@2@@__crt_stdio_output@@AAE_NXZ@@__crt_stdio_output@@YAPAUansi_string@?1??type_case_Z@?$output_processor@DV?$stream_output_adapter@D@__crt_stdio_output@@V?$format_validation_base@DV?$stream_output_adapter@D@__crt_stdio_output@@@2@@0@AAE_NXZ@AAPAD@Z 10022b14 f i libucrt:output.obj
 0001:00021b27       ??$read_va_arg@PAUansi_string@?1??type_case_Z@?$output_processor@DV?$stream_output_adapter@D@__crt_stdio_output@@V?$positional_parameter_base@DV?$stream_output_adapter@D@__crt_stdio_output@@@2@@__crt_stdio_output@@AAE_NXZ@@__crt_stdio_output@@YAPAUansi_string@?1??type_case_Z@?$output_processor@DV?$stream_output_adapter@D@__crt_stdio_output@@V?$positional_parameter_base@DV?$stream_output_adapter@D@__crt_stdio_output@@@2@@0@AAE_NXZ@AAPAD@Z 10022b27 f i libucrt:output.obj
 0001:00021b3a       ??$read_va_arg@PAUansi_string@?1??type_case_Z@?$output_processor@DV?$stream_output_adapter@D@__crt_stdio_output@@V?$standard_base@DV?$stream_output_adapter@D@__crt_stdio_output@@@2@@__crt_stdio_output@@AAE_NXZ@@__crt_stdio_output@@YAPAUansi_string@?1??type_case_Z@?$output_processor@DV?$stream_output_adapter@D@__crt_stdio_output@@V?$standard_base@DV?$stream_output_adapter@D@__crt_stdio_output@@@2@@0@AAE_NXZ@AAPAD@Z 10022b3a f i libucrt:output.obj
 0001:00021b4d       ??$read_va_arg@PAUansi_string@?1??type_case_Z@?$output_processor@DV?$string_output_adapter@D@__crt_stdio_output@@V?$format_validation_base@DV?$string_output_adapter@D@__crt_stdio_output@@@2@@__crt_stdio_output@@AAE_NXZ@@__crt_stdio_output@@YAPAUansi_string@?1??type_case_Z@?$output_processor@DV?$string_output_adapter@D@__crt_stdio_output@@V?$format_validation_base@DV?$string_output_adapter@D@__crt_stdio_output@@@2@@0@AAE_NXZ@AAPAD@Z 10022b4d f i libucrt:output.obj
 0001:00021b60       ??$read_va_arg@PAUansi_string@?1??type_case_Z@?$output_processor@DV?$string_output_adapter@D@__crt_stdio_output@@V?$positional_parameter_base@DV?$string_output_adapter@D@__crt_stdio_output@@@2@@__crt_stdio_output@@AAE_NXZ@@__crt_stdio_output@@YAPAUansi_string@?1??type_case_Z@?$output_processor@DV?$string_output_adapter@D@__crt_stdio_output@@V?$positional_parameter_base@DV?$string_output_adapter@D@__crt_stdio_output@@@2@@0@AAE_NXZ@AAPAD@Z 10022b60 f i libucrt:output.obj
 0001:00021b73       ??$read_va_arg@PAUansi_string@?1??type_case_Z@?$output_processor@DV?$string_output_adapter@D@__crt_stdio_output@@V?$standard_base@DV?$string_output_adapter@D@__crt_stdio_output@@@2@@__crt_stdio_output@@AAE_NXZ@@__crt_stdio_output@@YAPAUansi_string@?1??type_case_Z@?$output_processor@DV?$string_output_adapter@D@__crt_stdio_output@@V?$standard_base@DV?$string_output_adapter@D@__crt_stdio_output@@@2@@0@AAE_NXZ@AAPAD@Z 10022b73 f i libucrt:output.obj
 0001:00021b86       ??$read_va_arg@PAUansi_string@?1??type_case_Z@?$output_processor@_WV?$stream_output_adapter@_W@__crt_stdio_output@@V?$format_validation_base@_WV?$stream_output_adapter@_W@__crt_stdio_output@@@2@@__crt_stdio_output@@AAE_NXZ@@__crt_stdio_output@@YAPAUansi_string@?1??type_case_Z@?$output_processor@_WV?$stream_output_adapter@_W@__crt_stdio_output@@V?$format_validation_base@_WV?$stream_output_adapter@_W@__crt_stdio_output@@@2@@0@AAE_NXZ@AAPAD@Z 10022b86 f i libucrt:output.obj
 0001:00021b99       ??$read_va_arg@PAUansi_string@?1??type_case_Z@?$output_processor@_WV?$stream_output_adapter@_W@__crt_stdio_output@@V?$positional_parameter_base@_WV?$stream_output_adapter@_W@__crt_stdio_output@@@2@@__crt_stdio_output@@AAE_NXZ@@__crt_stdio_output@@YAPAUansi_string@?1??type_case_Z@?$output_processor@_WV?$stream_output_adapter@_W@__crt_stdio_output@@V?$positional_parameter_base@_WV?$stream_output_adapter@_W@__crt_stdio_output@@@2@@0@AAE_NXZ@AAPAD@Z 10022b99 f i libucrt:output.obj
 0001:00021bac       ??$read_va_arg@PAUansi_string@?1??type_case_Z@?$output_processor@_WV?$stream_output_adapter@_W@__crt_stdio_output@@V?$standard_base@_WV?$stream_output_adapter@_W@__crt_stdio_output@@@2@@__crt_stdio_output@@AAE_NXZ@@__crt_stdio_output@@YAPAUansi_string@?1??type_case_Z@?$output_processor@_WV?$stream_output_adapter@_W@__crt_stdio_output@@V?$standard_base@_WV?$stream_output_adapter@_W@__crt_stdio_output@@@2@@0@AAE_NXZ@AAPAD@Z 10022bac f i libucrt:output.obj
 0001:00021bbf       ??$read_va_arg@PAUansi_string@?1??type_case_Z@?$output_processor@_WV?$string_output_adapter@_W@__crt_stdio_output@@V?$format_validation_base@_WV?$string_output_adapter@_W@__crt_stdio_output@@@2@@__crt_stdio_output@@AAE_NXZ@@__crt_stdio_output@@YAPAUansi_string@?1??type_case_Z@?$output_processor@_WV?$string_output_adapter@_W@__crt_stdio_output@@V?$format_validation_base@_WV?$string_output_adapter@_W@__crt_stdio_output@@@2@@0@AAE_NXZ@AAPAD@Z 10022bbf f i libucrt:output.obj
 0001:00021bd2       ??$read_va_arg@PAUansi_string@?1??type_case_Z@?$output_processor@_WV?$string_output_adapter@_W@__crt_stdio_output@@V?$positional_parameter_base@_WV?$string_output_adapter@_W@__crt_stdio_output@@@2@@__crt_stdio_output@@AAE_NXZ@@__crt_stdio_output@@YAPAUansi_string@?1??type_case_Z@?$output_processor@_WV?$string_output_adapter@_W@__crt_stdio_output@@V?$positional_parameter_base@_WV?$string_output_adapter@_W@__crt_stdio_output@@@2@@0@AAE_NXZ@AAPAD@Z 10022bd2 f i libucrt:output.obj
 0001:00021be5       ??$read_va_arg@PAUansi_string@?1??type_case_Z@?$output_processor@_WV?$string_output_adapter@_W@__crt_stdio_output@@V?$standard_base@_WV?$string_output_adapter@_W@__crt_stdio_output@@@2@@__crt_stdio_output@@AAE_NXZ@@__crt_stdio_output@@YAPAUansi_string@?1??type_case_Z@?$output_processor@_WV?$string_output_adapter@_W@__crt_stdio_output@@V?$standard_base@_WV?$string_output_adapter@_W@__crt_stdio_output@@@2@@0@AAE_NXZ@AAPAD@Z 10022be5 f i libucrt:output.obj
 0001:00021bf8       ??$read_va_arg@PAX@__crt_stdio_output@@YAPAXAAPAD@Z 10022bf8 f i libucrt:output.obj
 0001:00021c0b       ??$read_va_arg@U_CRT_DOUBLE@@@__crt_stdio_output@@YA?AU_CRT_DOUBLE@@AAPAD@Z 10022c0b f i libucrt:output.obj
 0001:00021c21       ??$read_va_arg@_J@__crt_stdio_output@@YA_JAAPAD@Z 10022c21 f i libucrt:output.obj
 0001:00021c37       ??$read_va_arg@_K@__crt_stdio_output@@YA_KAAPAD@Z 10022c37 f i libucrt:output.obj
 0001:00021c4d       ??$read_va_arg@_W@__crt_stdio_output@@YA_WAAPAD@Z 10022c4d f i libucrt:output.obj
 0001:00021c61       ??$scratch_count@D@formatting_buffer@__crt_stdio_output@@QBEIXZ 10022c61 f i libucrt:output.obj
 0001:00021c66       ??$scratch_data@D@formatting_buffer@__crt_stdio_output@@QAEPADXZ 10022c66 f i libucrt:output.obj
 0001:00021c84       ??$type_case_integer@$07@?$output_processor@DV?$stream_output_adapter@D@__crt_stdio_output@@V?$format_validation_base@DV?$stream_output_adapter@D@__crt_stdio_output@@@2@@__crt_stdio_output@@AAE_N_N@Z 10022c84 f i libucrt:output.obj
 0001:00021e11       ??$type_case_integer@$07@?$output_processor@DV?$stream_output_adapter@D@__crt_stdio_output@@V?$positional_parameter_base@DV?$stream_output_adapter@D@__crt_stdio_output@@@2@@__crt_stdio_output@@AAE_N_N@Z 10022e11 f i libucrt:output.obj
 0001:00021fad       ??$type_case_integer@$07@?$output_processor@DV?$stream_output_adapter@D@__crt_stdio_output@@V?$standard_base@DV?$stream_output_adapter@D@__crt_stdio_output@@@2@@__crt_stdio_output@@AAE_N_N@Z 10022fad f i libucrt:output.obj
 0001:0002213a       ??$type_case_integer@$07@?$output_processor@DV?$string_output_adapter@D@__crt_stdio_output@@V?$format_validation_base@DV?$string_output_adapter@D@__crt_stdio_output@@@2@@__crt_stdio_output@@AAE_N_N@Z 1002313a f i libucrt:output.obj
 0001:000222c7       ??$type_case_integer@$07@?$output_processor@DV?$string_output_adapter@D@__crt_stdio_output@@V?$positional_parameter_base@DV?$string_output_adapter@D@__crt_stdio_output@@@2@@__crt_stdio_output@@AAE_N_N@Z 100232c7 f i libucrt:output.obj
 0001:00022463       ??$type_case_integer@$07@?$output_processor@DV?$string_output_adapter@D@__crt_stdio_output@@V?$standard_base@DV?$string_output_adapter@D@__crt_stdio_output@@@2@@__crt_stdio_output@@AAE_N_N@Z 10023463 f i libucrt:output.obj
 0001:000225f0       ??$type_case_integer@$07@?$output_processor@_WV?$stream_output_adapter@_W@__crt_stdio_output@@V?$format_validation_base@_WV?$stream_output_adapter@_W@__crt_stdio_output@@@2@@__crt_stdio_output@@AAE_N_N@Z 100235f0 f i libucrt:output.obj
 0001:00022782       ??$type_case_integer@$07@?$output_processor@_WV?$stream_output_adapter@_W@__crt_stdio_output@@V?$positional_parameter_base@_WV?$stream_output_adapter@_W@__crt_stdio_output@@@2@@__crt_stdio_output@@AAE_N_N@Z 10023782 f i libucrt:output.obj
 0001:00022922       ??$type_case_integer@$07@?$output_processor@_WV?$stream_output_adapter@_W@__crt_stdio_output@@V?$standard_base@_WV?$stream_output_adapter@_W@__crt_stdio_output@@@2@@__crt_stdio_output@@AAE_N_N@Z 10023922 f i libucrt:output.obj
 0001:00022ab4       ??$type_case_integer@$07@?$output_processor@_WV?$string_output_adapter@_W@__crt_stdio_output@@V?$format_validation_base@_WV?$string_output_adapter@_W@__crt_stdio_output@@@2@@__crt_stdio_output@@AAE_N_N@Z 10023ab4 f i libucrt:output.obj
 0001:00022c46       ??$type_case_integer@$07@?$output_processor@_WV?$string_output_adapter@_W@__crt_stdio_output@@V?$positional_parameter_base@_WV?$string_output_adapter@_W@__crt_stdio_output@@@2@@__crt_stdio_output@@AAE_N_N@Z 10023c46 f i libucrt:output.obj
 0001:00022de6       ??$type_case_integer@$07@?$output_processor@_WV?$string_output_adapter@_W@__crt_stdio_output@@V?$standard_base@_WV?$string_output_adapter@_W@__crt_stdio_output@@@2@@__crt_stdio_output@@AAE_N_N@Z 10023de6 f i libucrt:output.obj
 0001:00022f78       ??$type_case_integer@$09@?$output_processor@DV?$stream_output_adapter@D@__crt_stdio_output@@V?$format_validation_base@DV?$stream_output_adapter@D@__crt_stdio_output@@@2@@__crt_stdio_output@@AAE_N_N@Z 10023f78 f i libucrt:output.obj
 0001:00023105       ??$type_case_integer@$09@?$output_processor@DV?$stream_output_adapter@D@__crt_stdio_output@@V?$positional_parameter_base@DV?$stream_output_adapter@D@__crt_stdio_output@@@2@@__crt_stdio_output@@AAE_N_N@Z 10024105 f i libucrt:output.obj
 0001:000232a1       ??$type_case_integer@$09@?$output_processor@DV?$stream_output_adapter@D@__crt_stdio_output@@V?$standard_base@DV?$stream_output_adapter@D@__crt_stdio_output@@@2@@__crt_stdio_output@@AAE_N_N@Z 100242a1 f i libucrt:output.obj
 0001:0002342e       ??$type_case_integer@$09@?$output_processor@DV?$string_output_adapter@D@__crt_stdio_output@@V?$format_validation_base@DV?$string_output_adapter@D@__crt_stdio_output@@@2@@__crt_stdio_output@@AAE_N_N@Z 1002442e f i libucrt:output.obj
 0001:000235bb       ??$type_case_integer@$09@?$output_processor@DV?$string_output_adapter@D@__crt_stdio_output@@V?$positional_parameter_base@DV?$string_output_adapter@D@__crt_stdio_output@@@2@@__crt_stdio_output@@AAE_N_N@Z 100245bb f i libucrt:output.obj
 0001:00023757       ??$type_case_integer@$09@?$output_processor@DV?$string_output_adapter@D@__crt_stdio_output@@V?$standard_base@DV?$string_output_adapter@D@__crt_stdio_output@@@2@@__crt_stdio_output@@AAE_N_N@Z 10024757 f i libucrt:output.obj
 0001:000238e4       ??$type_case_integer@$09@?$output_processor@_WV?$stream_output_adapter@_W@__crt_stdio_output@@V?$format_validation_base@_WV?$stream_output_adapter@_W@__crt_stdio_output@@@2@@__crt_stdio_output@@AAE_N_N@Z 100248e4 f i libucrt:output.obj
 0001:00023a76       ??$type_case_integer@$09@?$output_processor@_WV?$stream_output_adapter@_W@__crt_stdio_output@@V?$positional_parameter_base@_WV?$stream_output_adapter@_W@__crt_stdio_output@@@2@@__crt_stdio_output@@AAE_N_N@Z 10024a76 f i libucrt:output.obj
 0001:00023c16       ??$type_case_integer@$09@?$output_processor@_WV?$stream_output_adapter@_W@__crt_stdio_output@@V?$standard_base@_WV?$stream_output_adapter@_W@__crt_stdio_output@@@2@@__crt_stdio_output@@AAE_N_N@Z 10024c16 f i libucrt:output.obj
 0001:00023da8       ??$type_case_integer@$09@?$output_processor@_WV?$string_output_adapter@_W@__crt_stdio_output@@V?$format_validation_base@_WV?$string_output_adapter@_W@__crt_stdio_output@@@2@@__crt_stdio_output@@AAE_N_N@Z 10024da8 f i libucrt:output.obj
 0001:00023f3a       ??$type_case_integer@$09@?$output_processor@_WV?$string_output_adapter@_W@__crt_stdio_output@@V?$positional_parameter_base@_WV?$string_output_adapter@_W@__crt_stdio_output@@@2@@__crt_stdio_output@@AAE_N_N@Z 10024f3a f i libucrt:output.obj
 0001:000240da       ??$type_case_integer@$09@?$output_processor@_WV?$string_output_adapter@_W@__crt_stdio_output@@V?$standard_base@_WV?$string_output_adapter@_W@__crt_stdio_output@@@2@@__crt_stdio_output@@AAE_N_N@Z 100250da f i libucrt:output.obj
 0001:0002426c       ??$type_case_integer@$0BA@@?$output_processor@DV?$stream_output_adapter@D@__crt_stdio_output@@V?$format_validation_base@DV?$stream_output_adapter@D@__crt_stdio_output@@@2@@__crt_stdio_output@@AAE_N_N@Z 1002526c f i libucrt:output.obj
 0001:000243f9       ??$type_case_integer@$0BA@@?$output_processor@DV?$stream_output_adapter@D@__crt_stdio_output@@V?$positional_parameter_base@DV?$stream_output_adapter@D@__crt_stdio_output@@@2@@__crt_stdio_output@@AAE_N_N@Z 100253f9 f i libucrt:output.obj
 0001:00024595       ??$type_case_integer@$0BA@@?$output_processor@DV?$stream_output_adapter@D@__crt_stdio_output@@V?$standard_base@DV?$stream_output_adapter@D@__crt_stdio_output@@@2@@__crt_stdio_output@@AAE_N_N@Z 10025595 f i libucrt:output.obj
 0001:00024722       ??$type_case_integer@$0BA@@?$output_processor@DV?$string_output_adapter@D@__crt_stdio_output@@V?$format_validation_base@DV?$string_output_adapter@D@__crt_stdio_output@@@2@@__crt_stdio_output@@AAE_N_N@Z 10025722 f i libucrt:output.obj
 0001:000248af       ??$type_case_integer@$0BA@@?$output_processor@DV?$string_output_adapter@D@__crt_stdio_output@@V?$positional_parameter_base@DV?$string_output_adapter@D@__crt_stdio_output@@@2@@__crt_stdio_output@@AAE_N_N@Z 100258af f i libucrt:output.obj
 0001:00024a4b       ??$type_case_integer@$0BA@@?$output_processor@DV?$string_output_adapter@D@__crt_stdio_output@@V?$standard_base@DV?$string_output_adapter@D@__crt_stdio_output@@@2@@__crt_stdio_output@@AAE_N_N@Z 10025a4b f i libucrt:output.obj
 0001:00024bd8       ??$type_case_integer@$0BA@@?$output_processor@_WV?$stream_output_adapter@_W@__crt_stdio_output@@V?$format_validation_base@_WV?$stream_output_adapter@_W@__crt_stdio_output@@@2@@__crt_stdio_output@@AAE_N_N@Z 10025bd8 f i libucrt:output.obj
 0001:00024d6a       ??$type_case_integer@$0BA@@?$output_processor@_WV?$stream_output_adapter@_W@__crt_stdio_output@@V?$positional_parameter_base@_WV?$stream_output_adapter@_W@__crt_stdio_output@@@2@@__crt_stdio_output@@AAE_N_N@Z 10025d6a f i libucrt:output.obj
 0001:00024f0a       ??$type_case_integer@$0BA@@?$output_processor@_WV?$stream_output_adapter@_W@__crt_stdio_output@@V?$standard_base@_WV?$stream_output_adapter@_W@__crt_stdio_output@@@2@@__crt_stdio_output@@AAE_N_N@Z 10025f0a f i libucrt:output.obj
 0001:0002509c       ??$type_case_integer@$0BA@@?$output_processor@_WV?$string_output_adapter@_W@__crt_stdio_output@@V?$format_validation_base@_WV?$string_output_adapter@_W@__crt_stdio_output@@@2@@__crt_stdio_output@@AAE_N_N@Z 1002609c f i libucrt:output.obj
 0001:0002522e       ??$type_case_integer@$0BA@@?$output_processor@_WV?$string_output_adapter@_W@__crt_stdio_output@@V?$positional_parameter_base@_WV?$string_output_adapter@_W@__crt_stdio_output@@@2@@__crt_stdio_output@@AAE_N_N@Z 1002622e f i libucrt:output.obj
 0001:000253ce       ??$type_case_integer@$0BA@@?$output_processor@_WV?$string_output_adapter@_W@__crt_stdio_output@@V?$standard_base@_WV?$string_output_adapter@_W@__crt_stdio_output@@@2@@__crt_stdio_output@@AAE_N_N@Z 100263ce f i libucrt:output.obj
 0001:00025560       ??$type_case_integer_parse_into_buffer@I$07@?$output_processor@DV?$stream_output_adapter@D@__crt_stdio_output@@V?$format_validation_base@DV?$stream_output_adapter@D@__crt_stdio_output@@@2@@__crt_stdio_output@@AAEXI_N@Z 10026560 f i libucrt:output.obj
 0001:000255c3       ??$type_case_integer_parse_into_buffer@I$07@?$output_processor@DV?$stream_output_adapter@D@__crt_stdio_output@@V?$positional_parameter_base@DV?$stream_output_adapter@D@__crt_stdio_output@@@2@@__crt_stdio_output@@AAEXI_N@Z 100265c3 f i libucrt:output.obj
 0001:00025626       ??$type_case_integer_parse_into_buffer@I$07@?$output_processor@DV?$stream_output_adapter@D@__crt_stdio_output@@V?$standard_base@DV?$stream_output_adapter@D@__crt_stdio_output@@@2@@__crt_stdio_output@@AAEXI_N@Z 10026626 f i libucrt:output.obj
 0001:00025689       ??$type_case_integer_parse_into_buffer@I$07@?$output_processor@DV?$string_output_adapter@D@__crt_stdio_output@@V?$format_validation_base@DV?$string_output_adapter@D@__crt_stdio_output@@@2@@__crt_stdio_output@@AAEXI_N@Z 10026689 f i libucrt:output.obj
 0001:000256ec       ??$type_case_integer_parse_into_buffer@I$07@?$output_processor@DV?$string_output_adapter@D@__crt_stdio_output@@V?$positional_parameter_base@DV?$string_output_adapter@D@__crt_stdio_output@@@2@@__crt_stdio_output@@AAEXI_N@Z 100266ec f i libucrt:output.obj
 0001:0002574f       ??$type_case_integer_parse_into_buffer@I$07@?$output_processor@DV?$string_output_adapter@D@__crt_stdio_output@@V?$standard_base@DV?$string_output_adapter@D@__crt_stdio_output@@@2@@__crt_stdio_output@@AAEXI_N@Z 1002674f f i libucrt:output.obj
 0001:000257b2       ??$type_case_integer_parse_into_buffer@I$07@?$output_processor@_WV?$stream_output_adapter@_W@__crt_stdio_output@@V?$format_validation_base@_WV?$stream_output_adapter@_W@__crt_stdio_output@@@2@@__crt_stdio_output@@AAEXI_N@Z 100267b2 f i libucrt:output.obj
 0001:00025825       ??$type_case_integer_parse_into_buffer@I$07@?$output_processor@_WV?$stream_output_adapter@_W@__crt_stdio_output@@V?$positional_parameter_base@_WV?$stream_output_adapter@_W@__crt_stdio_output@@@2@@__crt_stdio_output@@AAEXI_N@Z 10026825 f i libucrt:output.obj
 0001:00025898       ??$type_case_integer_parse_into_buffer@I$07@?$output_processor@_WV?$stream_output_adapter@_W@__crt_stdio_output@@V?$standard_base@_WV?$stream_output_adapter@_W@__crt_stdio_output@@@2@@__crt_stdio_output@@AAEXI_N@Z 10026898 f i libucrt:output.obj
 0001:0002590b       ??$type_case_integer_parse_into_buffer@I$07@?$output_processor@_WV?$string_output_adapter@_W@__crt_stdio_output@@V?$format_validation_base@_WV?$string_output_adapter@_W@__crt_stdio_output@@@2@@__crt_stdio_output@@AAEXI_N@Z 1002690b f i libucrt:output.obj
 0001:0002597e       ??$type_case_integer_parse_into_buffer@I$07@?$output_processor@_WV?$string_output_adapter@_W@__crt_stdio_output@@V?$positional_parameter_base@_WV?$string_output_adapter@_W@__crt_stdio_output@@@2@@__crt_stdio_output@@AAEXI_N@Z 1002697e f i libucrt:output.obj
 0001:000259f1       ??$type_case_integer_parse_into_buffer@I$07@?$output_processor@_WV?$string_output_adapter@_W@__crt_stdio_output@@V?$standard_base@_WV?$string_output_adapter@_W@__crt_stdio_output@@@2@@__crt_stdio_output@@AAEXI_N@Z 100269f1 f i libucrt:output.obj
 0001:00025a64       ??$type_case_integer_parse_into_buffer@I$09@?$output_processor@DV?$stream_output_adapter@D@__crt_stdio_output@@V?$format_validation_base@DV?$stream_output_adapter@D@__crt_stdio_output@@@2@@__crt_stdio_output@@AAEXI_N@Z 10026a64 f i libucrt:output.obj
 0001:00025aeb       ??$type_case_integer_parse_into_buffer@I$09@?$output_processor@DV?$stream_output_adapter@D@__crt_stdio_output@@V?$positional_parameter_base@DV?$stream_output_adapter@D@__crt_stdio_output@@@2@@__crt_stdio_output@@AAEXI_N@Z 10026aeb f i libucrt:output.obj
 0001:00025b72       ??$type_case_integer_parse_into_buffer@I$09@?$output_processor@DV?$stream_output_adapter@D@__crt_stdio_output@@V?$standard_base@DV?$stream_output_adapter@D@__crt_stdio_output@@@2@@__crt_stdio_output@@AAEXI_N@Z 10026b72 f i libucrt:output.obj
 0001:00025bf9       ??$type_case_integer_parse_into_buffer@I$09@?$output_processor@DV?$string_output_adapter@D@__crt_stdio_output@@V?$format_validation_base@DV?$string_output_adapter@D@__crt_stdio_output@@@2@@__crt_stdio_output@@AAEXI_N@Z 10026bf9 f i libucrt:output.obj
 0001:00025c80       ??$type_case_integer_parse_into_buffer@I$09@?$output_processor@DV?$string_output_adapter@D@__crt_stdio_output@@V?$positional_parameter_base@DV?$string_output_adapter@D@__crt_stdio_output@@@2@@__crt_stdio_output@@AAEXI_N@Z 10026c80 f i libucrt:output.obj
 0001:00025d07       ??$type_case_integer_parse_into_buffer@I$09@?$output_processor@DV?$string_output_adapter@D@__crt_stdio_output@@V?$standard_base@DV?$string_output_adapter@D@__crt_stdio_output@@@2@@__crt_stdio_output@@AAEXI_N@Z 10026d07 f i libucrt:output.obj
 0001:00025d8e       ??$type_case_integer_parse_into_buffer@I$09@?$output_processor@_WV?$stream_output_adapter@_W@__crt_stdio_output@@V?$format_validation_base@_WV?$stream_output_adapter@_W@__crt_stdio_output@@@2@@__crt_stdio_output@@AAEXI_N@Z 10026d8e f i libucrt:output.obj
 0001:00025e2a       ??$type_case_integer_parse_into_buffer@I$09@?$output_processor@_WV?$stream_output_adapter@_W@__crt_stdio_output@@V?$positional_parameter_base@_WV?$stream_output_adapter@_W@__crt_stdio_output@@@2@@__crt_stdio_output@@AAEXI_N@Z 10026e2a f i libucrt:output.obj
 0001:00025ec6       ??$type_case_integer_parse_into_buffer@I$09@?$output_processor@_WV?$stream_output_adapter@_W@__crt_stdio_output@@V?$standard_base@_WV?$stream_output_adapter@_W@__crt_stdio_output@@@2@@__crt_stdio_output@@AAEXI_N@Z 10026ec6 f i libucrt:output.obj
 0001:00025f62       ??$type_case_integer_parse_into_buffer@I$09@?$output_processor@_WV?$string_output_adapter@_W@__crt_stdio_output@@V?$format_validation_base@_WV?$string_output_adapter@_W@__crt_stdio_output@@@2@@__crt_stdio_output@@AAEXI_N@Z 10026f62 f i libucrt:output.obj
 0001:00025ffe       ??$type_case_integer_parse_into_buffer@I$09@?$output_processor@_WV?$string_output_adapter@_W@__crt_stdio_output@@V?$positional_parameter_base@_WV?$string_output_adapter@_W@__crt_stdio_output@@@2@@__crt_stdio_output@@AAEXI_N@Z 10026ffe f i libucrt:output.obj
 0001:0002609a       ??$type_case_integer_parse_into_buffer@I$09@?$output_processor@_WV?$string_output_adapter@_W@__crt_stdio_output@@V?$standard_base@_WV?$string_output_adapter@_W@__crt_stdio_output@@@2@@__crt_stdio_output@@AAEXI_N@Z 1002709a f i libucrt:output.obj
 0001:00026136       ??$type_case_integer_parse_into_buffer@I$0BA@@?$output_processor@DV?$stream_output_adapter@D@__crt_stdio_output@@V?$format_validation_base@DV?$stream_output_adapter@D@__crt_stdio_output@@@2@@__crt_stdio_output@@AAEXI_N@Z 10027136 f i libucrt:output.obj
 0001:000261b3       ??$type_case_integer_parse_into_buffer@I$0BA@@?$output_processor@DV?$stream_output_adapter@D@__crt_stdio_output@@V?$positional_parameter_base@DV?$stream_output_adapter@D@__crt_stdio_output@@@2@@__crt_stdio_output@@AAEXI_N@Z 100271b3 f i libucrt:output.obj
 0001:00026230       ??$type_case_integer_parse_into_buffer@I$0BA@@?$output_processor@DV?$stream_output_adapter@D@__crt_stdio_output@@V?$standard_base@DV?$stream_output_adapter@D@__crt_stdio_output@@@2@@__crt_stdio_output@@AAEXI_N@Z 10027230 f i libucrt:output.obj
 0001:000262ad       ??$type_case_integer_parse_into_buffer@I$0BA@@?$output_processor@DV?$string_output_adapter@D@__crt_stdio_output@@V?$format_validation_base@DV?$string_output_adapter@D@__crt_stdio_output@@@2@@__crt_stdio_output@@AAEXI_N@Z 100272ad f i libucrt:output.obj
 0001:0002632a       ??$type_case_integer_parse_into_buffer@I$0BA@@?$output_processor@DV?$string_output_adapter@D@__crt_stdio_output@@V?$positional_parameter_base@DV?$string_output_adapter@D@__crt_stdio_output@@@2@@__crt_stdio_output@@AAEXI_N@Z 1002732a f i libucrt:output.obj
 0001:000263a7       ??$type_case_integer_parse_into_buffer@I$0BA@@?$output_processor@DV?$string_output_adapter@D@__crt_stdio_output@@V?$standard_base@DV?$string_output_adapter@D@__crt_stdio_output@@@2@@__crt_stdio_output@@AAEXI_N@Z 100273a7 f i libucrt:output.obj
 0001:00026424       ??$type_case_integer_parse_into_buffer@I$0BA@@?$output_processor@_WV?$stream_output_adapter@_W@__crt_stdio_output@@V?$format_validation_base@_WV?$stream_output_adapter@_W@__crt_stdio_output@@@2@@__crt_stdio_output@@AAEXI_N@Z 10027424 f i libucrt:output.obj
 0001:000264ae       ??$type_case_integer_parse_into_buffer@I$0BA@@?$output_processor@_WV?$stream_output_adapter@_W@__crt_stdio_output@@V?$positional_parameter_base@_WV?$stream_output_adapter@_W@__crt_stdio_output@@@2@@__crt_stdio_output@@AAEXI_N@Z 100274ae f i libucrt:output.obj
 0001:00026538       ??$type_case_integer_parse_into_buffer@I$0BA@@?$output_processor@_WV?$stream_output_adapter@_W@__crt_stdio_output@@V?$standard_base@_WV?$stream_output_adapter@_W@__crt_stdio_output@@@2@@__crt_stdio_output@@AAEXI_N@Z 10027538 f i libucrt:output.obj
 0001:000265c2       ??$type_case_integer_parse_into_buffer@I$0BA@@?$output_processor@_WV?$string_output_adapter@_W@__crt_stdio_output@@V?$format_validation_base@_WV?$string_output_adapter@_W@__crt_stdio_output@@@2@@__crt_stdio_output@@AAEXI_N@Z 100275c2 f i libucrt:output.obj
 0001:0002664c       ??$type_case_integer_parse_into_buffer@I$0BA@@?$output_processor@_WV?$string_output_adapter@_W@__crt_stdio_output@@V?$positional_parameter_base@_WV?$string_output_adapter@_W@__crt_stdio_output@@@2@@__crt_stdio_output@@AAEXI_N@Z 1002764c f i libucrt:output.obj
 0001:000266d6       ??$type_case_integer_parse_into_buffer@I$0BA@@?$output_processor@_WV?$string_output_adapter@_W@__crt_stdio_output@@V?$standard_base@_WV?$string_output_adapter@_W@__crt_stdio_output@@@2@@__crt_stdio_output@@AAEXI_N@Z 100276d6 f i libucrt:output.obj
 0001:00026760       ??$type_case_integer_parse_into_buffer@_K$07@?$output_processor@DV?$stream_output_adapter@D@__crt_stdio_output@@V?$format_validation_base@DV?$stream_output_adapter@D@__crt_stdio_output@@@2@@__crt_stdio_output@@AAEX_K_N@Z 10027760 f i libucrt:output.obj
 0001:000267d8       ??$type_case_integer_parse_into_buffer@_K$07@?$output_processor@DV?$stream_output_adapter@D@__crt_stdio_output@@V?$positional_parameter_base@DV?$stream_output_adapter@D@__crt_stdio_output@@@2@@__crt_stdio_output@@AAEX_K_N@Z 100277d8 f i libucrt:output.obj
 0001:00026850       ??$type_case_integer_parse_into_buffer@_K$07@?$output_processor@DV?$stream_output_adapter@D@__crt_stdio_output@@V?$standard_base@DV?$stream_output_adapter@D@__crt_stdio_output@@@2@@__crt_stdio_output@@AAEX_K_N@Z 10027850 f i libucrt:output.obj
 0001:000268c8       ??$type_case_integer_parse_into_buffer@_K$07@?$output_processor@DV?$string_output_adapter@D@__crt_stdio_output@@V?$format_validation_base@DV?$string_output_adapter@D@__crt_stdio_output@@@2@@__crt_stdio_output@@AAEX_K_N@Z 100278c8 f i libucrt:output.obj
 0001:00026940       ??$type_case_integer_parse_into_buffer@_K$07@?$output_processor@DV?$string_output_adapter@D@__crt_stdio_output@@V?$positional_parameter_base@DV?$string_output_adapter@D@__crt_stdio_output@@@2@@__crt_stdio_output@@AAEX_K_N@Z 10027940 f i libucrt:output.obj
 0001:000269b8       ??$type_case_integer_parse_into_buffer@_K$07@?$output_processor@DV?$string_output_adapter@D@__crt_stdio_output@@V?$standard_base@DV?$string_output_adapter@D@__crt_stdio_output@@@2@@__crt_stdio_output@@AAEX_K_N@Z 100279b8 f i libucrt:output.obj
 0001:00026a30       ??$type_case_integer_parse_into_buffer@_K$07@?$output_processor@_WV?$stream_output_adapter@_W@__crt_stdio_output@@V?$format_validation_base@_WV?$stream_output_adapter@_W@__crt_stdio_output@@@2@@__crt_stdio_output@@AAEX_K_N@Z 10027a30 f i libucrt:output.obj
 0001:00026ab7       ??$type_case_integer_parse_into_buffer@_K$07@?$output_processor@_WV?$stream_output_adapter@_W@__crt_stdio_output@@V?$positional_parameter_base@_WV?$stream_output_adapter@_W@__crt_stdio_output@@@2@@__crt_stdio_output@@AAEX_K_N@Z 10027ab7 f i libucrt:output.obj
 0001:00026b3e       ??$type_case_integer_parse_into_buffer@_K$07@?$output_processor@_WV?$stream_output_adapter@_W@__crt_stdio_output@@V?$standard_base@_WV?$stream_output_adapter@_W@__crt_stdio_output@@@2@@__crt_stdio_output@@AAEX_K_N@Z 10027b3e f i libucrt:output.obj
 0001:00026bc5       ??$type_case_integer_parse_into_buffer@_K$07@?$output_processor@_WV?$string_output_adapter@_W@__crt_stdio_output@@V?$format_validation_base@_WV?$string_output_adapter@_W@__crt_stdio_output@@@2@@__crt_stdio_output@@AAEX_K_N@Z 10027bc5 f i libucrt:output.obj
 0001:00026c4c       ??$type_case_integer_parse_into_buffer@_K$07@?$output_processor@_WV?$string_output_adapter@_W@__crt_stdio_output@@V?$positional_parameter_base@_WV?$string_output_adapter@_W@__crt_stdio_output@@@2@@__crt_stdio_output@@AAEX_K_N@Z 10027c4c f i libucrt:output.obj
 0001:00026cd3       ??$type_case_integer_parse_into_buffer@_K$07@?$output_processor@_WV?$string_output_adapter@_W@__crt_stdio_output@@V?$standard_base@_WV?$string_output_adapter@_W@__crt_stdio_output@@@2@@__crt_stdio_output@@AAEX_K_N@Z 10027cd3 f i libucrt:output.obj
 0001:00026d5a       ??$type_case_integer_parse_into_buffer@_K$09@?$output_processor@DV?$stream_output_adapter@D@__crt_stdio_output@@V?$format_validation_base@DV?$stream_output_adapter@D@__crt_stdio_output@@@2@@__crt_stdio_output@@AAEX_K_N@Z 10027d5a f i libucrt:output.obj
 0001:00026e01       ??$type_case_integer_parse_into_buffer@_K$09@?$output_processor@DV?$stream_output_adapter@D@__crt_stdio_output@@V?$positional_parameter_base@DV?$stream_output_adapter@D@__crt_stdio_output@@@2@@__crt_stdio_output@@AAEX_K_N@Z 10027e01 f i libucrt:output.obj
 0001:00026ea8       ??$type_case_integer_parse_into_buffer@_K$09@?$output_processor@DV?$stream_output_adapter@D@__crt_stdio_output@@V?$standard_base@DV?$stream_output_adapter@D@__crt_stdio_output@@@2@@__crt_stdio_output@@AAEX_K_N@Z 10027ea8 f i libucrt:output.obj
 0001:00026f4f       ??$type_case_integer_parse_into_buffer@_K$09@?$output_processor@DV?$string_output_adapter@D@__crt_stdio_output@@V?$format_validation_base@DV?$string_output_adapter@D@__crt_stdio_output@@@2@@__crt_stdio_output@@AAEX_K_N@Z 10027f4f f i libucrt:output.obj
 0001:00026ff6       ??$type_case_integer_parse_into_buffer@_K$09@?$output_processor@DV?$string_output_adapter@D@__crt_stdio_output@@V?$positional_parameter_base@DV?$string_output_adapter@D@__crt_stdio_output@@@2@@__crt_stdio_output@@AAEX_K_N@Z 10027ff6 f i libucrt:output.obj
 0001:0002709d       ??$type_case_integer_parse_into_buffer@_K$09@?$output_processor@DV?$string_output_adapter@D@__crt_stdio_output@@V?$standard_base@DV?$string_output_adapter@D@__crt_stdio_output@@@2@@__crt_stdio_output@@AAEX_K_N@Z 1002809d f i libucrt:output.obj
 0001:00027144       ??$type_case_integer_parse_into_buffer@_K$09@?$output_processor@_WV?$stream_output_adapter@_W@__crt_stdio_output@@V?$format_validation_base@_WV?$stream_output_adapter@_W@__crt_stdio_output@@@2@@__crt_stdio_output@@AAEX_K_N@Z 10028144 f i libucrt:output.obj
 0001:00027201       ??$type_case_integer_parse_into_buffer@_K$09@?$output_processor@_WV?$stream_output_adapter@_W@__crt_stdio_output@@V?$positional_parameter_base@_WV?$stream_output_adapter@_W@__crt_stdio_output@@@2@@__crt_stdio_output@@AAEX_K_N@Z 10028201 f i libucrt:output.obj
 0001:000272be       ??$type_case_integer_parse_into_buffer@_K$09@?$output_processor@_WV?$stream_output_adapter@_W@__crt_stdio_output@@V?$standard_base@_WV?$stream_output_adapter@_W@__crt_stdio_output@@@2@@__crt_stdio_output@@AAEX_K_N@Z 100282be f i libucrt:output.obj
 0001:0002737b       ??$type_case_integer_parse_into_buffer@_K$09@?$output_processor@_WV?$string_output_adapter@_W@__crt_stdio_output@@V?$format_validation_base@_WV?$string_output_adapter@_W@__crt_stdio_output@@@2@@__crt_stdio_output@@AAEX_K_N@Z 1002837b f i libucrt:output.obj
 0001:00027438       ??$type_case_integer_parse_into_buffer@_K$09@?$output_processor@_WV?$string_output_adapter@_W@__crt_stdio_output@@V?$positional_parameter_base@_WV?$string_output_adapter@_W@__crt_stdio_output@@@2@@__crt_stdio_output@@AAEX_K_N@Z 10028438 f i libucrt:output.obj
 0001:000274f5       ??$type_case_integer_parse_into_buffer@_K$09@?$output_processor@_WV?$string_output_adapter@_W@__crt_stdio_output@@V?$standard_base@_WV?$string_output_adapter@_W@__crt_stdio_output@@@2@@__crt_stdio_output@@AAEX_K_N@Z 100284f5 f i libucrt:output.obj
 0001:000275b2       ??$type_case_integer_parse_into_buffer@_K$0BA@@?$output_processor@DV?$stream_output_adapter@D@__crt_stdio_output@@V?$format_validation_base@DV?$stream_output_adapter@D@__crt_stdio_output@@@2@@__crt_stdio_output@@AAEX_K_N@Z 100285b2 f i libucrt:output.obj
 0001:0002763c       ??$type_case_integer_parse_into_buffer@_K$0BA@@?$output_processor@DV?$stream_output_adapter@D@__crt_stdio_output@@V?$positional_parameter_base@DV?$stream_output_adapter@D@__crt_stdio_output@@@2@@__crt_stdio_output@@AAEX_K_N@Z 1002863c f i libucrt:output.obj
 0001:000276c6       ??$type_case_integer_parse_into_buffer@_K$0BA@@?$output_processor@DV?$stream_output_adapter@D@__crt_stdio_output@@V?$standard_base@DV?$stream_output_adapter@D@__crt_stdio_output@@@2@@__crt_stdio_output@@AAEX_K_N@Z 100286c6 f i libucrt:output.obj
 0001:00027750       ??$type_case_integer_parse_into_buffer@_K$0BA@@?$output_processor@DV?$string_output_adapter@D@__crt_stdio_output@@V?$format_validation_base@DV?$string_output_adapter@D@__crt_stdio_output@@@2@@__crt_stdio_output@@AAEX_K_N@Z 10028750 f i libucrt:output.obj
 0001:000277da       ??$type_case_integer_parse_into_buffer@_K$0BA@@?$output_processor@DV?$string_output_adapter@D@__crt_stdio_output@@V?$positional_parameter_base@DV?$string_output_adapter@D@__crt_stdio_output@@@2@@__crt_stdio_output@@AAEX_K_N@Z 100287da f i libucrt:output.obj
 0001:00027864       ??$type_case_integer_parse_into_buffer@_K$0BA@@?$output_processor@DV?$string_output_adapter@D@__crt_stdio_output@@V?$standard_base@DV?$string_output_adapter@D@__crt_stdio_output@@@2@@__crt_stdio_output@@AAEX_K_N@Z 10028864 f i libucrt:output.obj
 0001:000278ee       ??$type_case_integer_parse_into_buffer@_K$0BA@@?$output_processor@_WV?$stream_output_adapter@_W@__crt_stdio_output@@V?$format_validation_base@_WV?$stream_output_adapter@_W@__crt_stdio_output@@@2@@__crt_stdio_output@@AAEX_K_N@Z 100288ee f i libucrt:output.obj
 0001:00027984       ??$type_case_integer_parse_into_buffer@_K$0BA@@?$output_processor@_WV?$stream_output_adapter@_W@__crt_stdio_output@@V?$positional_parameter_base@_WV?$stream_output_adapter@_W@__crt_stdio_output@@@2@@__crt_stdio_output@@AAEX_K_N@Z 10028984 f i libucrt:output.obj
 0001:00027a1a       ??$type_case_integer_parse_into_buffer@_K$0BA@@?$output_processor@_WV?$stream_output_adapter@_W@__crt_stdio_output@@V?$standard_base@_WV?$stream_output_adapter@_W@__crt_stdio_output@@@2@@__crt_stdio_output@@AAEX_K_N@Z 10028a1a f i libucrt:output.obj
 0001:00027ab0       ??$type_case_integer_parse_into_buffer@_K$0BA@@?$output_processor@_WV?$string_output_adapter@_W@__crt_stdio_output@@V?$format_validation_base@_WV?$string_output_adapter@_W@__crt_stdio_output@@@2@@__crt_stdio_output@@AAEX_K_N@Z 10028ab0 f i libucrt:output.obj
 0001:00027b46       ??$type_case_integer_parse_into_buffer@_K$0BA@@?$output_processor@_WV?$string_output_adapter@_W@__crt_stdio_output@@V?$positional_parameter_base@_WV?$string_output_adapter@_W@__crt_stdio_output@@@2@@__crt_stdio_output@@AAEX_K_N@Z 10028b46 f i libucrt:output.obj
 0001:00027bdc       ??$type_case_integer_parse_into_buffer@_K$0BA@@?$output_processor@_WV?$string_output_adapter@_W@__crt_stdio_output@@V?$standard_base@_WV?$string_output_adapter@_W@__crt_stdio_output@@@2@@__crt_stdio_output@@AAEX_K_N@Z 10028bdc f i libucrt:output.obj
 0001:00027c72       ??$write_multiple_characters@V?$stream_output_adapter@D@__crt_stdio_output@@D@__crt_stdio_output@@YAXABV?$stream_output_adapter@D@0@DHQAHAAV__crt_cached_ptd_host@@@Z 10028c72 f i libucrt:output.obj
 0001:00027ca1       ??$write_multiple_characters@V?$stream_output_adapter@_W@__crt_stdio_output@@D@__crt_stdio_output@@YAXABV?$stream_output_adapter@_W@0@DHQAHAAV__crt_cached_ptd_host@@@Z 10028ca1 f i libucrt:output.obj
 0001:00027cd5       ??$write_multiple_characters@V?$string_output_adapter@D@__crt_stdio_output@@D@__crt_stdio_output@@YAXABV?$string_output_adapter@D@0@DHQAHAAV__crt_cached_ptd_host@@@Z 10028cd5 f i libucrt:output.obj
 0001:00027d38       ??$write_multiple_characters@V?$string_output_adapter@_W@__crt_stdio_output@@D@__crt_stdio_output@@YAXABV?$string_output_adapter@_W@0@DHQAHAAV__crt_cached_ptd_host@@@Z 10028d38 f i libucrt:output.obj
 0001:00027f67       ??0?$c_string_character_source@D@__crt_strtox@@QAE@QBDQAPBD@Z 10028f67 f i libucrt:output.obj
 0001:00027f83       ??0?$c_string_character_source@_W@__crt_strtox@@QAE@QB_WQAPB_W@Z 10028f83 f i libucrt:output.obj
 0001:00027f9f       ??0?$common_data@D@__crt_stdio_output@@IAE@AAV__crt_cached_ptd_host@@@Z 10028f9f f i libucrt:output.obj
 0001:00027fe6       ??0?$common_data@_W@__crt_stdio_output@@IAE@AAV__crt_cached_ptd_host@@@Z 10028fe6 f i libucrt:output.obj
 0001:00028032       ??0?$output_adapter_data@DV?$stream_output_adapter@D@__crt_stdio_output@@@__crt_stdio_output@@IAE@ABV?$stream_output_adapter@D@1@_KQBDAAV__crt_cached_ptd_host@@QAD@Z 10029032 f i libucrt:output.obj
 0001:00028099       ??0?$output_adapter_data@DV?$string_output_adapter@D@__crt_stdio_output@@@__crt_stdio_output@@IAE@ABV?$string_output_adapter@D@1@_KQBDAAV__crt_cached_ptd_host@@QAD@Z 10029099 f i libucrt:output.obj
 0001:00028100       ??0?$output_adapter_data@_WV?$stream_output_adapter@_W@__crt_stdio_output@@@__crt_stdio_output@@IAE@ABV?$stream_output_adapter@_W@1@_KQB_WAAV__crt_cached_ptd_host@@QAD@Z 10029100 f i libucrt:output.obj
 0001:0002816c       ??0?$output_adapter_data@_WV?$string_output_adapter@_W@__crt_stdio_output@@@__crt_stdio_output@@IAE@ABV?$string_output_adapter@_W@1@_KQB_WAAV__crt_cached_ptd_host@@QAD@Z 1002916c f i libucrt:output.obj
 0001:000281d8       ??0?$output_processor@DV?$stream_output_adapter@D@__crt_stdio_output@@V?$format_validation_base@DV?$stream_output_adapter@D@__crt_stdio_output@@@2@@__crt_stdio_output@@QAE@ABV?$stream_output_adapter@D@1@_KQBDAAV__crt_cached_ptd_host@@QAD@Z 100291d8 f i libucrt:output.obj
 0001:00028205       ??0?$output_processor@DV?$stream_output_adapter@D@__crt_stdio_output@@V?$positional_parameter_base@DV?$stream_output_adapter@D@__crt_stdio_output@@@2@@__crt_stdio_output@@QAE@ABV?$stream_output_adapter@D@1@_KQBDAAV__crt_cached_ptd_host@@QAD@Z 10029205 f i libucrt:output.obj
 0001:0002822b       ??0?$output_processor@DV?$stream_output_adapter@D@__crt_stdio_output@@V?$standard_base@DV?$stream_output_adapter@D@__crt_stdio_output@@@2@@__crt_stdio_output@@QAE@ABV?$stream_output_adapter@D@1@_KQBDAAV__crt_cached_ptd_host@@QAD@Z 1002922b f i libucrt:output.obj
 0001:00028258       ??0?$output_processor@DV?$string_output_adapter@D@__crt_stdio_output@@V?$format_validation_base@DV?$string_output_adapter@D@__crt_stdio_output@@@2@@__crt_stdio_output@@QAE@ABV?$string_output_adapter@D@1@_KQBDAAV__crt_cached_ptd_host@@QAD@Z 10029258 f i libucrt:output.obj
 0001:00028285       ??0?$output_processor@DV?$string_output_adapter@D@__crt_stdio_output@@V?$positional_parameter_base@DV?$string_output_adapter@D@__crt_stdio_output@@@2@@__crt_stdio_output@@QAE@ABV?$string_output_adapter@D@1@_KQBDAAV__crt_cached_ptd_host@@QAD@Z 10029285 f i libucrt:output.obj
 0001:000282ab       ??0?$output_processor@DV?$string_output_adapter@D@__crt_stdio_output@@V?$standard_base@DV?$string_output_adapter@D@__crt_stdio_output@@@2@@__crt_stdio_output@@QAE@ABV?$string_output_adapter@D@1@_KQBDAAV__crt_cached_ptd_host@@QAD@Z 100292ab f i libucrt:output.obj
 0001:000282d8       ??0?$output_processor@_WV?$stream_output_adapter@_W@__crt_stdio_output@@V?$format_validation_base@_WV?$stream_output_adapter@_W@__crt_stdio_output@@@2@@__crt_stdio_output@@QAE@ABV?$stream_output_adapter@_W@1@_KQB_WAAV__crt_cached_ptd_host@@QAD@Z 100292d8 f i libucrt:output.obj
 0001:00028305       ??0?$output_processor@_WV?$stream_output_adapter@_W@__crt_stdio_output@@V?$positional_parameter_base@_WV?$stream_output_adapter@_W@__crt_stdio_output@@@2@@__crt_stdio_output@@QAE@ABV?$stream_output_adapter@_W@1@_KQB_WAAV__crt_cached_ptd_host@@QAD@Z 10029305 f i libucrt:output.obj
 0001:0002832b       ??0?$output_processor@_WV?$stream_output_adapter@_W@__crt_stdio_output@@V?$standard_base@_WV?$stream_output_adapter@_W@__crt_stdio_output@@@2@@__crt_stdio_output@@QAE@ABV?$stream_output_adapter@_W@1@_KQB_WAAV__crt_cached_ptd_host@@QAD@Z 1002932b f i libucrt:output.obj
 0001:00028358       ??0?$output_processor@_WV?$string_output_adapter@_W@__crt_stdio_output@@V?$format_validation_base@_WV?$string_output_adapter@_W@__crt_stdio_output@@@2@@__crt_stdio_output@@QAE@ABV?$string_output_adapter@_W@1@_KQB_WAAV__crt_cached_ptd_host@@QAD@Z 10029358 f i libucrt:output.obj
 0001:00028385       ??0?$output_processor@_WV?$string_output_adapter@_W@__crt_stdio_output@@V?$positional_parameter_base@_WV?$string_output_adapter@_W@__crt_stdio_output@@@2@@__crt_stdio_output@@QAE@ABV?$string_output_adapter@_W@1@_KQB_WAAV__crt_cached_ptd_host@@QAD@Z 10029385 f i libucrt:output.obj
 0001:000283ab       ??0?$output_processor@_WV?$string_output_adapter@_W@__crt_stdio_output@@V?$standard_base@_WV?$string_output_adapter@_W@__crt_stdio_output@@@2@@__crt_stdio_output@@QAE@ABV?$string_output_adapter@_W@1@_KQB_WAAV__crt_cached_ptd_host@@QAD@Z 100293ab f i libucrt:output.obj
 0001:000283d8       ??0?$stream_output_adapter@D@__crt_stdio_output@@QAE@QAU_iobuf@@@Z 100293d8 f i libucrt:output.obj
 0001:000283e8       ??0?$stream_output_adapter@_W@__crt_stdio_output@@QAE@QAU_iobuf@@@Z 100293e8 f i libucrt:output.obj
 0001:000283f8       ??0?$string_output_adapter@D@__crt_stdio_output@@QAE@QAU?$string_output_adapter_context@D@1@@Z 100293f8 f i libucrt:output.obj
 0001:00028408       ??0?$string_output_adapter@_W@__crt_stdio_output@@QAE@QAU?$string_output_adapter_context@_W@1@@Z 10029408 f i libucrt:output.obj
 0001:00028418       ??0__acrt_stdio_temporary_buffering_guard@@QAE@QAU_iobuf@@AAV__crt_cached_ptd_host@@@Z 10029418 f i libucrt:output.obj
 0001:0002843c       ??0__crt_stdio_stream@@QAE@QAU_iobuf@@@Z 1002943c f i libucrt:output.obj
 0001:0002844c       ??0formatting_buffer@__crt_stdio_output@@QAE@XZ 1002944c f i libucrt:output.obj
 0001:0002845d       ??0guard@?$cached@H@__crt_cached_ptd_host@@QAE@AAU12@@Z 1002945d f i libucrt:output.obj
 0001:0002847c       ??1?$c_string_character_source@D@__crt_strtox@@QAE@XZ 1002947c f i libucrt:output.obj
 0001:00028488       ??1?$c_string_character_source@_W@__crt_strtox@@QAE@XZ 10029488 f i libucrt:output.obj
 0001:00028494       ??1?$common_data@D@__crt_stdio_output@@QAE@XZ 10029494 f i libucrt:output.obj
 0001:0002849c       ??1?$common_data@_W@__crt_stdio_output@@QAE@XZ 1002949c f i libucrt:output.obj
 0001:000284a4       ??1?$format_validation_base@DV?$stream_output_adapter@D@__crt_stdio_output@@@__crt_stdio_output@@QAE@XZ 100294a4 f i libucrt:output.obj
 0001:000284ac       ??1?$format_validation_base@DV?$string_output_adapter@D@__crt_stdio_output@@@__crt_stdio_output@@QAE@XZ 100294ac f i libucrt:output.obj
 0001:000284b4       ??1?$format_validation_base@_WV?$stream_output_adapter@_W@__crt_stdio_output@@@__crt_stdio_output@@QAE@XZ 100294b4 f i libucrt:output.obj
 0001:000284bc       ??1?$format_validation_base@_WV?$string_output_adapter@_W@__crt_stdio_output@@@__crt_stdio_output@@QAE@XZ 100294bc f i libucrt:output.obj
 0001:000284c4       ??1?$output_adapter_data@DV?$stream_output_adapter@D@__crt_stdio_output@@@__crt_stdio_output@@QAE@XZ 100294c4 f i libucrt:output.obj
 0001:000284cc       ??1?$output_adapter_data@DV?$string_output_adapter@D@__crt_stdio_output@@@__crt_stdio_output@@QAE@XZ 100294cc f i libucrt:output.obj
 0001:000284d4       ??1?$output_adapter_data@_WV?$stream_output_adapter@_W@__crt_stdio_output@@@__crt_stdio_output@@QAE@XZ 100294d4 f i libucrt:output.obj
 0001:000284dc       ??1?$output_adapter_data@_WV?$string_output_adapter@_W@__crt_stdio_output@@@__crt_stdio_output@@QAE@XZ 100294dc f i libucrt:output.obj
 0001:000284e4       ??1?$output_processor@DV?$stream_output_adapter@D@__crt_stdio_output@@V?$format_validation_base@DV?$stream_output_adapter@D@__crt_stdio_output@@@2@@__crt_stdio_output@@QAE@XZ 100294e4 f i libucrt:output.obj
 0001:000284ec       ??1?$output_processor@DV?$stream_output_adapter@D@__crt_stdio_output@@V?$positional_parameter_base@DV?$stream_output_adapter@D@__crt_stdio_output@@@2@@__crt_stdio_output@@QAE@XZ 100294ec f i libucrt:output.obj
 0001:000284f4       ??1?$output_processor@DV?$stream_output_adapter@D@__crt_stdio_output@@V?$standard_base@DV?$stream_output_adapter@D@__crt_stdio_output@@@2@@__crt_stdio_output@@QAE@XZ 100294f4 f i libucrt:output.obj
 0001:000284fc       ??1?$output_processor@DV?$string_output_adapter@D@__crt_stdio_output@@V?$format_validation_base@DV?$string_output_adapter@D@__crt_stdio_output@@@2@@__crt_stdio_output@@QAE@XZ 100294fc f i libucrt:output.obj
 0001:00028504       ??1?$output_processor@DV?$string_output_adapter@D@__crt_stdio_output@@V?$positional_parameter_base@DV?$string_output_adapter@D@__crt_stdio_output@@@2@@__crt_stdio_output@@QAE@XZ 10029504 f i libucrt:output.obj
 0001:0002850c       ??1?$output_processor@DV?$string_output_adapter@D@__crt_stdio_output@@V?$standard_base@DV?$string_output_adapter@D@__crt_stdio_output@@@2@@__crt_stdio_output@@QAE@XZ 1002950c f i libucrt:output.obj
 0001:00028514       ??1?$output_processor@_WV?$stream_output_adapter@_W@__crt_stdio_output@@V?$format_validation_base@_WV?$stream_output_adapter@_W@__crt_stdio_output@@@2@@__crt_stdio_output@@QAE@XZ 10029514 f i libucrt:output.obj
 0001:0002851c       ??1?$output_processor@_WV?$stream_output_adapter@_W@__crt_stdio_output@@V?$positional_parameter_base@_WV?$stream_output_adapter@_W@__crt_stdio_output@@@2@@__crt_stdio_output@@QAE@XZ 1002951c f i libucrt:output.obj
 0001:00028524       ??1?$output_processor@_WV?$stream_output_adapter@_W@__crt_stdio_output@@V?$standard_base@_WV?$stream_output_adapter@_W@__crt_stdio_output@@@2@@__crt_stdio_output@@QAE@XZ 10029524 f i libucrt:output.obj
 0001:0002852c       ??1?$output_processor@_WV?$string_output_adapter@_W@__crt_stdio_output@@V?$format_validation_base@_WV?$string_output_adapter@_W@__crt_stdio_output@@@2@@__crt_stdio_output@@QAE@XZ 1002952c f i libucrt:output.obj
 0001:00028534       ??1?$output_processor@_WV?$string_output_adapter@_W@__crt_stdio_output@@V?$positional_parameter_base@_WV?$string_output_adapter@_W@__crt_stdio_output@@@2@@__crt_stdio_output@@QAE@XZ 10029534 f i libucrt:output.obj
 0001:0002853c       ??1?$output_processor@_WV?$string_output_adapter@_W@__crt_stdio_output@@V?$standard_base@_WV?$string_output_adapter@_W@__crt_stdio_output@@@2@@__crt_stdio_output@@QAE@XZ 1002953c f i libucrt:output.obj
 0001:00028544       ??1?$positional_parameter_base@DV?$stream_output_adapter@D@__crt_stdio_output@@@__crt_stdio_output@@QAE@XZ 10029544 f i libucrt:output.obj
 0001:0002854c       ??1?$positional_parameter_base@DV?$string_output_adapter@D@__crt_stdio_output@@@__crt_stdio_output@@QAE@XZ 1002954c f i libucrt:output.obj
 0001:00028554       ??1?$positional_parameter_base@_WV?$stream_output_adapter@_W@__crt_stdio_output@@@__crt_stdio_output@@QAE@XZ 10029554 f i libucrt:output.obj
 0001:0002855c       ??1?$positional_parameter_base@_WV?$string_output_adapter@_W@__crt_stdio_output@@@__crt_stdio_output@@QAE@XZ 1002955c f i libucrt:output.obj
 0001:00028564       ??1?$standard_base@DV?$stream_output_adapter@D@__crt_stdio_output@@@__crt_stdio_output@@QAE@XZ 10029564 f i libucrt:output.obj
 0001:0002856c       ??1?$standard_base@DV?$string_output_adapter@D@__crt_stdio_output@@@__crt_stdio_output@@QAE@XZ 1002956c f i libucrt:output.obj
 0001:00028574       ??1?$standard_base@_WV?$stream_output_adapter@_W@__crt_stdio_output@@@__crt_stdio_output@@QAE@XZ 10029574 f i libucrt:output.obj
 0001:0002857c       ??1?$standard_base@_WV?$string_output_adapter@_W@__crt_stdio_output@@@__crt_stdio_output@@QAE@XZ 1002957c f i libucrt:output.obj
 0001:00028584       ??1__acrt_stdio_temporary_buffering_guard@@QAE@XZ 10029584 f i libucrt:output.obj
 0001:00028597       ??1formatting_buffer@__crt_stdio_output@@QAE@XZ 10029597 f i libucrt:output.obj
 0001:000285b1       ??1guard@?$cached@H@__crt_cached_ptd_host@@QAE@XZ 100295b1 f i libucrt:output.obj
 0001:000285c7       ??4?$__crt_unique_heap_ptr@DU__crt_internal_free_policy@@@@QAEAAV0@$$QAV0@@Z 100295c7 f i libucrt:output.obj
 0001:000285eb       ??A?$spectre_mitigated_lookup_table@Ustate_transition_pair@__crt_stdio_output@@$0IA@@__crt_stdio_output@@QBEABUstate_transition_pair@1@I@Z 100295eb f i libucrt:output.obj
 0001:000285fd       ??C__crt_stdio_stream@@QBEPAU__crt_stdio_stream_data@@XZ 100295fd f i libucrt:output.obj
 0001:00028a66       ?adjust_hexit@?$output_processor@DV?$stream_output_adapter@D@__crt_stdio_output@@V?$format_validation_base@DV?$stream_output_adapter@D@__crt_stdio_output@@@2@@__crt_stdio_output@@CADH_N@Z 10029a66 f i libucrt:output.obj
 0001:00028a7a       ?adjust_hexit@?$output_processor@DV?$stream_output_adapter@D@__crt_stdio_output@@V?$positional_parameter_base@DV?$stream_output_adapter@D@__crt_stdio_output@@@2@@__crt_stdio_output@@CADH_N@Z 10029a7a f i libucrt:output.obj
 0001:00028a8e       ?adjust_hexit@?$output_processor@DV?$stream_output_adapter@D@__crt_stdio_output@@V?$standard_base@DV?$stream_output_adapter@D@__crt_stdio_output@@@2@@__crt_stdio_output@@CADH_N@Z 10029a8e f i libucrt:output.obj
 0001:00028aa2       ?adjust_hexit@?$output_processor@DV?$string_output_adapter@D@__crt_stdio_output@@V?$format_validation_base@DV?$string_output_adapter@D@__crt_stdio_output@@@2@@__crt_stdio_output@@CADH_N@Z 10029aa2 f i libucrt:output.obj
 0001:00028ab6       ?adjust_hexit@?$output_processor@DV?$string_output_adapter@D@__crt_stdio_output@@V?$positional_parameter_base@DV?$string_output_adapter@D@__crt_stdio_output@@@2@@__crt_stdio_output@@CADH_N@Z 10029ab6 f i libucrt:output.obj
 0001:00028aca       ?adjust_hexit@?$output_processor@DV?$string_output_adapter@D@__crt_stdio_output@@V?$standard_base@DV?$string_output_adapter@D@__crt_stdio_output@@@2@@__crt_stdio_output@@CADH_N@Z 10029aca f i libucrt:output.obj
 0001:00028ade       ?adjust_hexit@?$output_processor@_WV?$stream_output_adapter@_W@__crt_stdio_output@@V?$format_validation_base@_WV?$stream_output_adapter@_W@__crt_stdio_output@@@2@@__crt_stdio_output@@CADH_N@Z 10029ade f i libucrt:output.obj
 0001:00028af2       ?adjust_hexit@?$output_processor@_WV?$stream_output_adapter@_W@__crt_stdio_output@@V?$positional_parameter_base@_WV?$stream_output_adapter@_W@__crt_stdio_output@@@2@@__crt_stdio_output@@CADH_N@Z 10029af2 f i libucrt:output.obj
 0001:00028b06       ?adjust_hexit@?$output_processor@_WV?$stream_output_adapter@_W@__crt_stdio_output@@V?$standard_base@_WV?$stream_output_adapter@_W@__crt_stdio_output@@@2@@__crt_stdio_output@@CADH_N@Z 10029b06 f i libucrt:output.obj
 0001:00028b1a       ?adjust_hexit@?$output_processor@_WV?$string_output_adapter@_W@__crt_stdio_output@@V?$format_validation_base@_WV?$string_output_adapter@_W@__crt_stdio_output@@@2@@__crt_stdio_output@@CADH_N@Z 10029b1a f i libucrt:output.obj
 0001:00028b2e       ?adjust_hexit@?$output_processor@_WV?$string_output_adapter@_W@__crt_stdio_output@@V?$positional_parameter_base@_WV?$string_output_adapter@_W@__crt_stdio_output@@@2@@__crt_stdio_output@@CADH_N@Z 10029b2e f i libucrt:output.obj
 0001:00028b42       ?adjust_hexit@?$output_processor@_WV?$string_output_adapter@_W@__crt_stdio_output@@V?$standard_base@_WV?$string_output_adapter@_W@__crt_stdio_output@@@2@@__crt_stdio_output@@CADH_N@Z 10029b42 f i libucrt:output.obj
 0001:00028b56       ?advance_to_next_pass@?$positional_parameter_base@DV?$stream_output_adapter@D@__crt_stdio_output@@@__crt_stdio_output@@IAE_NXZ 10029b56 f i libucrt:output.obj
 0001:00028ba4       ?advance_to_next_pass@?$positional_parameter_base@DV?$string_output_adapter@D@__crt_stdio_output@@@__crt_stdio_output@@IAE_NXZ 10029ba4 f i libucrt:output.obj
 0001:00028bf2       ?advance_to_next_pass@?$positional_parameter_base@_WV?$stream_output_adapter@_W@__crt_stdio_output@@@__crt_stdio_output@@IAE_NXZ 10029bf2 f i libucrt:output.obj
 0001:00028c40       ?advance_to_next_pass@?$positional_parameter_base@_WV?$string_output_adapter@_W@__crt_stdio_output@@@__crt_stdio_output@@IAE_NXZ 10029c40 f i libucrt:output.obj
 0001:00028c8e       ?advance_to_next_pass@?$standard_base@DV?$stream_output_adapter@D@__crt_stdio_output@@@__crt_stdio_output@@IAE_NXZ 10029c8e f i libucrt:output.obj
 0001:00028c9f       ?advance_to_next_pass@?$standard_base@DV?$string_output_adapter@D@__crt_stdio_output@@@__crt_stdio_output@@IAE_NXZ 10029c9f f i libucrt:output.obj
 0001:00028cb0       ?advance_to_next_pass@?$standard_base@_WV?$stream_output_adapter@_W@__crt_stdio_output@@@__crt_stdio_output@@IAE_NXZ 10029cb0 f i libucrt:output.obj
 0001:00028cc1       ?advance_to_next_pass@?$standard_base@_WV?$string_output_adapter@_W@__crt_stdio_output@@@__crt_stdio_output@@IAE_NXZ 10029cc1 f i libucrt:output.obj
 0001:00028cd2       ?check@?$cached@H@__crt_cached_ptd_host@@QBE_NH@Z 10029cd2 f i libucrt:output.obj
 0001:00028cee       ?create_guard@?$cached@H@__crt_cached_ptd_host@@QAE?AVguard@12@XZ 10029cee f i libucrt:output.obj
 0001:00028d0b       ?crop_zeroes@__crt_stdio_output@@YAXPADQAU__crt_locale_pointers@@@Z 10029d0b f i libucrt:output.obj
 0001:00028d6b       ?disable@guard@?$cached@H@__crt_cached_ptd_host@@QAEXXZ 10029d6b f i libucrt:output.obj
 0001:00028d70       ?enable@guard@?$cached@H@__crt_cached_ptd_host@@QAEXXZ 10029d70 f i libucrt:output.obj
 0001:00028d75       ?find_next_state@?$output_processor@DV?$stream_output_adapter@D@__crt_stdio_output@@V?$format_validation_base@DV?$stream_output_adapter@D@__crt_stdio_output@@@2@@__crt_stdio_output@@ABE?AW4state@2@DW432@@Z 10029d75 f i libucrt:output.obj
 0001:00028db2       ?find_next_state@?$output_processor@DV?$stream_output_adapter@D@__crt_stdio_output@@V?$positional_parameter_base@DV?$stream_output_adapter@D@__crt_stdio_output@@@2@@__crt_stdio_output@@ABE?AW4state@2@DW432@@Z 10029db2 f i libucrt:output.obj
 0001:00028def       ?find_next_state@?$output_processor@DV?$stream_output_adapter@D@__crt_stdio_output@@V?$standard_base@DV?$stream_output_adapter@D@__crt_stdio_output@@@2@@__crt_stdio_output@@ABE?AW4state@2@DW432@@Z 10029def f i libucrt:output.obj
 0001:00028e2a       ?find_next_state@?$output_processor@DV?$string_output_adapter@D@__crt_stdio_output@@V?$format_validation_base@DV?$string_output_adapter@D@__crt_stdio_output@@@2@@__crt_stdio_output@@ABE?AW4state@2@DW432@@Z 10029e2a f i libucrt:output.obj
 0001:00028e67       ?find_next_state@?$output_processor@DV?$string_output_adapter@D@__crt_stdio_output@@V?$positional_parameter_base@DV?$string_output_adapter@D@__crt_stdio_output@@@2@@__crt_stdio_output@@ABE?AW4state@2@DW432@@Z 10029e67 f i libucrt:output.obj
 0001:00028ea4       ?find_next_state@?$output_processor@DV?$string_output_adapter@D@__crt_stdio_output@@V?$standard_base@DV?$string_output_adapter@D@__crt_stdio_output@@@2@@__crt_stdio_output@@ABE?AW4state@2@DW432@@Z 10029ea4 f i libucrt:output.obj
 0001:00028edf       ?find_next_state@?$output_processor@_WV?$stream_output_adapter@_W@__crt_stdio_output@@V?$format_validation_base@_WV?$stream_output_adapter@_W@__crt_stdio_output@@@2@@__crt_stdio_output@@ABE?AW4state@2@_WW432@@Z 10029edf f i libucrt:output.obj
 0001:00028f1b       ?find_next_state@?$output_processor@_WV?$stream_output_adapter@_W@__crt_stdio_output@@V?$positional_parameter_base@_WV?$stream_output_adapter@_W@__crt_stdio_output@@@2@@__crt_stdio_output@@ABE?AW4state@2@_WW432@@Z 10029f1b f i libucrt:output.obj
 0001:00028f57       ?find_next_state@?$output_processor@_WV?$stream_output_adapter@_W@__crt_stdio_output@@V?$standard_base@_WV?$stream_output_adapter@_W@__crt_stdio_output@@@2@@__crt_stdio_output@@ABE?AW4state@2@_WW432@@Z 10029f57 f i libucrt:output.obj
 0001:00028f91       ?find_next_state@?$output_processor@_WV?$string_output_adapter@_W@__crt_stdio_output@@V?$format_validation_base@_WV?$string_output_adapter@_W@__crt_stdio_output@@@2@@__crt_stdio_output@@ABE?AW4state@2@_WW432@@Z 10029f91 f i libucrt:output.obj
 0001:00028fcd       ?find_next_state@?$output_processor@_WV?$string_output_adapter@_W@__crt_stdio_output@@V?$positional_parameter_base@_WV?$string_output_adapter@_W@__crt_stdio_output@@@2@@__crt_stdio_output@@ABE?AW4state@2@_WW432@@Z 10029fcd f i libucrt:output.obj
 0001:00029009       ?find_next_state@?$output_processor@_WV?$string_output_adapter@_W@__crt_stdio_output@@V?$standard_base@_WV?$string_output_adapter@_W@__crt_stdio_output@@@2@@__crt_stdio_output@@ABE?AW4state@2@_WW432@@Z 1002a009 f i libucrt:output.obj
 0001:00029043       ?force_decimal_point@__crt_stdio_output@@YAXPADQAU__crt_locale_pointers@@@Z 1002a043 f i libucrt:output.obj
 0001:0002909f       ?get@?$c_string_character_source@D@__crt_strtox@@QAEDXZ 1002a09f f i libucrt:output.obj
 0001:000290a7       ?get@?$c_string_character_source@_W@__crt_strtox@@QAE_WXZ 1002a0a7 f i libucrt:output.obj
 0001:000290b2       ?get_flags@__crt_stdio_stream@@QBEJXZ 1002a0b2 f i libucrt:output.obj
 0001:000290b9       ?get_parameter_type@?$positional_parameter_base@DV?$stream_output_adapter@D@__crt_stdio_output@@@__crt_stdio_output@@CA?AW4parameter_type@12@F@Z 1002a0b9 f i libucrt:output.obj
 0001:000290bd       ?get_parameter_type@?$positional_parameter_base@DV?$stream_output_adapter@D@__crt_stdio_output@@@__crt_stdio_output@@CA?AW4parameter_type@12@G@Z 1002a0bd f i libucrt:output.obj
 0001:000290c1       ?get_parameter_type@?$positional_parameter_base@DV?$stream_output_adapter@D@__crt_stdio_output@@@__crt_stdio_output@@CA?AW4parameter_type@12@H@Z 1002a0c1 f i libucrt:output.obj
 0001:000290c5       ?get_parameter_type@?$positional_parameter_base@DV?$stream_output_adapter@D@__crt_stdio_output@@@__crt_stdio_output@@CA?AW4parameter_type@12@I@Z 1002a0c5 f i libucrt:output.obj
 0001:000290c9       ?get_parameter_type@?$positional_parameter_base@DV?$stream_output_adapter@D@__crt_stdio_output@@@__crt_stdio_output@@CA?AW4parameter_type@12@U_CRT_DOUBLE@@@Z 1002a0c9 f i libucrt:output.obj
 0001:000290cd       ?get_parameter_type@?$positional_parameter_base@DV?$stream_output_adapter@D@__crt_stdio_output@@@__crt_stdio_output@@CA?AW4parameter_type@12@_J@Z 1002a0cd f i libucrt:output.obj
 0001:000290d1       ?get_parameter_type@?$positional_parameter_base@DV?$stream_output_adapter@D@__crt_stdio_output@@@__crt_stdio_output@@CA?AW4parameter_type@12@_K@Z 1002a0d1 f i libucrt:output.obj
 0001:000290d5       ?get_parameter_type@?$positional_parameter_base@DV?$stream_output_adapter@D@__crt_stdio_output@@@__crt_stdio_output@@CA?AW4parameter_type@12@_W@Z 1002a0d5 f i libucrt:output.obj
 0001:000290d9       ?get_parameter_type@?$positional_parameter_base@DV?$string_output_adapter@D@__crt_stdio_output@@@__crt_stdio_output@@CA?AW4parameter_type@12@F@Z 1002a0d9 f i libucrt:output.obj
 0001:000290dd       ?get_parameter_type@?$positional_parameter_base@DV?$string_output_adapter@D@__crt_stdio_output@@@__crt_stdio_output@@CA?AW4parameter_type@12@G@Z 1002a0dd f i libucrt:output.obj
 0001:000290e1       ?get_parameter_type@?$positional_parameter_base@DV?$string_output_adapter@D@__crt_stdio_output@@@__crt_stdio_output@@CA?AW4parameter_type@12@H@Z 1002a0e1 f i libucrt:output.obj
 0001:000290e5       ?get_parameter_type@?$positional_parameter_base@DV?$string_output_adapter@D@__crt_stdio_output@@@__crt_stdio_output@@CA?AW4parameter_type@12@I@Z 1002a0e5 f i libucrt:output.obj
 0001:000290e9       ?get_parameter_type@?$positional_parameter_base@DV?$string_output_adapter@D@__crt_stdio_output@@@__crt_stdio_output@@CA?AW4parameter_type@12@U_CRT_DOUBLE@@@Z 1002a0e9 f i libucrt:output.obj
 0001:000290ed       ?get_parameter_type@?$positional_parameter_base@DV?$string_output_adapter@D@__crt_stdio_output@@@__crt_stdio_output@@CA?AW4parameter_type@12@_J@Z 1002a0ed f i libucrt:output.obj
 0001:000290f1       ?get_parameter_type@?$positional_parameter_base@DV?$string_output_adapter@D@__crt_stdio_output@@@__crt_stdio_output@@CA?AW4parameter_type@12@_K@Z 1002a0f1 f i libucrt:output.obj
 0001:000290f5       ?get_parameter_type@?$positional_parameter_base@DV?$string_output_adapter@D@__crt_stdio_output@@@__crt_stdio_output@@CA?AW4parameter_type@12@_W@Z 1002a0f5 f i libucrt:output.obj
 0001:000290f9       ?get_parameter_type@?$positional_parameter_base@_WV?$stream_output_adapter@_W@__crt_stdio_output@@@__crt_stdio_output@@CA?AW4parameter_type@12@F@Z 1002a0f9 f i libucrt:output.obj
 0001:000290fd       ?get_parameter_type@?$positional_parameter_base@_WV?$stream_output_adapter@_W@__crt_stdio_output@@@__crt_stdio_output@@CA?AW4parameter_type@12@G@Z 1002a0fd f i libucrt:output.obj
 0001:00029101       ?get_parameter_type@?$positional_parameter_base@_WV?$stream_output_adapter@_W@__crt_stdio_output@@@__crt_stdio_output@@CA?AW4parameter_type@12@H@Z 1002a101 f i libucrt:output.obj
 0001:00029105       ?get_parameter_type@?$positional_parameter_base@_WV?$stream_output_adapter@_W@__crt_stdio_output@@@__crt_stdio_output@@CA?AW4parameter_type@12@I@Z 1002a105 f i libucrt:output.obj
 0001:00029109       ?get_parameter_type@?$positional_parameter_base@_WV?$stream_output_adapter@_W@__crt_stdio_output@@@__crt_stdio_output@@CA?AW4parameter_type@12@U_CRT_DOUBLE@@@Z 1002a109 f i libucrt:output.obj
 0001:0002910d       ?get_parameter_type@?$positional_parameter_base@_WV?$stream_output_adapter@_W@__crt_stdio_output@@@__crt_stdio_output@@CA?AW4parameter_type@12@_J@Z 1002a10d f i libucrt:output.obj
 0001:00029111       ?get_parameter_type@?$positional_parameter_base@_WV?$stream_output_adapter@_W@__crt_stdio_output@@@__crt_stdio_output@@CA?AW4parameter_type@12@_K@Z 1002a111 f i libucrt:output.obj
 0001:00029115       ?get_parameter_type@?$positional_parameter_base@_WV?$stream_output_adapter@_W@__crt_stdio_output@@@__crt_stdio_output@@CA?AW4parameter_type@12@_W@Z 1002a115 f i libucrt:output.obj
 0001:00029119       ?get_parameter_type@?$positional_parameter_base@_WV?$string_output_adapter@_W@__crt_stdio_output@@@__crt_stdio_output@@CA?AW4parameter_type@12@F@Z 1002a119 f i libucrt:output.obj
 0001:0002911d       ?get_parameter_type@?$positional_parameter_base@_WV?$string_output_adapter@_W@__crt_stdio_output@@@__crt_stdio_output@@CA?AW4parameter_type@12@G@Z 1002a11d f i libucrt:output.obj
 0001:00029121       ?get_parameter_type@?$positional_parameter_base@_WV?$string_output_adapter@_W@__crt_stdio_output@@@__crt_stdio_output@@CA?AW4parameter_type@12@H@Z 1002a121 f i libucrt:output.obj
 0001:00029125       ?get_parameter_type@?$positional_parameter_base@_WV?$string_output_adapter@_W@__crt_stdio_output@@@__crt_stdio_output@@CA?AW4parameter_type@12@I@Z 1002a125 f i libucrt:output.obj
 0001:00029129       ?get_parameter_type@?$positional_parameter_base@_WV?$string_output_adapter@_W@__crt_stdio_output@@@__crt_stdio_output@@CA?AW4parameter_type@12@U_CRT_DOUBLE@@@Z 1002a129 f i libucrt:output.obj
 0001:0002912d       ?get_parameter_type@?$positional_parameter_base@_WV?$string_output_adapter@_W@__crt_stdio_output@@@__crt_stdio_output@@CA?AW4parameter_type@12@_J@Z 1002a12d f i libucrt:output.obj
 0001:00029131       ?get_parameter_type@?$positional_parameter_base@_WV?$string_output_adapter@_W@__crt_stdio_output@@@__crt_stdio_output@@CA?AW4parameter_type@12@_K@Z 1002a131 f i libucrt:output.obj
 0001:00029135       ?get_parameter_type@?$positional_parameter_base@_WV?$string_output_adapter@_W@__crt_stdio_output@@@__crt_stdio_output@@CA?AW4parameter_type@12@_W@Z 1002a135 f i libucrt:output.obj
 0001:00029139       ?has_flag@?$output_processor@DV?$stream_output_adapter@D@__crt_stdio_output@@V?$format_validation_base@DV?$stream_output_adapter@D@__crt_stdio_output@@@2@@__crt_stdio_output@@ABE_NI@Z 1002a139 f i libucrt:output.obj
 0001:0002914b       ?has_flag@?$output_processor@DV?$stream_output_adapter@D@__crt_stdio_output@@V?$positional_parameter_base@DV?$stream_output_adapter@D@__crt_stdio_output@@@2@@__crt_stdio_output@@ABE_NI@Z 1002a14b f i libucrt:output.obj
 0001:0002915d       ?has_flag@?$output_processor@DV?$stream_output_adapter@D@__crt_stdio_output@@V?$standard_base@DV?$stream_output_adapter@D@__crt_stdio_output@@@2@@__crt_stdio_output@@ABE_NI@Z 1002a15d f i libucrt:output.obj
 0001:0002916f       ?has_flag@?$output_processor@DV?$string_output_adapter@D@__crt_stdio_output@@V?$format_validation_base@DV?$string_output_adapter@D@__crt_stdio_output@@@2@@__crt_stdio_output@@ABE_NI@Z 1002a16f f i libucrt:output.obj
 0001:00029181       ?has_flag@?$output_processor@DV?$string_output_adapter@D@__crt_stdio_output@@V?$positional_parameter_base@DV?$string_output_adapter@D@__crt_stdio_output@@@2@@__crt_stdio_output@@ABE_NI@Z 1002a181 f i libucrt:output.obj
 0001:00029193       ?has_flag@?$output_processor@DV?$string_output_adapter@D@__crt_stdio_output@@V?$standard_base@DV?$string_output_adapter@D@__crt_stdio_output@@@2@@__crt_stdio_output@@ABE_NI@Z 1002a193 f i libucrt:output.obj
 0001:000291a5       ?has_flag@?$output_processor@_WV?$stream_output_adapter@_W@__crt_stdio_output@@V?$format_validation_base@_WV?$stream_output_adapter@_W@__crt_stdio_output@@@2@@__crt_stdio_output@@ABE_NI@Z 1002a1a5 f i libucrt:output.obj
 0001:000291b7       ?has_flag@?$output_processor@_WV?$stream_output_adapter@_W@__crt_stdio_output@@V?$positional_parameter_base@_WV?$stream_output_adapter@_W@__crt_stdio_output@@@2@@__crt_stdio_output@@ABE_NI@Z 1002a1b7 f i libucrt:output.obj
 0001:000291c9       ?has_flag@?$output_processor@_WV?$stream_output_adapter@_W@__crt_stdio_output@@V?$standard_base@_WV?$stream_output_adapter@_W@__crt_stdio_output@@@2@@__crt_stdio_output@@ABE_NI@Z 1002a1c9 f i libucrt:output.obj
 0001:000291db       ?has_flag@?$output_processor@_WV?$string_output_adapter@_W@__crt_stdio_output@@V?$format_validation_base@_WV?$string_output_adapter@_W@__crt_stdio_output@@@2@@__crt_stdio_output@@ABE_NI@Z 1002a1db f i libucrt:output.obj
 0001:000291ed       ?has_flag@?$output_processor@_WV?$string_output_adapter@_W@__crt_stdio_output@@V?$positional_parameter_base@_WV?$string_output_adapter@_W@__crt_stdio_output@@@2@@__crt_stdio_output@@ABE_NI@Z 1002a1ed f i libucrt:output.obj
 0001:000291ff       ?has_flag@?$output_processor@_WV?$string_output_adapter@_W@__crt_stdio_output@@V?$standard_base@_WV?$string_output_adapter@_W@__crt_stdio_output@@@2@@__crt_stdio_output@@ABE_NI@Z 1002a1ff f i libucrt:output.obj
 0001:00029211       ?is_positional_parameter_reappearance_consistent@?$positional_parameter_base@DV?$stream_output_adapter@D@__crt_stdio_output@@@__crt_stdio_output@@AAE_NABUparameter_data@12@W4parameter_type@12@DW4length_modifier@2@@Z 1002a211 f i libucrt:output.obj
 0001:0002932b       ?is_positional_parameter_reappearance_consistent@?$positional_parameter_base@DV?$string_output_adapter@D@__crt_stdio_output@@@__crt_stdio_output@@AAE_NABUparameter_data@12@W4parameter_type@12@DW4length_modifier@2@@Z 1002a32b f i libucrt:output.obj
 0001:00029445       ?is_positional_parameter_reappearance_consistent@?$positional_parameter_base@_WV?$stream_output_adapter@_W@__crt_stdio_output@@@__crt_stdio_output@@AAE_NABUparameter_data@12@W4parameter_type@12@_WW4length_modifier@2@@Z 1002a445 f i libucrt:output.obj
 0001:00029560       ?is_positional_parameter_reappearance_consistent@?$positional_parameter_base@_WV?$string_output_adapter@_W@__crt_stdio_output@@@__crt_stdio_output@@AAE_NABUparameter_data@12@W4parameter_type@12@_WW4length_modifier@2@@Z 1002a560 f i libucrt:output.obj
 0001:0002967b       ?is_string_backed@__crt_stdio_stream@@QBE_NXZ 1002a67b f i libucrt:output.obj
 0001:00029687       ?maximum_signed_value@__crt_strtox@@YAJK@Z 1002a687 f i libucrt:output.obj
 0001:0002968d       ?minimum_signed_value@__crt_strtox@@YAJK@Z 1002a68d f i libucrt:output.obj
 0001:00029693       ?narrow_null_string@?$output_processor@DV?$stream_output_adapter@D@__crt_stdio_output@@V?$format_validation_base@DV?$stream_output_adapter@D@__crt_stdio_output@@@2@@__crt_stdio_output@@CAPADXZ 1002a693 f i libucrt:output.obj
 0001:00029699       ?narrow_null_string@?$output_processor@DV?$stream_output_adapter@D@__crt_stdio_output@@V?$positional_parameter_base@DV?$stream_output_adapter@D@__crt_stdio_output@@@2@@__crt_stdio_output@@CAPADXZ 1002a699 f i libucrt:output.obj
 0001:0002969f       ?narrow_null_string@?$output_processor@DV?$stream_output_adapter@D@__crt_stdio_output@@V?$standard_base@DV?$stream_output_adapter@D@__crt_stdio_output@@@2@@__crt_stdio_output@@CAPADXZ 1002a69f f i libucrt:output.obj
 0001:000296a5       ?narrow_null_string@?$output_processor@DV?$string_output_adapter@D@__crt_stdio_output@@V?$format_validation_base@DV?$string_output_adapter@D@__crt_stdio_output@@@2@@__crt_stdio_output@@CAPADXZ 1002a6a5 f i libucrt:output.obj
 0001:000296ab       ?narrow_null_string@?$output_processor@DV?$string_output_adapter@D@__crt_stdio_output@@V?$positional_parameter_base@DV?$string_output_adapter@D@__crt_stdio_output@@@2@@__crt_stdio_output@@CAPADXZ 1002a6ab f i libucrt:output.obj
 0001:000296b1       ?narrow_null_string@?$output_processor@DV?$string_output_adapter@D@__crt_stdio_output@@V?$standard_base@DV?$string_output_adapter@D@__crt_stdio_output@@@2@@__crt_stdio_output@@CAPADXZ 1002a6b1 f i libucrt:output.obj
 0001:000296b7       ?narrow_null_string@?$output_processor@_WV?$stream_output_adapter@_W@__crt_stdio_output@@V?$format_validation_base@_WV?$stream_output_adapter@_W@__crt_stdio_output@@@2@@__crt_stdio_output@@CAPADXZ 1002a6b7 f i libucrt:output.obj
 0001:000296bd       ?narrow_null_string@?$output_processor@_WV?$stream_output_adapter@_W@__crt_stdio_output@@V?$positional_parameter_base@_WV?$stream_output_adapter@_W@__crt_stdio_output@@@2@@__crt_stdio_output@@CAPADXZ 1002a6bd f i libucrt:output.obj
 0001:000296c3       ?narrow_null_string@?$output_processor@_WV?$stream_output_adapter@_W@__crt_stdio_output@@V?$standard_base@_WV?$stream_output_adapter@_W@__crt_stdio_output@@@2@@__crt_stdio_output@@CAPADXZ 1002a6c3 f i libucrt:output.obj
 0001:000296c9       ?narrow_null_string@?$output_processor@_WV?$string_output_adapter@_W@__crt_stdio_output@@V?$format_validation_base@_WV?$string_output_adapter@_W@__crt_stdio_output@@@2@@__crt_stdio_output@@CAPADXZ 1002a6c9 f i libucrt:output.obj
 0001:000296cf       ?narrow_null_string@?$output_processor@_WV?$string_output_adapter@_W@__crt_stdio_output@@V?$positional_parameter_base@_WV?$string_output_adapter@_W@__crt_stdio_output@@@2@@__crt_stdio_output@@CAPADXZ 1002a6cf f i libucrt:output.obj
 0001:000296d5       ?narrow_null_string@?$output_processor@_WV?$string_output_adapter@_W@__crt_stdio_output@@V?$standard_base@_WV?$string_output_adapter@_W@__crt_stdio_output@@@2@@__crt_stdio_output@@CAPADXZ 1002a6d5 f i libucrt:output.obj
 0001:000296db       ?parse_digit@__crt_strtox@@YAID@Z 1002a6db f i libucrt:output.obj
 0001:00029715       ?parse_digit@__crt_strtox@@YAI_W@Z 1002a715 f i libucrt:output.obj
 0001:000298dd       ?parse_int_from_format_string@?$output_processor@DV?$stream_output_adapter@D@__crt_stdio_output@@V?$format_validation_base@DV?$stream_output_adapter@D@__crt_stdio_output@@@2@@__crt_stdio_output@@AAE_NQAH@Z 1002a8dd f i libucrt:output.obj
 0001:00029955       ?parse_int_from_format_string@?$output_processor@DV?$stream_output_adapter@D@__crt_stdio_output@@V?$positional_parameter_base@DV?$stream_output_adapter@D@__crt_stdio_output@@@2@@__crt_stdio_output@@AAE_NQAH@Z 1002a955 f i libucrt:output.obj
 0001:000299cd       ?parse_int_from_format_string@?$output_processor@DV?$stream_output_adapter@D@__crt_stdio_output@@V?$standard_base@DV?$stream_output_adapter@D@__crt_stdio_output@@@2@@__crt_stdio_output@@AAE_NQAH@Z 1002a9cd f i libucrt:output.obj
 0001:00029a45       ?parse_int_from_format_string@?$output_processor@DV?$string_output_adapter@D@__crt_stdio_output@@V?$format_validation_base@DV?$string_output_adapter@D@__crt_stdio_output@@@2@@__crt_stdio_output@@AAE_NQAH@Z 1002aa45 f i libucrt:output.obj
 0001:00029abd       ?parse_int_from_format_string@?$output_processor@DV?$string_output_adapter@D@__crt_stdio_output@@V?$positional_parameter_base@DV?$string_output_adapter@D@__crt_stdio_output@@@2@@__crt_stdio_output@@AAE_NQAH@Z 1002aabd f i libucrt:output.obj
 0001:00029b35       ?parse_int_from_format_string@?$output_processor@DV?$string_output_adapter@D@__crt_stdio_output@@V?$standard_base@DV?$string_output_adapter@D@__crt_stdio_output@@@2@@__crt_stdio_output@@AAE_NQAH@Z 1002ab35 f i libucrt:output.obj
 0001:00029bad       ?parse_int_from_format_string@?$output_processor@_WV?$stream_output_adapter@_W@__crt_stdio_output@@V?$format_validation_base@_WV?$stream_output_adapter@_W@__crt_stdio_output@@@2@@__crt_stdio_output@@AAE_NQAH@Z 1002abad f i libucrt:output.obj
 0001:00029c27       ?parse_int_from_format_string@?$output_processor@_WV?$stream_output_adapter@_W@__crt_stdio_output@@V?$positional_parameter_base@_WV?$stream_output_adapter@_W@__crt_stdio_output@@@2@@__crt_stdio_output@@AAE_NQAH@Z 1002ac27 f i libucrt:output.obj
 0001:00029ca1       ?parse_int_from_format_string@?$output_processor@_WV?$stream_output_adapter@_W@__crt_stdio_output@@V?$standard_base@_WV?$stream_output_adapter@_W@__crt_stdio_output@@@2@@__crt_stdio_output@@AAE_NQAH@Z 1002aca1 f i libucrt:output.obj
 0001:00029d1b       ?parse_int_from_format_string@?$output_processor@_WV?$string_output_adapter@_W@__crt_stdio_output@@V?$format_validation_base@_WV?$string_output_adapter@_W@__crt_stdio_output@@@2@@__crt_stdio_output@@AAE_NQAH@Z 1002ad1b f i libucrt:output.obj
 0001:00029d95       ?parse_int_from_format_string@?$output_processor@_WV?$string_output_adapter@_W@__crt_stdio_output@@V?$positional_parameter_base@_WV?$string_output_adapter@_W@__crt_stdio_output@@@2@@__crt_stdio_output@@AAE_NQAH@Z 1002ad95 f i libucrt:output.obj
 0001:00029e0f       ?parse_int_from_format_string@?$output_processor@_WV?$string_output_adapter@_W@__crt_stdio_output@@V?$standard_base@_WV?$string_output_adapter@_W@__crt_stdio_output@@@2@@__crt_stdio_output@@AAE_NQAH@Z 1002ae0f f i libucrt:output.obj
 0001:00029e89       ?process@?$output_processor@DV?$stream_output_adapter@D@__crt_stdio_output@@V?$format_validation_base@DV?$stream_output_adapter@D@__crt_stdio_output@@@2@@__crt_stdio_output@@QAEHXZ 1002ae89 f i libucrt:output.obj
 0001:0002a149       ?process@?$output_processor@DV?$stream_output_adapter@D@__crt_stdio_output@@V?$positional_parameter_base@DV?$stream_output_adapter@D@__crt_stdio_output@@@2@@__crt_stdio_output@@QAEHXZ 1002b149 f i libucrt:output.obj
 0001:0002a41d       ?process@?$output_processor@DV?$stream_output_adapter@D@__crt_stdio_output@@V?$standard_base@DV?$stream_output_adapter@D@__crt_stdio_output@@@2@@__crt_stdio_output@@QAEHXZ 1002b41d f i libucrt:output.obj
 0001:0002a6cd       ?process@?$output_processor@DV?$string_output_adapter@D@__crt_stdio_output@@V?$format_validation_base@DV?$string_output_adapter@D@__crt_stdio_output@@@2@@__crt_stdio_output@@QAEHXZ 1002b6cd f i libucrt:output.obj
 0001:0002a9b1       ?process@?$output_processor@DV?$string_output_adapter@D@__crt_stdio_output@@V?$positional_parameter_base@DV?$string_output_adapter@D@__crt_stdio_output@@@2@@__crt_stdio_output@@QAEHXZ 1002b9b1 f i libucrt:output.obj
 0001:0002acb1       ?process@?$output_processor@DV?$string_output_adapter@D@__crt_stdio_output@@V?$standard_base@DV?$string_output_adapter@D@__crt_stdio_output@@@2@@__crt_stdio_output@@QAEHXZ 1002bcb1 f i libucrt:output.obj
 0001:0002af85       ?process@?$output_processor@_WV?$stream_output_adapter@_W@__crt_stdio_output@@V?$format_validation_base@_WV?$stream_output_adapter@_W@__crt_stdio_output@@@2@@__crt_stdio_output@@QAEHXZ 1002bf85 f i libucrt:output.obj
 0001:0002b1a1       ?process@?$output_processor@_WV?$stream_output_adapter@_W@__crt_stdio_output@@V?$positional_parameter_base@_WV?$stream_output_adapter@_W@__crt_stdio_output@@@2@@__crt_stdio_output@@QAEHXZ 1002c1a1 f i libucrt:output.obj
 0001:0002b3f5       ?process@?$output_processor@_WV?$stream_output_adapter@_W@__crt_stdio_output@@V?$standard_base@_WV?$stream_output_adapter@_W@__crt_stdio_output@@@2@@__crt_stdio_output@@QAEHXZ 1002c3f5 f i libucrt:output.obj
 0001:0002b605       ?process@?$output_processor@_WV?$string_output_adapter@_W@__crt_stdio_output@@V?$format_validation_base@_WV?$string_output_adapter@_W@__crt_stdio_output@@@2@@__crt_stdio_output@@QAEHXZ 1002c605 f i libucrt:output.obj
 0001:0002b845       ?process@?$output_processor@_WV?$string_output_adapter@_W@__crt_stdio_output@@V?$positional_parameter_base@_WV?$string_output_adapter@_W@__crt_stdio_output@@@2@@__crt_stdio_output@@QAEHXZ 1002c845 f i libucrt:output.obj
 0001:0002baad       ?process@?$output_processor@_WV?$string_output_adapter@_W@__crt_stdio_output@@V?$standard_base@_WV?$string_output_adapter@_W@__crt_stdio_output@@@2@@__crt_stdio_output@@QAEHXZ 1002caad f i libucrt:output.obj
 0001:0002bce9       ?public_stream@__crt_stdio_stream@@QBEPAU_iobuf@@XZ 1002cce9 f i libucrt:output.obj
 0001:0002bcec       ?restore_state@?$c_string_character_source@D@__crt_strtox@@QAE_NQBD@Z 1002ccec f i libucrt:output.obj
 0001:0002bcfc       ?restore_state@?$c_string_character_source@_W@__crt_strtox@@QAE_NQB_W@Z 1002ccfc f i libucrt:output.obj
 0001:0002bd0c       ?save_state@?$c_string_character_source@D@__crt_strtox@@QBEPBDXZ 1002cd0c f i libucrt:output.obj
 0001:0002bd0f       ?save_state@?$c_string_character_source@_W@__crt_strtox@@QBEPB_WXZ 1002cd0f f i libucrt:output.obj
 0001:0002bd12       ?set_flag@?$output_processor@DV?$stream_output_adapter@D@__crt_stdio_output@@V?$format_validation_base@DV?$stream_output_adapter@D@__crt_stdio_output@@@2@@__crt_stdio_output@@AAEXI@Z 1002cd12 f i libucrt:output.obj
 0001:0002bd21       ?set_flag@?$output_processor@DV?$stream_output_adapter@D@__crt_stdio_output@@V?$positional_parameter_base@DV?$stream_output_adapter@D@__crt_stdio_output@@@2@@__crt_stdio_output@@AAEXI@Z 1002cd21 f i libucrt:output.obj
 0001:0002bd30       ?set_flag@?$output_processor@DV?$stream_output_adapter@D@__crt_stdio_output@@V?$standard_base@DV?$stream_output_adapter@D@__crt_stdio_output@@@2@@__crt_stdio_output@@AAEXI@Z 1002cd30 f i libucrt:output.obj
 0001:0002bd3f       ?set_flag@?$output_processor@DV?$string_output_adapter@D@__crt_stdio_output@@V?$format_validation_base@DV?$string_output_adapter@D@__crt_stdio_output@@@2@@__crt_stdio_output@@AAEXI@Z 1002cd3f f i libucrt:output.obj
 0001:0002bd4e       ?set_flag@?$output_processor@DV?$string_output_adapter@D@__crt_stdio_output@@V?$positional_parameter_base@DV?$string_output_adapter@D@__crt_stdio_output@@@2@@__crt_stdio_output@@AAEXI@Z 1002cd4e f i libucrt:output.obj
 0001:0002bd5d       ?set_flag@?$output_processor@DV?$string_output_adapter@D@__crt_stdio_output@@V?$standard_base@DV?$string_output_adapter@D@__crt_stdio_output@@@2@@__crt_stdio_output@@AAEXI@Z 1002cd5d f i libucrt:output.obj
 0001:0002bd6c       ?set_flag@?$output_processor@_WV?$stream_output_adapter@_W@__crt_stdio_output@@V?$format_validation_base@_WV?$stream_output_adapter@_W@__crt_stdio_output@@@2@@__crt_stdio_output@@AAEXI@Z 1002cd6c f i libucrt:output.obj
 0001:0002bd7b       ?set_flag@?$output_processor@_WV?$stream_output_adapter@_W@__crt_stdio_output@@V?$positional_parameter_base@_WV?$stream_output_adapter@_W@__crt_stdio_output@@@2@@__crt_stdio_output@@AAEXI@Z 1002cd7b f i libucrt:output.obj
 0001:0002bd8a       ?set_flag@?$output_processor@_WV?$stream_output_adapter@_W@__crt_stdio_output@@V?$standard_base@_WV?$stream_output_adapter@_W@__crt_stdio_output@@@2@@__crt_stdio_output@@AAEXI@Z 1002cd8a f i libucrt:output.obj
 0001:0002bd99       ?set_flag@?$output_processor@_WV?$string_output_adapter@_W@__crt_stdio_output@@V?$format_validation_base@_WV?$string_output_adapter@_W@__crt_stdio_output@@@2@@__crt_stdio_output@@AAEXI@Z 1002cd99 f i libucrt:output.obj
 0001:0002bda8       ?set_flag@?$output_processor@_WV?$string_output_adapter@_W@__crt_stdio_output@@V?$positional_parameter_base@_WV?$string_output_adapter@_W@__crt_stdio_output@@@2@@__crt_stdio_output@@AAEXI@Z 1002cda8 f i libucrt:output.obj
 0001:0002bdb7       ?set_flag@?$output_processor@_WV?$string_output_adapter@_W@__crt_stdio_output@@V?$standard_base@_WV?$string_output_adapter@_W@__crt_stdio_output@@@2@@__crt_stdio_output@@AAEXI@Z 1002cdb7 f i libucrt:output.obj
 0001:0002bdc6       ?should_format@?$positional_parameter_base@DV?$stream_output_adapter@D@__crt_stdio_output@@@__crt_stdio_output@@IAE_NXZ 1002cdc6 f i libucrt:output.obj
 0001:0002bddc       ?should_format@?$positional_parameter_base@DV?$string_output_adapter@D@__crt_stdio_output@@@__crt_stdio_output@@IAE_NXZ 1002cddc f i libucrt:output.obj
 0001:0002bdf2       ?should_format@?$positional_parameter_base@_WV?$stream_output_adapter@_W@__crt_stdio_output@@@__crt_stdio_output@@IAE_NXZ 1002cdf2 f i libucrt:output.obj
 0001:0002be08       ?should_format@?$positional_parameter_base@_WV?$string_output_adapter@_W@__crt_stdio_output@@@__crt_stdio_output@@IAE_NXZ 1002ce08 f i libucrt:output.obj
 0001:0002be1e       ?should_format@?$standard_base@DV?$stream_output_adapter@D@__crt_stdio_output@@@__crt_stdio_output@@IAE_NXZ 1002ce1e f i libucrt:output.obj
 0001:0002be21       ?should_format@?$standard_base@DV?$string_output_adapter@D@__crt_stdio_output@@@__crt_stdio_output@@IAE_NXZ 1002ce21 f i libucrt:output.obj
 0001:0002be24       ?should_format@?$standard_base@_WV?$stream_output_adapter@_W@__crt_stdio_output@@@__crt_stdio_output@@IAE_NXZ 1002ce24 f i libucrt:output.obj
 0001:0002be27       ?should_format@?$standard_base@_WV?$string_output_adapter@_W@__crt_stdio_output@@@__crt_stdio_output@@IAE_NXZ 1002ce27 f i libucrt:output.obj
 0001:0002be2a       ?should_skip_normal_state_processing@?$positional_parameter_base@DV?$stream_output_adapter@D@__crt_stdio_output@@@__crt_stdio_output@@IAE_NXZ 1002ce2a f i libucrt:output.obj
 0001:0002be54       ?should_skip_normal_state_processing@?$positional_parameter_base@DV?$string_output_adapter@D@__crt_stdio_output@@@__crt_stdio_output@@IAE_NXZ 1002ce54 f i libucrt:output.obj
 0001:0002be7e       ?should_skip_normal_state_processing@?$positional_parameter_base@_WV?$stream_output_adapter@_W@__crt_stdio_output@@@__crt_stdio_output@@IAE_NXZ 1002ce7e f i libucrt:output.obj
 0001:0002bea8       ?should_skip_normal_state_processing@?$positional_parameter_base@_WV?$string_output_adapter@_W@__crt_stdio_output@@@__crt_stdio_output@@IAE_NXZ 1002cea8 f i libucrt:output.obj
 0001:0002bed2       ?should_skip_normal_state_processing@?$standard_base@DV?$stream_output_adapter@D@__crt_stdio_output@@@__crt_stdio_output@@IAE_NXZ 1002ced2 f i libucrt:output.obj
 0001:0002bed5       ?should_skip_normal_state_processing@?$standard_base@DV?$string_output_adapter@D@__crt_stdio_output@@@__crt_stdio_output@@IAE_NXZ 1002ced5 f i libucrt:output.obj
 0001:0002bed8       ?should_skip_normal_state_processing@?$standard_base@_WV?$stream_output_adapter@_W@__crt_stdio_output@@@__crt_stdio_output@@IAE_NXZ 1002ced8 f i libucrt:output.obj
 0001:0002bedb       ?should_skip_normal_state_processing@?$standard_base@_WV?$string_output_adapter@_W@__crt_stdio_output@@@__crt_stdio_output@@IAE_NXZ 1002cedb f i libucrt:output.obj
 0001:0002bede       ?should_skip_type_state_output@?$positional_parameter_base@DV?$stream_output_adapter@D@__crt_stdio_output@@@__crt_stdio_output@@IBE_NXZ 1002cede f i libucrt:output.obj
 0001:0002bef5       ?should_skip_type_state_output@?$positional_parameter_base@DV?$string_output_adapter@D@__crt_stdio_output@@@__crt_stdio_output@@IBE_NXZ 1002cef5 f i libucrt:output.obj
 0001:0002bf0c       ?should_skip_type_state_output@?$positional_parameter_base@_WV?$stream_output_adapter@_W@__crt_stdio_output@@@__crt_stdio_output@@IBE_NXZ 1002cf0c f i libucrt:output.obj
 0001:0002bf23       ?should_skip_type_state_output@?$positional_parameter_base@_WV?$string_output_adapter@_W@__crt_stdio_output@@@__crt_stdio_output@@IBE_NXZ 1002cf23 f i libucrt:output.obj
 0001:0002bf3a       ?should_skip_type_state_output@?$standard_base@DV?$stream_output_adapter@D@__crt_stdio_output@@@__crt_stdio_output@@IBE_NXZ 1002cf3a f i libucrt:output.obj
 0001:0002bf3d       ?should_skip_type_state_output@?$standard_base@DV?$string_output_adapter@D@__crt_stdio_output@@@__crt_stdio_output@@IBE_NXZ 1002cf3d f i libucrt:output.obj
 0001:0002bf40       ?should_skip_type_state_output@?$standard_base@_WV?$stream_output_adapter@_W@__crt_stdio_output@@@__crt_stdio_output@@IBE_NXZ 1002cf40 f i libucrt:output.obj
 0001:0002bf43       ?should_skip_type_state_output@?$standard_base@_WV?$string_output_adapter@_W@__crt_stdio_output@@@__crt_stdio_output@@IBE_NXZ 1002cf43 f i libucrt:output.obj
 0001:0002bf46       ?state_case_dot@?$output_processor@DV?$stream_output_adapter@D@__crt_stdio_output@@V?$format_validation_base@DV?$stream_output_adapter@D@__crt_stdio_output@@@2@@__crt_stdio_output@@AAE_NXZ 1002cf46 f i libucrt:output.obj
 0001:0002bf4d       ?state_case_dot@?$output_processor@DV?$stream_output_adapter@D@__crt_stdio_output@@V?$positional_parameter_base@DV?$stream_output_adapter@D@__crt_stdio_output@@@2@@__crt_stdio_output@@AAE_NXZ 1002cf4d f i libucrt:output.obj
 0001:0002bf54       ?state_case_dot@?$output_processor@DV?$stream_output_adapter@D@__crt_stdio_output@@V?$standard_base@DV?$stream_output_adapter@D@__crt_stdio_output@@@2@@__crt_stdio_output@@AAE_NXZ 1002cf54 f i libucrt:output.obj
 0001:0002bf5b       ?state_case_dot@?$output_processor@DV?$string_output_adapter@D@__crt_stdio_output@@V?$format_validation_base@DV?$string_output_adapter@D@__crt_stdio_output@@@2@@__crt_stdio_output@@AAE_NXZ 1002cf5b f i libucrt:output.obj
 0001:0002bf62       ?state_case_dot@?$output_processor@DV?$string_output_adapter@D@__crt_stdio_output@@V?$positional_parameter_base@DV?$string_output_adapter@D@__crt_stdio_output@@@2@@__crt_stdio_output@@AAE_NXZ 1002cf62 f i libucrt:output.obj
 0001:0002bf69       ?state_case_dot@?$output_processor@DV?$string_output_adapter@D@__crt_stdio_output@@V?$standard_base@DV?$string_output_adapter@D@__crt_stdio_output@@@2@@__crt_stdio_output@@AAE_NXZ 1002cf69 f i libucrt:output.obj
 0001:0002bf70       ?state_case_dot@?$output_processor@_WV?$stream_output_adapter@_W@__crt_stdio_output@@V?$format_validation_base@_WV?$stream_output_adapter@_W@__crt_stdio_output@@@2@@__crt_stdio_output@@AAE_NXZ 1002cf70 f i libucrt:output.obj
 0001:0002bf77       ?state_case_dot@?$output_processor@_WV?$stream_output_adapter@_W@__crt_stdio_output@@V?$positional_parameter_base@_WV?$stream_output_adapter@_W@__crt_stdio_output@@@2@@__crt_stdio_output@@AAE_NXZ 1002cf77 f i libucrt:output.obj
 0001:0002bf7e       ?state_case_dot@?$output_processor@_WV?$stream_output_adapter@_W@__crt_stdio_output@@V?$standard_base@_WV?$stream_output_adapter@_W@__crt_stdio_output@@@2@@__crt_stdio_output@@AAE_NXZ 1002cf7e f i libucrt:output.obj
 0001:0002bf85       ?state_case_dot@?$output_processor@_WV?$string_output_adapter@_W@__crt_stdio_output@@V?$format_validation_base@_WV?$string_output_adapter@_W@__crt_stdio_output@@@2@@__crt_stdio_output@@AAE_NXZ 1002cf85 f i libucrt:output.obj
 0001:0002bf8c       ?state_case_dot@?$output_processor@_WV?$string_output_adapter@_W@__crt_stdio_output@@V?$positional_parameter_base@_WV?$string_output_adapter@_W@__crt_stdio_output@@@2@@__crt_stdio_output@@AAE_NXZ 1002cf8c f i libucrt:output.obj
 0001:0002bf93       ?state_case_dot@?$output_processor@_WV?$string_output_adapter@_W@__crt_stdio_output@@V?$standard_base@_WV?$string_output_adapter@_W@__crt_stdio_output@@@2@@__crt_stdio_output@@AAE_NXZ 1002cf93 f i libucrt:output.obj
 0001:0002bf9a       ?state_case_flag@?$output_processor@DV?$stream_output_adapter@D@__crt_stdio_output@@V?$format_validation_base@DV?$stream_output_adapter@D@__crt_stdio_output@@@2@@__crt_stdio_output@@AAE_NXZ 1002cf9a f i libucrt:output.obj
 0001:0002bfd7       ?state_case_flag@?$output_processor@DV?$stream_output_adapter@D@__crt_stdio_output@@V?$positional_parameter_base@DV?$stream_output_adapter@D@__crt_stdio_output@@@2@@__crt_stdio_output@@AAE_NXZ 1002cfd7 f i libucrt:output.obj
 0001:0002c014       ?state_case_flag@?$output_processor@DV?$stream_output_adapter@D@__crt_stdio_output@@V?$standard_base@DV?$stream_output_adapter@D@__crt_stdio_output@@@2@@__crt_stdio_output@@AAE_NXZ 1002d014 f i libucrt:output.obj
 0001:0002c051       ?state_case_flag@?$output_processor@DV?$string_output_adapter@D@__crt_stdio_output@@V?$format_validation_base@DV?$string_output_adapter@D@__crt_stdio_output@@@2@@__crt_stdio_output@@AAE_NXZ 1002d051 f i libucrt:output.obj
 0001:0002c08e       ?state_case_flag@?$output_processor@DV?$string_output_adapter@D@__crt_stdio_output@@V?$positional_parameter_base@DV?$string_output_adapter@D@__crt_stdio_output@@@2@@__crt_stdio_output@@AAE_NXZ 1002d08e f i libucrt:output.obj
 0001:0002c0cb       ?state_case_flag@?$output_processor@DV?$string_output_adapter@D@__crt_stdio_output@@V?$standard_base@DV?$string_output_adapter@D@__crt_stdio_output@@@2@@__crt_stdio_output@@AAE_NXZ 1002d0cb f i libucrt:output.obj
 0001:0002c108       ?state_case_flag@?$output_processor@_WV?$stream_output_adapter@_W@__crt_stdio_output@@V?$format_validation_base@_WV?$stream_output_adapter@_W@__crt_stdio_output@@@2@@__crt_stdio_output@@AAE_NXZ 1002d108 f i libucrt:output.obj
 0001:0002c145       ?state_case_flag@?$output_processor@_WV?$stream_output_adapter@_W@__crt_stdio_output@@V?$positional_parameter_base@_WV?$stream_output_adapter@_W@__crt_stdio_output@@@2@@__crt_stdio_output@@AAE_NXZ 1002d145 f i libucrt:output.obj
 0001:0002c182       ?state_case_flag@?$output_processor@_WV?$stream_output_adapter@_W@__crt_stdio_output@@V?$standard_base@_WV?$stream_output_adapter@_W@__crt_stdio_output@@@2@@__crt_stdio_output@@AAE_NXZ 1002d182 f i libucrt:output.obj
 0001:0002c1bf       ?state_case_flag@?$output_processor@_WV?$string_output_adapter@_W@__crt_stdio_output@@V?$format_validation_base@_WV?$string_output_adapter@_W@__crt_stdio_output@@@2@@__crt_stdio_output@@AAE_NXZ 1002d1bf f i libucrt:output.obj
 0001:0002c1fc       ?state_case_flag@?$output_processor@_WV?$string_output_adapter@_W@__crt_stdio_output@@V?$positional_parameter_base@_WV?$string_output_adapter@_W@__crt_stdio_output@@@2@@__crt_stdio_output@@AAE_NXZ 1002d1fc f i libucrt:output.obj
 0001:0002c239       ?state_case_flag@?$output_processor@_WV?$string_output_adapter@_W@__crt_stdio_output@@V?$standard_base@_WV?$string_output_adapter@_W@__crt_stdio_output@@@2@@__crt_stdio_output@@AAE_NXZ 1002d239 f i libucrt:output.obj
 0001:0002c276       ?state_case_normal@?$output_processor@DV?$stream_output_adapter@D@__crt_stdio_output@@V?$format_validation_base@DV?$stream_output_adapter@D@__crt_stdio_output@@@2@@__crt_stdio_output@@AAE_NXZ 1002d276 f i libucrt:output.obj
 0001:0002c333       ?state_case_normal@?$output_processor@DV?$stream_output_adapter@D@__crt_stdio_output@@V?$positional_parameter_base@DV?$stream_output_adapter@D@__crt_stdio_output@@@2@@__crt_stdio_output@@AAE_NXZ 1002d333 f i libucrt:output.obj
 0001:0002c3fb       ?state_case_normal@?$output_processor@DV?$stream_output_adapter@D@__crt_stdio_output@@V?$standard_base@DV?$stream_output_adapter@D@__crt_stdio_output@@@2@@__crt_stdio_output@@AAE_NXZ 1002d3fb f i libucrt:output.obj
 0001:0002c4b8       ?state_case_normal@?$output_processor@DV?$string_output_adapter@D@__crt_stdio_output@@V?$format_validation_base@DV?$string_output_adapter@D@__crt_stdio_output@@@2@@__crt_stdio_output@@AAE_NXZ 1002d4b8 f i libucrt:output.obj
 0001:0002c5b4       ?state_case_normal@?$output_processor@DV?$string_output_adapter@D@__crt_stdio_output@@V?$positional_parameter_base@DV?$string_output_adapter@D@__crt_stdio_output@@@2@@__crt_stdio_output@@AAE_NXZ 1002d5b4 f i libucrt:output.obj
 0001:0002c6bb       ?state_case_normal@?$output_processor@DV?$string_output_adapter@D@__crt_stdio_output@@V?$standard_base@DV?$string_output_adapter@D@__crt_stdio_output@@@2@@__crt_stdio_output@@AAE_NXZ 1002d6bb f i libucrt:output.obj
 0001:0002c7b7       ?state_case_normal@?$output_processor@_WV?$stream_output_adapter@_W@__crt_stdio_output@@V?$format_validation_base@_WV?$stream_output_adapter@_W@__crt_stdio_output@@@2@@__crt_stdio_output@@AAE_NXZ 1002d7b7 f i libucrt:output.obj
 0001:0002c7d5       ?state_case_normal@?$output_processor@_WV?$stream_output_adapter@_W@__crt_stdio_output@@V?$positional_parameter_base@_WV?$stream_output_adapter@_W@__crt_stdio_output@@@2@@__crt_stdio_output@@AAE_NXZ 1002d7d5 f i libucrt:output.obj
 0001:0002c802       ?state_case_normal@?$output_processor@_WV?$stream_output_adapter@_W@__crt_stdio_output@@V?$standard_base@_WV?$stream_output_adapter@_W@__crt_stdio_output@@@2@@__crt_stdio_output@@AAE_NXZ 1002d802 f i libucrt:output.obj
 0001:0002c820       ?state_case_normal@?$output_processor@_WV?$string_output_adapter@_W@__crt_stdio_output@@V?$format_validation_base@_WV?$string_output_adapter@_W@__crt_stdio_output@@@2@@__crt_stdio_output@@AAE_NXZ 1002d820 f i libucrt:output.obj
 0001:0002c868       ?state_case_normal@?$output_processor@_WV?$string_output_adapter@_W@__crt_stdio_output@@V?$positional_parameter_base@_WV?$string_output_adapter@_W@__crt_stdio_output@@@2@@__crt_stdio_output@@AAE_NXZ 1002d868 f i libucrt:output.obj
 0001:0002c8bb       ?state_case_normal@?$output_processor@_WV?$string_output_adapter@_W@__crt_stdio_output@@V?$standard_base@_WV?$string_output_adapter@_W@__crt_stdio_output@@@2@@__crt_stdio_output@@AAE_NXZ 1002d8bb f i libucrt:output.obj
 0001:0002c903       ?state_case_normal_common@?$output_processor@DV?$stream_output_adapter@D@__crt_stdio_output@@V?$format_validation_base@DV?$stream_output_adapter@D@__crt_stdio_output@@@2@@__crt_stdio_output@@AAE_NXZ 1002d903 f i libucrt:output.obj
 0001:0002c99b       ?state_case_normal_common@?$output_processor@DV?$stream_output_adapter@D@__crt_stdio_output@@V?$positional_parameter_base@DV?$stream_output_adapter@D@__crt_stdio_output@@@2@@__crt_stdio_output@@AAE_NXZ 1002d99b f i libucrt:output.obj
 0001:0002ca33       ?state_case_normal_common@?$output_processor@DV?$stream_output_adapter@D@__crt_stdio_output@@V?$standard_base@DV?$stream_output_adapter@D@__crt_stdio_output@@@2@@__crt_stdio_output@@AAE_NXZ 1002da33 f i libucrt:output.obj
 0001:0002cacb       ?state_case_normal_common@?$output_processor@DV?$string_output_adapter@D@__crt_stdio_output@@V?$format_validation_base@DV?$string_output_adapter@D@__crt_stdio_output@@@2@@__crt_stdio_output@@AAE_NXZ 1002dacb f i libucrt:output.obj
 0001:0002cbab       ?state_case_normal_common@?$output_processor@DV?$string_output_adapter@D@__crt_stdio_output@@V?$positional_parameter_base@DV?$string_output_adapter@D@__crt_stdio_output@@@2@@__crt_stdio_output@@AAE_NXZ 1002dbab f i libucrt:output.obj
 0001:0002cc8b       ?state_case_normal_common@?$output_processor@DV?$string_output_adapter@D@__crt_stdio_output@@V?$standard_base@DV?$string_output_adapter@D@__crt_stdio_output@@@2@@__crt_stdio_output@@AAE_NXZ 1002dc8b f i libucrt:output.obj
 0001:0002cd6b       ?state_case_normal_common@?$output_processor@_WV?$stream_output_adapter@_W@__crt_stdio_output@@V?$format_validation_base@_WV?$stream_output_adapter@_W@__crt_stdio_output@@@2@@__crt_stdio_output@@AAE_NXZ 1002dd6b f i libucrt:output.obj
 0001:0002cd89       ?state_case_normal_common@?$output_processor@_WV?$stream_output_adapter@_W@__crt_stdio_output@@V?$positional_parameter_base@_WV?$stream_output_adapter@_W@__crt_stdio_output@@@2@@__crt_stdio_output@@AAE_NXZ 1002dd89 f i libucrt:output.obj
 0001:0002cda7       ?state_case_normal_common@?$output_processor@_WV?$stream_output_adapter@_W@__crt_stdio_output@@V?$standard_base@_WV?$stream_output_adapter@_W@__crt_stdio_output@@@2@@__crt_stdio_output@@AAE_NXZ 1002dda7 f i libucrt:output.obj
 0001:0002cdc5       ?state_case_normal_common@?$output_processor@_WV?$string_output_adapter@_W@__crt_stdio_output@@V?$format_validation_base@_WV?$string_output_adapter@_W@__crt_stdio_output@@@2@@__crt_stdio_output@@AAE_NXZ 1002ddc5 f i libucrt:output.obj
 0001:0002ce0d       ?state_case_normal_common@?$output_processor@_WV?$string_output_adapter@_W@__crt_stdio_output@@V?$positional_parameter_base@_WV?$string_output_adapter@_W@__crt_stdio_output@@@2@@__crt_stdio_output@@AAE_NXZ 1002de0d f i libucrt:output.obj
 0001:0002ce55       ?state_case_normal_common@?$output_processor@_WV?$string_output_adapter@_W@__crt_stdio_output@@V?$standard_base@_WV?$string_output_adapter@_W@__crt_stdio_output@@@2@@__crt_stdio_output@@AAE_NXZ 1002de55 f i libucrt:output.obj
 0001:0002ce9d       ?state_case_normal_tchar@?$output_processor@DV?$stream_output_adapter@D@__crt_stdio_output@@V?$format_validation_base@DV?$stream_output_adapter@D@__crt_stdio_output@@@2@@__crt_stdio_output@@AAE_ND@Z 1002de9d f i libucrt:output.obj
 0001:0002cf24       ?state_case_normal_tchar@?$output_processor@DV?$stream_output_adapter@D@__crt_stdio_output@@V?$positional_parameter_base@DV?$stream_output_adapter@D@__crt_stdio_output@@@2@@__crt_stdio_output@@AAE_ND@Z 1002df24 f i libucrt:output.obj
 0001:0002cfab       ?state_case_normal_tchar@?$output_processor@DV?$stream_output_adapter@D@__crt_stdio_output@@V?$standard_base@DV?$stream_output_adapter@D@__crt_stdio_output@@@2@@__crt_stdio_output@@AAE_ND@Z 1002dfab f i libucrt:output.obj
 0001:0002d032       ?state_case_normal_tchar@?$output_processor@DV?$string_output_adapter@D@__crt_stdio_output@@V?$format_validation_base@DV?$string_output_adapter@D@__crt_stdio_output@@@2@@__crt_stdio_output@@AAE_ND@Z 1002e032 f i libucrt:output.obj
 0001:0002d0dd       ?state_case_normal_tchar@?$output_processor@DV?$string_output_adapter@D@__crt_stdio_output@@V?$positional_parameter_base@DV?$string_output_adapter@D@__crt_stdio_output@@@2@@__crt_stdio_output@@AAE_ND@Z 1002e0dd f i libucrt:output.obj
 0001:0002d188       ?state_case_normal_tchar@?$output_processor@DV?$string_output_adapter@D@__crt_stdio_output@@V?$standard_base@DV?$string_output_adapter@D@__crt_stdio_output@@@2@@__crt_stdio_output@@AAE_ND@Z 1002e188 f i libucrt:output.obj
 0001:0002d233       ?state_case_normal_tchar@?$output_processor@_WV?$stream_output_adapter@_W@__crt_stdio_output@@V?$format_validation_base@_WV?$stream_output_adapter@_W@__crt_stdio_output@@@2@@__crt_stdio_output@@AAE_N_W@Z 1002e233 f i libucrt:output.obj
 0001:0002d23c       ?state_case_normal_tchar@?$output_processor@_WV?$stream_output_adapter@_W@__crt_stdio_output@@V?$positional_parameter_base@_WV?$stream_output_adapter@_W@__crt_stdio_output@@@2@@__crt_stdio_output@@AAE_N_W@Z 1002e23c f i libucrt:output.obj
 0001:0002d245       ?state_case_normal_tchar@?$output_processor@_WV?$stream_output_adapter@_W@__crt_stdio_output@@V?$standard_base@_WV?$stream_output_adapter@_W@__crt_stdio_output@@@2@@__crt_stdio_output@@AAE_N_W@Z 1002e245 f i libucrt:output.obj
 0001:0002d24e       ?state_case_normal_tchar@?$output_processor@_WV?$string_output_adapter@_W@__crt_stdio_output@@V?$format_validation_base@_WV?$string_output_adapter@_W@__crt_stdio_output@@@2@@__crt_stdio_output@@AAE_N_W@Z 1002e24e f i libucrt:output.obj
 0001:0002d257       ?state_case_normal_tchar@?$output_processor@_WV?$string_output_adapter@_W@__crt_stdio_output@@V?$positional_parameter_base@_WV?$string_output_adapter@_W@__crt_stdio_output@@@2@@__crt_stdio_output@@AAE_N_W@Z 1002e257 f i libucrt:output.obj
 0001:0002d260       ?state_case_normal_tchar@?$output_processor@_WV?$string_output_adapter@_W@__crt_stdio_output@@V?$standard_base@_WV?$string_output_adapter@_W@__crt_stdio_output@@@2@@__crt_stdio_output@@AAE_N_W@Z 1002e260 f i libucrt:output.obj
 0001:0002d269       ?state_case_percent@?$output_processor@DV?$stream_output_adapter@D@__crt_stdio_output@@V?$format_validation_base@DV?$stream_output_adapter@D@__crt_stdio_output@@@2@@__crt_stdio_output@@AAE_NXZ 1002e269 f i libucrt:output.obj
 0001:0002d281       ?state_case_percent@?$output_processor@DV?$stream_output_adapter@D@__crt_stdio_output@@V?$positional_parameter_base@DV?$stream_output_adapter@D@__crt_stdio_output@@@2@@__crt_stdio_output@@AAE_NXZ 1002e281 f i libucrt:output.obj
 0001:0002d299       ?state_case_percent@?$output_processor@DV?$stream_output_adapter@D@__crt_stdio_output@@V?$standard_base@DV?$stream_output_adapter@D@__crt_stdio_output@@@2@@__crt_stdio_output@@AAE_NXZ 1002e299 f i libucrt:output.obj
 0001:0002d2b1       ?state_case_percent@?$output_processor@DV?$string_output_adapter@D@__crt_stdio_output@@V?$format_validation_base@DV?$string_output_adapter@D@__crt_stdio_output@@@2@@__crt_stdio_output@@AAE_NXZ 1002e2b1 f i libucrt:output.obj
 0001:0002d2c9       ?state_case_percent@?$output_processor@DV?$string_output_adapter@D@__crt_stdio_output@@V?$positional_parameter_base@DV?$string_output_adapter@D@__crt_stdio_output@@@2@@__crt_stdio_output@@AAE_NXZ 1002e2c9 f i libucrt:output.obj
 0001:0002d2e1       ?state_case_percent@?$output_processor@DV?$string_output_adapter@D@__crt_stdio_output@@V?$standard_base@DV?$string_output_adapter@D@__crt_stdio_output@@@2@@__crt_stdio_output@@AAE_NXZ 1002e2e1 f i libucrt:output.obj
 0001:0002d2f9       ?state_case_percent@?$output_processor@_WV?$stream_output_adapter@_W@__crt_stdio_output@@V?$format_validation_base@_WV?$stream_output_adapter@_W@__crt_stdio_output@@@2@@__crt_stdio_output@@AAE_NXZ 1002e2f9 f i libucrt:output.obj
 0001:0002d311       ?state_case_percent@?$output_processor@_WV?$stream_output_adapter@_W@__crt_stdio_output@@V?$positional_parameter_base@_WV?$stream_output_adapter@_W@__crt_stdio_output@@@2@@__crt_stdio_output@@AAE_NXZ 1002e311 f i libucrt:output.obj
 0001:0002d329       ?state_case_percent@?$output_processor@_WV?$stream_output_adapter@_W@__crt_stdio_output@@V?$standard_base@_WV?$stream_output_adapter@_W@__crt_stdio_output@@@2@@__crt_stdio_output@@AAE_NXZ 1002e329 f i libucrt:output.obj
 0001:0002d341       ?state_case_percent@?$output_processor@_WV?$string_output_adapter@_W@__crt_stdio_output@@V?$format_validation_base@_WV?$string_output_adapter@_W@__crt_stdio_output@@@2@@__crt_stdio_output@@AAE_NXZ 1002e341 f i libucrt:output.obj
 0001:0002d359       ?state_case_percent@?$output_processor@_WV?$string_output_adapter@_W@__crt_stdio_output@@V?$positional_parameter_base@_WV?$string_output_adapter@_W@__crt_stdio_output@@@2@@__crt_stdio_output@@AAE_NXZ 1002e359 f i libucrt:output.obj
 0001:0002d371       ?state_case_percent@?$output_processor@_WV?$string_output_adapter@_W@__crt_stdio_output@@V?$standard_base@_WV?$string_output_adapter@_W@__crt_stdio_output@@@2@@__crt_stdio_output@@AAE_NXZ 1002e371 f i libucrt:output.obj
 0001:0002d389       ?state_case_precision@?$output_processor@DV?$stream_output_adapter@D@__crt_stdio_output@@V?$format_validation_base@DV?$stream_output_adapter@D@__crt_stdio_output@@@2@@__crt_stdio_output@@AAE_NXZ 1002e389 f i libucrt:output.obj
 0001:0002d3b5       ?state_case_precision@?$output_processor@DV?$stream_output_adapter@D@__crt_stdio_output@@V?$positional_parameter_base@DV?$stream_output_adapter@D@__crt_stdio_output@@@2@@__crt_stdio_output@@AAE_NXZ 1002e3b5 f i libucrt:output.obj
 0001:0002d3ef       ?state_case_precision@?$output_processor@DV?$stream_output_adapter@D@__crt_stdio_output@@V?$standard_base@DV?$stream_output_adapter@D@__crt_stdio_output@@@2@@__crt_stdio_output@@AAE_NXZ 1002e3ef f i libucrt:output.obj
 0001:0002d41b       ?state_case_precision@?$output_processor@DV?$string_output_adapter@D@__crt_stdio_output@@V?$format_validation_base@DV?$string_output_adapter@D@__crt_stdio_output@@@2@@__crt_stdio_output@@AAE_NXZ 1002e41b f i libucrt:output.obj
 0001:0002d447       ?state_case_precision@?$output_processor@DV?$string_output_adapter@D@__crt_stdio_output@@V?$positional_parameter_base@DV?$string_output_adapter@D@__crt_stdio_output@@@2@@__crt_stdio_output@@AAE_NXZ 1002e447 f i libucrt:output.obj
 0001:0002d481       ?state_case_precision@?$output_processor@DV?$string_output_adapter@D@__crt_stdio_output@@V?$standard_base@DV?$string_output_adapter@D@__crt_stdio_output@@@2@@__crt_stdio_output@@AAE_NXZ 1002e481 f i libucrt:output.obj
 0001:0002d4ad       ?state_case_precision@?$output_processor@_WV?$stream_output_adapter@_W@__crt_stdio_output@@V?$format_validation_base@_WV?$stream_output_adapter@_W@__crt_stdio_output@@@2@@__crt_stdio_output@@AAE_NXZ 1002e4ad f i libucrt:output.obj
 0001:0002d4da       ?state_case_precision@?$output_processor@_WV?$stream_output_adapter@_W@__crt_stdio_output@@V?$positional_parameter_base@_WV?$stream_output_adapter@_W@__crt_stdio_output@@@2@@__crt_stdio_output@@AAE_NXZ 1002e4da f i libucrt:output.obj
 0001:0002d515       ?state_case_precision@?$output_processor@_WV?$stream_output_adapter@_W@__crt_stdio_output@@V?$standard_base@_WV?$stream_output_adapter@_W@__crt_stdio_output@@@2@@__crt_stdio_output@@AAE_NXZ 1002e515 f i libucrt:output.obj
 0001:0002d542       ?state_case_precision@?$output_processor@_WV?$string_output_adapter@_W@__crt_stdio_output@@V?$format_validation_base@_WV?$string_output_adapter@_W@__crt_stdio_output@@@2@@__crt_stdio_output@@AAE_NXZ 1002e542 f i libucrt:output.obj
 0001:0002d56f       ?state_case_precision@?$output_processor@_WV?$string_output_adapter@_W@__crt_stdio_output@@V?$positional_parameter_base@_WV?$string_output_adapter@_W@__crt_stdio_output@@@2@@__crt_stdio_output@@AAE_NXZ 1002e56f f i libucrt:output.obj
 0001:0002d5aa       ?state_case_precision@?$output_processor@_WV?$string_output_adapter@_W@__crt_stdio_output@@V?$standard_base@_WV?$string_output_adapter@_W@__crt_stdio_output@@@2@@__crt_stdio_output@@AAE_NXZ 1002e5aa f i libucrt:output.obj
 0001:0002d5d7       ?state_case_size@?$output_processor@DV?$stream_output_adapter@D@__crt_stdio_output@@V?$format_validation_base@DV?$stream_output_adapter@D@__crt_stdio_output@@@2@@__crt_stdio_output@@AAE_NXZ 1002e5d7 f i libucrt:output.obj
 0001:0002d730       ?state_case_size@?$output_processor@DV?$stream_output_adapter@D@__crt_stdio_output@@V?$positional_parameter_base@DV?$stream_output_adapter@D@__crt_stdio_output@@@2@@__crt_stdio_output@@AAE_NXZ 1002e730 f i libucrt:output.obj
 0001:0002d889       ?state_case_size@?$output_processor@DV?$stream_output_adapter@D@__crt_stdio_output@@V?$standard_base@DV?$stream_output_adapter@D@__crt_stdio_output@@@2@@__crt_stdio_output@@AAE_NXZ 1002e889 f i libucrt:output.obj
 0001:0002d9e2       ?state_case_size@?$output_processor@DV?$string_output_adapter@D@__crt_stdio_output@@V?$format_validation_base@DV?$string_output_adapter@D@__crt_stdio_output@@@2@@__crt_stdio_output@@AAE_NXZ 1002e9e2 f i libucrt:output.obj
 0001:0002db3b       ?state_case_size@?$output_processor@DV?$string_output_adapter@D@__crt_stdio_output@@V?$positional_parameter_base@DV?$string_output_adapter@D@__crt_stdio_output@@@2@@__crt_stdio_output@@AAE_NXZ 1002eb3b f i libucrt:output.obj
 0001:0002dc94       ?state_case_size@?$output_processor@DV?$string_output_adapter@D@__crt_stdio_output@@V?$standard_base@DV?$string_output_adapter@D@__crt_stdio_output@@@2@@__crt_stdio_output@@AAE_NXZ 1002ec94 f i libucrt:output.obj
 0001:0002dded       ?state_case_size@?$output_processor@_WV?$stream_output_adapter@_W@__crt_stdio_output@@V?$format_validation_base@_WV?$stream_output_adapter@_W@__crt_stdio_output@@@2@@__crt_stdio_output@@AAE_NXZ 1002eded f i libucrt:output.obj
 0001:0002df77       ?state_case_size@?$output_processor@_WV?$stream_output_adapter@_W@__crt_stdio_output@@V?$positional_parameter_base@_WV?$stream_output_adapter@_W@__crt_stdio_output@@@2@@__crt_stdio_output@@AAE_NXZ 1002ef77 f i libucrt:output.obj
 0001:0002e101       ?state_case_size@?$output_processor@_WV?$stream_output_adapter@_W@__crt_stdio_output@@V?$standard_base@_WV?$stream_output_adapter@_W@__crt_stdio_output@@@2@@__crt_stdio_output@@AAE_NXZ 1002f101 f i libucrt:output.obj
 0001:0002e28b       ?state_case_size@?$output_processor@_WV?$string_output_adapter@_W@__crt_stdio_output@@V?$format_validation_base@_WV?$string_output_adapter@_W@__crt_stdio_output@@@2@@__crt_stdio_output@@AAE_NXZ 1002f28b f i libucrt:output.obj
 0001:0002e415       ?state_case_size@?$output_processor@_WV?$string_output_adapter@_W@__crt_stdio_output@@V?$positional_parameter_base@_WV?$string_output_adapter@_W@__crt_stdio_output@@@2@@__crt_stdio_output@@AAE_NXZ 1002f415 f i libucrt:output.obj
 0001:0002e59f       ?state_case_size@?$output_processor@_WV?$string_output_adapter@_W@__crt_stdio_output@@V?$standard_base@_WV?$string_output_adapter@_W@__crt_stdio_output@@@2@@__crt_stdio_output@@AAE_NXZ 1002f59f f i libucrt:output.obj
 0001:0002e729       ?state_case_type@?$output_processor@DV?$stream_output_adapter@D@__crt_stdio_output@@V?$format_validation_base@DV?$stream_output_adapter@D@__crt_stdio_output@@@2@@__crt_stdio_output@@AAE_NXZ 1002f729 f i libucrt:output.obj
 0001:0002ea6b       ?state_case_type@?$output_processor@DV?$stream_output_adapter@D@__crt_stdio_output@@V?$positional_parameter_base@DV?$stream_output_adapter@D@__crt_stdio_output@@@2@@__crt_stdio_output@@AAE_NXZ 1002fa6b f i libucrt:output.obj
 0001:0002edbc       ?state_case_type@?$output_processor@DV?$stream_output_adapter@D@__crt_stdio_output@@V?$standard_base@DV?$stream_output_adapter@D@__crt_stdio_output@@@2@@__crt_stdio_output@@AAE_NXZ 1002fdbc f i libucrt:output.obj
 0001:0002f0fe       ?state_case_type@?$output_processor@DV?$string_output_adapter@D@__crt_stdio_output@@V?$format_validation_base@DV?$string_output_adapter@D@__crt_stdio_output@@@2@@__crt_stdio_output@@AAE_NXZ 100300fe f i libucrt:output.obj
 0001:0002f45d       ?state_case_type@?$output_processor@DV?$string_output_adapter@D@__crt_stdio_output@@V?$positional_parameter_base@DV?$string_output_adapter@D@__crt_stdio_output@@@2@@__crt_stdio_output@@AAE_NXZ 1003045d f i libucrt:output.obj
 0001:0002f7cb       ?state_case_type@?$output_processor@DV?$string_output_adapter@D@__crt_stdio_output@@V?$standard_base@DV?$string_output_adapter@D@__crt_stdio_output@@@2@@__crt_stdio_output@@AAE_NXZ 100307cb f i libucrt:output.obj
 0001:0002fb2a       ?state_case_type@?$output_processor@_WV?$stream_output_adapter@_W@__crt_stdio_output@@V?$format_validation_base@_WV?$stream_output_adapter@_W@__crt_stdio_output@@@2@@__crt_stdio_output@@AAE_NXZ 10030b2a f i libucrt:output.obj
 0001:0002fe88       ?state_case_type@?$output_processor@_WV?$stream_output_adapter@_W@__crt_stdio_output@@V?$positional_parameter_base@_WV?$stream_output_adapter@_W@__crt_stdio_output@@@2@@__crt_stdio_output@@AAE_NXZ 10030e88 f i libucrt:output.obj
 0001:000301f5       ?state_case_type@?$output_processor@_WV?$stream_output_adapter@_W@__crt_stdio_output@@V?$standard_base@_WV?$stream_output_adapter@_W@__crt_stdio_output@@@2@@__crt_stdio_output@@AAE_NXZ 100311f5 f i libucrt:output.obj
 0001:00030553       ?state_case_type@?$output_processor@_WV?$string_output_adapter@_W@__crt_stdio_output@@V?$format_validation_base@_WV?$string_output_adapter@_W@__crt_stdio_output@@@2@@__crt_stdio_output@@AAE_NXZ 10031553 f i libucrt:output.obj
 0001:00030947       ?state_case_type@?$output_processor@_WV?$string_output_adapter@_W@__crt_stdio_output@@V?$positional_parameter_base@_WV?$string_output_adapter@_W@__crt_stdio_output@@@2@@__crt_stdio_output@@AAE_NXZ 10031947 f i libucrt:output.obj
 0001:00030d4a       ?state_case_type@?$output_processor@_WV?$string_output_adapter@_W@__crt_stdio_output@@V?$standard_base@_WV?$string_output_adapter@_W@__crt_stdio_output@@@2@@__crt_stdio_output@@AAE_NXZ 10031d4a f i libucrt:output.obj
 0001:0003113e       ?state_case_width@?$output_processor@DV?$stream_output_adapter@D@__crt_stdio_output@@V?$format_validation_base@DV?$stream_output_adapter@D@__crt_stdio_output@@@2@@__crt_stdio_output@@AAE_NXZ 1003213e f i libucrt:output.obj
 0001:0003116f       ?state_case_width@?$output_processor@DV?$stream_output_adapter@D@__crt_stdio_output@@V?$positional_parameter_base@DV?$stream_output_adapter@D@__crt_stdio_output@@@2@@__crt_stdio_output@@AAE_NXZ 1003216f f i libucrt:output.obj
 0001:000311af       ?state_case_width@?$output_processor@DV?$stream_output_adapter@D@__crt_stdio_output@@V?$standard_base@DV?$stream_output_adapter@D@__crt_stdio_output@@@2@@__crt_stdio_output@@AAE_NXZ 100321af f i libucrt:output.obj
 0001:000311e0       ?state_case_width@?$output_processor@DV?$string_output_adapter@D@__crt_stdio_output@@V?$format_validation_base@DV?$string_output_adapter@D@__crt_stdio_output@@@2@@__crt_stdio_output@@AAE_NXZ 100321e0 f i libucrt:output.obj
 0001:00031211       ?state_case_width@?$output_processor@DV?$string_output_adapter@D@__crt_stdio_output@@V?$positional_parameter_base@DV?$string_output_adapter@D@__crt_stdio_output@@@2@@__crt_stdio_output@@AAE_NXZ 10032211 f i libucrt:output.obj
 0001:00031251       ?state_case_width@?$output_processor@DV?$string_output_adapter@D@__crt_stdio_output@@V?$standard_base@DV?$string_output_adapter@D@__crt_stdio_output@@@2@@__crt_stdio_output@@AAE_NXZ 10032251 f i libucrt:output.obj
 0001:00031282       ?state_case_width@?$output_processor@_WV?$stream_output_adapter@_W@__crt_stdio_output@@V?$format_validation_base@_WV?$stream_output_adapter@_W@__crt_stdio_output@@@2@@__crt_stdio_output@@AAE_NXZ 10032282 f i libucrt:output.obj
 0001:000312b4       ?state_case_width@?$output_processor@_WV?$stream_output_adapter@_W@__crt_stdio_output@@V?$positional_parameter_base@_WV?$stream_output_adapter@_W@__crt_stdio_output@@@2@@__crt_stdio_output@@AAE_NXZ 100322b4 f i libucrt:output.obj
 0001:000312f5       ?state_case_width@?$output_processor@_WV?$stream_output_adapter@_W@__crt_stdio_output@@V?$standard_base@_WV?$stream_output_adapter@_W@__crt_stdio_output@@@2@@__crt_stdio_output@@AAE_NXZ 100322f5 f i libucrt:output.obj
 0001:00031327       ?state_case_width@?$output_processor@_WV?$string_output_adapter@_W@__crt_stdio_output@@V?$format_validation_base@_WV?$string_output_adapter@_W@__crt_stdio_output@@@2@@__crt_stdio_output@@AAE_NXZ 10032327 f i libucrt:output.obj
 0001:00031359       ?state_case_width@?$output_processor@_WV?$string_output_adapter@_W@__crt_stdio_output@@V?$positional_parameter_base@_WV?$string_output_adapter@_W@__crt_stdio_output@@@2@@__crt_stdio_output@@AAE_NXZ 10032359 f i libucrt:output.obj
 0001:0003139a       ?state_case_width@?$output_processor@_WV?$string_output_adapter@_W@__crt_stdio_output@@V?$standard_base@_WV?$string_output_adapter@_W@__crt_stdio_output@@@2@@__crt_stdio_output@@AAE_NXZ 1003239a f i libucrt:output.obj
 0001:000313cc       ?state_count@?$format_validation_base@DV?$stream_output_adapter@D@__crt_stdio_output@@@__crt_stdio_output@@KAIXZ 100323cc f i libucrt:output.obj
 0001:000313d0       ?state_count@?$format_validation_base@DV?$string_output_adapter@D@__crt_stdio_output@@@__crt_stdio_output@@KAIXZ 100323d0 f i libucrt:output.obj
 0001:000313d4       ?state_count@?$format_validation_base@_WV?$stream_output_adapter@_W@__crt_stdio_output@@@__crt_stdio_output@@KAIXZ 100323d4 f i libucrt:output.obj
 0001:000313d8       ?state_count@?$format_validation_base@_WV?$string_output_adapter@_W@__crt_stdio_output@@@__crt_stdio_output@@KAIXZ 100323d8 f i libucrt:output.obj
 0001:000313dc       ?state_count@?$standard_base@DV?$stream_output_adapter@D@__crt_stdio_output@@@__crt_stdio_output@@KAIXZ 100323dc f i libucrt:output.obj
 0001:000313e0       ?state_count@?$standard_base@DV?$string_output_adapter@D@__crt_stdio_output@@@__crt_stdio_output@@KAIXZ 100323e0 f i libucrt:output.obj
 0001:000313e4       ?state_count@?$standard_base@_WV?$stream_output_adapter@_W@__crt_stdio_output@@@__crt_stdio_output@@KAIXZ 100323e4 f i libucrt:output.obj
 0001:000313e8       ?state_count@?$standard_base@_WV?$string_output_adapter@_W@__crt_stdio_output@@@__crt_stdio_output@@KAIXZ 100323e8 f i libucrt:output.obj
 0001:000313ec       ?state_transition_table@?$format_validation_base@DV?$stream_output_adapter@D@__crt_stdio_output@@@__crt_stdio_output@@KAABV?$spectre_mitigated_lookup_table@Ustate_transition_pair@__crt_stdio_output@@$0IA@@2@XZ 100323ec f i libucrt:output.obj
 0001:000313f2       ?state_transition_table@?$format_validation_base@DV?$string_output_adapter@D@__crt_stdio_output@@@__crt_stdio_output@@KAABV?$spectre_mitigated_lookup_table@Ustate_transition_pair@__crt_stdio_output@@$0IA@@2@XZ 100323f2 f i libucrt:output.obj
 0001:000313f8       ?state_transition_table@?$format_validation_base@_WV?$stream_output_adapter@_W@__crt_stdio_output@@@__crt_stdio_output@@KAABV?$spectre_mitigated_lookup_table@Ustate_transition_pair@__crt_stdio_output@@$0IA@@2@XZ 100323f8 f i libucrt:output.obj
 0001:000313fe       ?state_transition_table@?$format_validation_base@_WV?$string_output_adapter@_W@__crt_stdio_output@@@__crt_stdio_output@@KAABV?$spectre_mitigated_lookup_table@Ustate_transition_pair@__crt_stdio_output@@$0IA@@2@XZ 100323fe f i libucrt:output.obj
 0001:00031404       ?state_transition_table@?$standard_base@DV?$stream_output_adapter@D@__crt_stdio_output@@@__crt_stdio_output@@KAABV?$spectre_mitigated_lookup_table@Ustate_transition_pair@__crt_stdio_output@@$0IA@@2@XZ 10032404 f i libucrt:output.obj
 0001:0003140a       ?state_transition_table@?$standard_base@DV?$string_output_adapter@D@__crt_stdio_output@@@__crt_stdio_output@@KAABV?$spectre_mitigated_lookup_table@Ustate_transition_pair@__crt_stdio_output@@$0IA@@2@XZ 1003240a f i libucrt:output.obj
 0001:00031410       ?state_transition_table@?$standard_base@_WV?$stream_output_adapter@_W@__crt_stdio_output@@@__crt_stdio_output@@KAABV?$spectre_mitigated_lookup_table@Ustate_transition_pair@__crt_stdio_output@@$0IA@@2@XZ 10032410 f i libucrt:output.obj
 0001:00031416       ?state_transition_table@?$standard_base@_WV?$string_output_adapter@_W@__crt_stdio_output@@@__crt_stdio_output@@KAABV?$spectre_mitigated_lookup_table@Ustate_transition_pair@__crt_stdio_output@@$0IA@@2@XZ 10032416 f i libucrt:output.obj
 0001:0003141c       ?tchar_string@?$common_data@D@__crt_stdio_output@@IAEAAPADD@Z 1003241c f i libucrt:output.obj
 0001:00031422       ?tchar_string@?$common_data@D@__crt_stdio_output@@IAEAAPADXZ 10032422 f i libucrt:output.obj
 0001:00031426       ?tchar_string@?$common_data@_W@__crt_stdio_output@@IAEAAPA_WXZ 10032426 f i libucrt:output.obj
 0001:0003142a       ?tchar_string@?$common_data@_W@__crt_stdio_output@@IAEAAPA_W_W@Z 1003242a f i libucrt:output.obj
 0001:00031430       ?to_integer_size@__crt_stdio_output@@YAIW4length_modifier@1@@Z 10032430 f i libucrt:output.obj
 0001:00031484       ?type_case_X@?$output_processor@DV?$stream_output_adapter@D@__crt_stdio_output@@V?$format_validation_base@DV?$stream_output_adapter@D@__crt_stdio_output@@@2@@__crt_stdio_output@@AAE_NXZ 10032484 f i libucrt:output.obj
 0001:0003148c       ?type_case_X@?$output_processor@DV?$stream_output_adapter@D@__crt_stdio_output@@V?$positional_parameter_base@DV?$stream_output_adapter@D@__crt_stdio_output@@@2@@__crt_stdio_output@@AAE_NXZ 1003248c f i libucrt:output.obj
 0001:00031494       ?type_case_X@?$output_processor@DV?$stream_output_adapter@D@__crt_stdio_output@@V?$standard_base@DV?$stream_output_adapter@D@__crt_stdio_output@@@2@@__crt_stdio_output@@AAE_NXZ 10032494 f i libucrt:output.obj
 0001:0003149c       ?type_case_X@?$output_processor@DV?$string_output_adapter@D@__crt_stdio_output@@V?$format_validation_base@DV?$string_output_adapter@D@__crt_stdio_output@@@2@@__crt_stdio_output@@AAE_NXZ 1003249c f i libucrt:output.obj
 0001:000314a4       ?type_case_X@?$output_processor@DV?$string_output_adapter@D@__crt_stdio_output@@V?$positional_parameter_base@DV?$string_output_adapter@D@__crt_stdio_output@@@2@@__crt_stdio_output@@AAE_NXZ 100324a4 f i libucrt:output.obj
 0001:000314ac       ?type_case_X@?$output_processor@DV?$string_output_adapter@D@__crt_stdio_output@@V?$standard_base@DV?$string_output_adapter@D@__crt_stdio_output@@@2@@__crt_stdio_output@@AAE_NXZ 100324ac f i libucrt:output.obj
 0001:000314b4       ?type_case_X@?$output_processor@_WV?$stream_output_adapter@_W@__crt_stdio_output@@V?$format_validation_base@_WV?$stream_output_adapter@_W@__crt_stdio_output@@@2@@__crt_stdio_output@@AAE_NXZ 100324b4 f i libucrt:output.obj
 0001:000314bc       ?type_case_X@?$output_processor@_WV?$stream_output_adapter@_W@__crt_stdio_output@@V?$positional_parameter_base@_WV?$stream_output_adapter@_W@__crt_stdio_output@@@2@@__crt_stdio_output@@AAE_NXZ 100324bc f i libucrt:output.obj
 0001:000314c4       ?type_case_X@?$output_processor@_WV?$stream_output_adapter@_W@__crt_stdio_output@@V?$standard_base@_WV?$stream_output_adapter@_W@__crt_stdio_output@@@2@@__crt_stdio_output@@AAE_NXZ 100324c4 f i libucrt:output.obj
 0001:000314cc       ?type_case_X@?$output_processor@_WV?$string_output_adapter@_W@__crt_stdio_output@@V?$format_validation_base@_WV?$string_output_adapter@_W@__crt_stdio_output@@@2@@__crt_stdio_output@@AAE_NXZ 100324cc f i libucrt:output.obj
 0001:000314d4       ?type_case_X@?$output_processor@_WV?$string_output_adapter@_W@__crt_stdio_output@@V?$positional_parameter_base@_WV?$string_output_adapter@_W@__crt_stdio_output@@@2@@__crt_stdio_output@@AAE_NXZ 100324d4 f i libucrt:output.obj
 0001:000314dc       ?type_case_X@?$output_processor@_WV?$string_output_adapter@_W@__crt_stdio_output@@V?$standard_base@_WV?$string_output_adapter@_W@__crt_stdio_output@@@2@@__crt_stdio_output@@AAE_NXZ 100324dc f i libucrt:output.obj
 0001:000314e4       ?type_case_Z@?$output_processor@DV?$stream_output_adapter@D@__crt_stdio_output@@V?$format_validation_base@DV?$stream_output_adapter@D@__crt_stdio_output@@@2@@__crt_stdio_output@@AAE_NXZ 100324e4 f i libucrt:output.obj
 0001:00031547       ?type_case_Z@?$output_processor@DV?$stream_output_adapter@D@__crt_stdio_output@@V?$positional_parameter_base@DV?$stream_output_adapter@D@__crt_stdio_output@@@2@@__crt_stdio_output@@AAE_NXZ 10032547 f i libucrt:output.obj
 0001:000315c1       ?type_case_Z@?$output_processor@DV?$stream_output_adapter@D@__crt_stdio_output@@V?$standard_base@DV?$stream_output_adapter@D@__crt_stdio_output@@@2@@__crt_stdio_output@@AAE_NXZ 100325c1 f i libucrt:output.obj
 0001:00031624       ?type_case_Z@?$output_processor@DV?$string_output_adapter@D@__crt_stdio_output@@V?$format_validation_base@DV?$string_output_adapter@D@__crt_stdio_output@@@2@@__crt_stdio_output@@AAE_NXZ 10032624 f i libucrt:output.obj
 0001:00031687       ?type_case_Z@?$output_processor@DV?$string_output_adapter@D@__crt_stdio_output@@V?$positional_parameter_base@DV?$string_output_adapter@D@__crt_stdio_output@@@2@@__crt_stdio_output@@AAE_NXZ 10032687 f i libucrt:output.obj
 0001:00031701       ?type_case_Z@?$output_processor@DV?$string_output_adapter@D@__crt_stdio_output@@V?$standard_base@DV?$string_output_adapter@D@__crt_stdio_output@@@2@@__crt_stdio_output@@AAE_NXZ 10032701 f i libucrt:output.obj
 0001:00031764       ?type_case_Z@?$output_processor@_WV?$stream_output_adapter@_W@__crt_stdio_output@@V?$format_validation_base@_WV?$stream_output_adapter@_W@__crt_stdio_output@@@2@@__crt_stdio_output@@AAE_NXZ 10032764 f i libucrt:output.obj
 0001:000317c7       ?type_case_Z@?$output_processor@_WV?$stream_output_adapter@_W@__crt_stdio_output@@V?$positional_parameter_base@_WV?$stream_output_adapter@_W@__crt_stdio_output@@@2@@__crt_stdio_output@@AAE_NXZ 100327c7 f i libucrt:output.obj
 0001:00031841       ?type_case_Z@?$output_processor@_WV?$stream_output_adapter@_W@__crt_stdio_output@@V?$standard_base@_WV?$stream_output_adapter@_W@__crt_stdio_output@@@2@@__crt_stdio_output@@AAE_NXZ 10032841 f i libucrt:output.obj
 0001:000318a4       ?type_case_Z@?$output_processor@_WV?$string_output_adapter@_W@__crt_stdio_output@@V?$format_validation_base@_WV?$string_output_adapter@_W@__crt_stdio_output@@@2@@__crt_stdio_output@@AAE_NXZ 100328a4 f i libucrt:output.obj
 0001:00031907       ?type_case_Z@?$output_processor@_WV?$string_output_adapter@_W@__crt_stdio_output@@V?$positional_parameter_base@_WV?$string_output_adapter@_W@__crt_stdio_output@@@2@@__crt_stdio_output@@AAE_NXZ 10032907 f i libucrt:output.obj
 0001:00031981       ?type_case_Z@?$output_processor@_WV?$string_output_adapter@_W@__crt_stdio_output@@V?$standard_base@_WV?$string_output_adapter@_W@__crt_stdio_output@@@2@@__crt_stdio_output@@AAE_NXZ 10032981 f i libucrt:output.obj
 0001:000319e4       ?type_case_a@?$output_processor@DV?$stream_output_adapter@D@__crt_stdio_output@@V?$format_validation_base@DV?$stream_output_adapter@D@__crt_stdio_output@@@2@@__crt_stdio_output@@AAE_NXZ 100329e4 f i libucrt:output.obj
 0001:00031b75       ?type_case_a@?$output_processor@DV?$stream_output_adapter@D@__crt_stdio_output@@V?$positional_parameter_base@DV?$stream_output_adapter@D@__crt_stdio_output@@@2@@__crt_stdio_output@@AAE_NXZ 10032b75 f i libucrt:output.obj
 0001:00031d23       ?type_case_a@?$output_processor@DV?$stream_output_adapter@D@__crt_stdio_output@@V?$standard_base@DV?$stream_output_adapter@D@__crt_stdio_output@@@2@@__crt_stdio_output@@AAE_NXZ 10032d23 f i libucrt:output.obj
 0001:00031eb4       ?type_case_a@?$output_processor@DV?$string_output_adapter@D@__crt_stdio_output@@V?$format_validation_base@DV?$string_output_adapter@D@__crt_stdio_output@@@2@@__crt_stdio_output@@AAE_NXZ 10032eb4 f i libucrt:output.obj
 0001:00032045       ?type_case_a@?$output_processor@DV?$string_output_adapter@D@__crt_stdio_output@@V?$positional_parameter_base@DV?$string_output_adapter@D@__crt_stdio_output@@@2@@__crt_stdio_output@@AAE_NXZ 10033045 f i libucrt:output.obj
 0001:000321f3       ?type_case_a@?$output_processor@DV?$string_output_adapter@D@__crt_stdio_output@@V?$standard_base@DV?$string_output_adapter@D@__crt_stdio_output@@@2@@__crt_stdio_output@@AAE_NXZ 100331f3 f i libucrt:output.obj
 0001:00032384       ?type_case_a@?$output_processor@_WV?$stream_output_adapter@_W@__crt_stdio_output@@V?$format_validation_base@_WV?$stream_output_adapter@_W@__crt_stdio_output@@@2@@__crt_stdio_output@@AAE_NXZ 10033384 f i libucrt:output.obj
 0001:0003252b       ?type_case_a@?$output_processor@_WV?$stream_output_adapter@_W@__crt_stdio_output@@V?$positional_parameter_base@_WV?$stream_output_adapter@_W@__crt_stdio_output@@@2@@__crt_stdio_output@@AAE_NXZ 1003352b f i libucrt:output.obj
 0001:000326ef       ?type_case_a@?$output_processor@_WV?$stream_output_adapter@_W@__crt_stdio_output@@V?$standard_base@_WV?$stream_output_adapter@_W@__crt_stdio_output@@@2@@__crt_stdio_output@@AAE_NXZ 100336ef f i libucrt:output.obj
 0001:00032896       ?type_case_a@?$output_processor@_WV?$string_output_adapter@_W@__crt_stdio_output@@V?$format_validation_base@_WV?$string_output_adapter@_W@__crt_stdio_output@@@2@@__crt_stdio_output@@AAE_NXZ 10033896 f i libucrt:output.obj
 0001:00032a3d       ?type_case_a@?$output_processor@_WV?$string_output_adapter@_W@__crt_stdio_output@@V?$positional_parameter_base@_WV?$string_output_adapter@_W@__crt_stdio_output@@@2@@__crt_stdio_output@@AAE_NXZ 10033a3d f i libucrt:output.obj
 0001:00032c01       ?type_case_a@?$output_processor@_WV?$string_output_adapter@_W@__crt_stdio_output@@V?$standard_base@_WV?$string_output_adapter@_W@__crt_stdio_output@@@2@@__crt_stdio_output@@AAE_NXZ 10033c01 f i libucrt:output.obj
 0001:00032da8       ?type_case_c@?$output_processor@DV?$stream_output_adapter@D@__crt_stdio_output@@V?$format_validation_base@DV?$stream_output_adapter@D@__crt_stdio_output@@@2@@__crt_stdio_output@@AAE_NXZ 10033da8 f i libucrt:output.obj
 0001:00032db0       ?type_case_c@?$output_processor@DV?$stream_output_adapter@D@__crt_stdio_output@@V?$positional_parameter_base@DV?$stream_output_adapter@D@__crt_stdio_output@@@2@@__crt_stdio_output@@AAE_NXZ 10033db0 f i libucrt:output.obj
 0001:00032db8       ?type_case_c@?$output_processor@DV?$stream_output_adapter@D@__crt_stdio_output@@V?$standard_base@DV?$stream_output_adapter@D@__crt_stdio_output@@@2@@__crt_stdio_output@@AAE_NXZ 10033db8 f i libucrt:output.obj
 0001:00032dc0       ?type_case_c@?$output_processor@DV?$string_output_adapter@D@__crt_stdio_output@@V?$format_validation_base@DV?$string_output_adapter@D@__crt_stdio_output@@@2@@__crt_stdio_output@@AAE_NXZ 10033dc0 f i libucrt:output.obj
 0001:00032dc8       ?type_case_c@?$output_processor@DV?$string_output_adapter@D@__crt_stdio_output@@V?$positional_parameter_base@DV?$string_output_adapter@D@__crt_stdio_output@@@2@@__crt_stdio_output@@AAE_NXZ 10033dc8 f i libucrt:output.obj
 0001:00032dd0       ?type_case_c@?$output_processor@DV?$string_output_adapter@D@__crt_stdio_output@@V?$standard_base@DV?$string_output_adapter@D@__crt_stdio_output@@@2@@__crt_stdio_output@@AAE_NXZ 10033dd0 f i libucrt:output.obj
 0001:00032dd8       ?type_case_c@?$output_processor@_WV?$stream_output_adapter@_W@__crt_stdio_output@@V?$format_validation_base@_WV?$stream_output_adapter@_W@__crt_stdio_output@@@2@@__crt_stdio_output@@AAE_NXZ 10033dd8 f i libucrt:output.obj
 0001:00032de0       ?type_case_c@?$output_processor@_WV?$stream_output_adapter@_W@__crt_stdio_output@@V?$positional_parameter_base@_WV?$stream_output_adapter@_W@__crt_stdio_output@@@2@@__crt_stdio_output@@AAE_NXZ 10033de0 f i libucrt:output.obj
 0001:00032de8       ?type_case_c@?$output_processor@_WV?$stream_output_adapter@_W@__crt_stdio_output@@V?$standard_base@_WV?$stream_output_adapter@_W@__crt_stdio_output@@@2@@__crt_stdio_output@@AAE_NXZ 10033de8 f i libucrt:output.obj
 0001:00032df0       ?type_case_c@?$output_processor@_WV?$string_output_adapter@_W@__crt_stdio_output@@V?$format_validation_base@_WV?$string_output_adapter@_W@__crt_stdio_output@@@2@@__crt_stdio_output@@AAE_NXZ 10033df0 f i libucrt:output.obj
 0001:00032df8       ?type_case_c@?$output_processor@_WV?$string_output_adapter@_W@__crt_stdio_output@@V?$positional_parameter_base@_WV?$string_output_adapter@_W@__crt_stdio_output@@@2@@__crt_stdio_output@@AAE_NXZ 10033df8 f i libucrt:output.obj
 0001:00032e00       ?type_case_c@?$output_processor@_WV?$string_output_adapter@_W@__crt_stdio_output@@V?$standard_base@_WV?$string_output_adapter@_W@__crt_stdio_output@@@2@@__crt_stdio_output@@AAE_NXZ 10033e00 f i libucrt:output.obj
 0001:00032e08       ?type_case_c_tchar@?$output_processor@DV?$stream_output_adapter@D@__crt_stdio_output@@V?$format_validation_base@DV?$stream_output_adapter@D@__crt_stdio_output@@@2@@__crt_stdio_output@@AAE_ND@Z 10033e08 f i libucrt:output.obj
 0001:00032e9d       ?type_case_c_tchar@?$output_processor@DV?$stream_output_adapter@D@__crt_stdio_output@@V?$positional_parameter_base@DV?$stream_output_adapter@D@__crt_stdio_output@@@2@@__crt_stdio_output@@AAE_ND@Z 10033e9d f i libucrt:output.obj
 0001:00032f5c       ?type_case_c_tchar@?$output_processor@DV?$stream_output_adapter@D@__crt_stdio_output@@V?$standard_base@DV?$stream_output_adapter@D@__crt_stdio_output@@@2@@__crt_stdio_output@@AAE_ND@Z 10033f5c f i libucrt:output.obj
 0001:00032ff1       ?type_case_c_tchar@?$output_processor@DV?$string_output_adapter@D@__crt_stdio_output@@V?$format_validation_base@DV?$string_output_adapter@D@__crt_stdio_output@@@2@@__crt_stdio_output@@AAE_ND@Z 10033ff1 f i libucrt:output.obj
 0001:00033086       ?type_case_c_tchar@?$output_processor@DV?$string_output_adapter@D@__crt_stdio_output@@V?$positional_parameter_base@DV?$string_output_adapter@D@__crt_stdio_output@@@2@@__crt_stdio_output@@AAE_ND@Z 10034086 f i libucrt:output.obj
 0001:00033145       ?type_case_c_tchar@?$output_processor@DV?$string_output_adapter@D@__crt_stdio_output@@V?$standard_base@DV?$string_output_adapter@D@__crt_stdio_output@@@2@@__crt_stdio_output@@AAE_ND@Z 10034145 f i libucrt:output.obj
 0001:000331da       ?type_case_c_tchar@?$output_processor@_WV?$stream_output_adapter@_W@__crt_stdio_output@@V?$format_validation_base@_WV?$stream_output_adapter@_W@__crt_stdio_output@@@2@@__crt_stdio_output@@AAE_N_W@Z 100341da f i libucrt:output.obj
 0001:00033282       ?type_case_c_tchar@?$output_processor@_WV?$stream_output_adapter@_W@__crt_stdio_output@@V?$positional_parameter_base@_WV?$stream_output_adapter@_W@__crt_stdio_output@@@2@@__crt_stdio_output@@AAE_N_W@Z 10034282 f i libucrt:output.obj
 0001:0003334d       ?type_case_c_tchar@?$output_processor@_WV?$stream_output_adapter@_W@__crt_stdio_output@@V?$standard_base@_WV?$stream_output_adapter@_W@__crt_stdio_output@@@2@@__crt_stdio_output@@AAE_N_W@Z 1003434d f i libucrt:output.obj
 0001:000333f5       ?type_case_c_tchar@?$output_processor@_WV?$string_output_adapter@_W@__crt_stdio_output@@V?$format_validation_base@_WV?$string_output_adapter@_W@__crt_stdio_output@@@2@@__crt_stdio_output@@AAE_N_W@Z 100343f5 f i libucrt:output.obj
 0001:0003349d       ?type_case_c_tchar@?$output_processor@_WV?$string_output_adapter@_W@__crt_stdio_output@@V?$positional_parameter_base@_WV?$string_output_adapter@_W@__crt_stdio_output@@@2@@__crt_stdio_output@@AAE_N_W@Z 1003449d f i libucrt:output.obj
 0001:00033568       ?type_case_c_tchar@?$output_processor@_WV?$string_output_adapter@_W@__crt_stdio_output@@V?$standard_base@_WV?$string_output_adapter@_W@__crt_stdio_output@@@2@@__crt_stdio_output@@AAE_N_W@Z 10034568 f i libucrt:output.obj
 0001:00033610       ?type_case_d@?$output_processor@DV?$stream_output_adapter@D@__crt_stdio_output@@V?$format_validation_base@DV?$stream_output_adapter@D@__crt_stdio_output@@@2@@__crt_stdio_output@@AAE_NXZ 10034610 f i libucrt:output.obj
 0001:0003361c       ?type_case_d@?$output_processor@DV?$stream_output_adapter@D@__crt_stdio_output@@V?$positional_parameter_base@DV?$stream_output_adapter@D@__crt_stdio_output@@@2@@__crt_stdio_output@@AAE_NXZ 1003461c f i libucrt:output.obj
 0001:00033628       ?type_case_d@?$output_processor@DV?$stream_output_adapter@D@__crt_stdio_output@@V?$standard_base@DV?$stream_output_adapter@D@__crt_stdio_output@@@2@@__crt_stdio_output@@AAE_NXZ 10034628 f i libucrt:output.obj
 0001:00033634       ?type_case_d@?$output_processor@DV?$string_output_adapter@D@__crt_stdio_output@@V?$format_validation_base@DV?$string_output_adapter@D@__crt_stdio_output@@@2@@__crt_stdio_output@@AAE_NXZ 10034634 f i libucrt:output.obj
 0001:00033640       ?type_case_d@?$output_processor@DV?$string_output_adapter@D@__crt_stdio_output@@V?$positional_parameter_base@DV?$string_output_adapter@D@__crt_stdio_output@@@2@@__crt_stdio_output@@AAE_NXZ 10034640 f i libucrt:output.obj
 0001:0003364c       ?type_case_d@?$output_processor@DV?$string_output_adapter@D@__crt_stdio_output@@V?$standard_base@DV?$string_output_adapter@D@__crt_stdio_output@@@2@@__crt_stdio_output@@AAE_NXZ 1003464c f i libucrt:output.obj
 0001:00033658       ?type_case_d@?$output_processor@_WV?$stream_output_adapter@_W@__crt_stdio_output@@V?$format_validation_base@_WV?$stream_output_adapter@_W@__crt_stdio_output@@@2@@__crt_stdio_output@@AAE_NXZ 10034658 f i libucrt:output.obj
 0001:00033664       ?type_case_d@?$output_processor@_WV?$stream_output_adapter@_W@__crt_stdio_output@@V?$positional_parameter_base@_WV?$stream_output_adapter@_W@__crt_stdio_output@@@2@@__crt_stdio_output@@AAE_NXZ 10034664 f i libucrt:output.obj
 0001:00033670       ?type_case_d@?$output_processor@_WV?$stream_output_adapter@_W@__crt_stdio_output@@V?$standard_base@_WV?$stream_output_adapter@_W@__crt_stdio_output@@@2@@__crt_stdio_output@@AAE_NXZ 10034670 f i libucrt:output.obj
 0001:0003367c       ?type_case_d@?$output_processor@_WV?$string_output_adapter@_W@__crt_stdio_output@@V?$format_validation_base@_WV?$string_output_adapter@_W@__crt_stdio_output@@@2@@__crt_stdio_output@@AAE_NXZ 1003467c f i libucrt:output.obj
 0001:00033688       ?type_case_d@?$output_processor@_WV?$string_output_adapter@_W@__crt_stdio_output@@V?$positional_parameter_base@_WV?$string_output_adapter@_W@__crt_stdio_output@@@2@@__crt_stdio_output@@AAE_NXZ 10034688 f i libucrt:output.obj
 0001:00033694       ?type_case_d@?$output_processor@_WV?$string_output_adapter@_W@__crt_stdio_output@@V?$standard_base@_WV?$string_output_adapter@_W@__crt_stdio_output@@@2@@__crt_stdio_output@@AAE_NXZ 10034694 f i libucrt:output.obj
 0001:000336a0       ?type_case_n@?$output_processor@DV?$stream_output_adapter@D@__crt_stdio_output@@V?$format_validation_base@DV?$stream_output_adapter@D@__crt_stdio_output@@@2@@__crt_stdio_output@@AAE_NXZ 100346a0 f i libucrt:output.obj
 0001:00033725       ?type_case_n@?$output_processor@DV?$stream_output_adapter@D@__crt_stdio_output@@V?$positional_parameter_base@DV?$stream_output_adapter@D@__crt_stdio_output@@@2@@__crt_stdio_output@@AAE_NXZ 10034725 f i libucrt:output.obj
 0001:000337d2       ?type_case_n@?$output_processor@DV?$stream_output_adapter@D@__crt_stdio_output@@V?$standard_base@DV?$stream_output_adapter@D@__crt_stdio_output@@@2@@__crt_stdio_output@@AAE_NXZ 100347d2 f i libucrt:output.obj
 0001:00033857       ?type_case_n@?$output_processor@DV?$string_output_adapter@D@__crt_stdio_output@@V?$format_validation_base@DV?$string_output_adapter@D@__crt_stdio_output@@@2@@__crt_stdio_output@@AAE_NXZ 10034857 f i libucrt:output.obj
 0001:000338dc       ?type_case_n@?$output_processor@DV?$string_output_adapter@D@__crt_stdio_output@@V?$positional_parameter_base@DV?$string_output_adapter@D@__crt_stdio_output@@@2@@__crt_stdio_output@@AAE_NXZ 100348dc f i libucrt:output.obj
 0001:00033989       ?type_case_n@?$output_processor@DV?$string_output_adapter@D@__crt_stdio_output@@V?$standard_base@DV?$string_output_adapter@D@__crt_stdio_output@@@2@@__crt_stdio_output@@AAE_NXZ 10034989 f i libucrt:output.obj
 0001:00033a0e       ?type_case_n@?$output_processor@_WV?$stream_output_adapter@_W@__crt_stdio_output@@V?$format_validation_base@_WV?$stream_output_adapter@_W@__crt_stdio_output@@@2@@__crt_stdio_output@@AAE_NXZ 10034a0e f i libucrt:output.obj
 0001:00033a93       ?type_case_n@?$output_processor@_WV?$stream_output_adapter@_W@__crt_stdio_output@@V?$positional_parameter_base@_WV?$stream_output_adapter@_W@__crt_stdio_output@@@2@@__crt_stdio_output@@AAE_NXZ 10034a93 f i libucrt:output.obj
 0001:00033b40       ?type_case_n@?$output_processor@_WV?$stream_output_adapter@_W@__crt_stdio_output@@V?$standard_base@_WV?$stream_output_adapter@_W@__crt_stdio_output@@@2@@__crt_stdio_output@@AAE_NXZ 10034b40 f i libucrt:output.obj
 0001:00033bc5       ?type_case_n@?$output_processor@_WV?$string_output_adapter@_W@__crt_stdio_output@@V?$format_validation_base@_WV?$string_output_adapter@_W@__crt_stdio_output@@@2@@__crt_stdio_output@@AAE_NXZ 10034bc5 f i libucrt:output.obj
 0001:00033c4a       ?type_case_n@?$output_processor@_WV?$string_output_adapter@_W@__crt_stdio_output@@V?$positional_parameter_base@_WV?$string_output_adapter@_W@__crt_stdio_output@@@2@@__crt_stdio_output@@AAE_NXZ 10034c4a f i libucrt:output.obj
 0001:00033cf7       ?type_case_n@?$output_processor@_WV?$string_output_adapter@_W@__crt_stdio_output@@V?$standard_base@_WV?$string_output_adapter@_W@__crt_stdio_output@@@2@@__crt_stdio_output@@AAE_NXZ 10034cf7 f i libucrt:output.obj
 0001:00033d7c       ?type_case_o@?$output_processor@DV?$stream_output_adapter@D@__crt_stdio_output@@V?$format_validation_base@DV?$stream_output_adapter@D@__crt_stdio_output@@@2@@__crt_stdio_output@@AAE_NXZ 10034d7c f i libucrt:output.obj
 0001:00033d99       ?type_case_o@?$output_processor@DV?$stream_output_adapter@D@__crt_stdio_output@@V?$positional_parameter_base@DV?$stream_output_adapter@D@__crt_stdio_output@@@2@@__crt_stdio_output@@AAE_NXZ 10034d99 f i libucrt:output.obj
 0001:00033db6       ?type_case_o@?$output_processor@DV?$stream_output_adapter@D@__crt_stdio_output@@V?$standard_base@DV?$stream_output_adapter@D@__crt_stdio_output@@@2@@__crt_stdio_output@@AAE_NXZ 10034db6 f i libucrt:output.obj
 0001:00033dd3       ?type_case_o@?$output_processor@DV?$string_output_adapter@D@__crt_stdio_output@@V?$format_validation_base@DV?$string_output_adapter@D@__crt_stdio_output@@@2@@__crt_stdio_output@@AAE_NXZ 10034dd3 f i libucrt:output.obj
 0001:00033df0       ?type_case_o@?$output_processor@DV?$string_output_adapter@D@__crt_stdio_output@@V?$positional_parameter_base@DV?$string_output_adapter@D@__crt_stdio_output@@@2@@__crt_stdio_output@@AAE_NXZ 10034df0 f i libucrt:output.obj
 0001:00033e0d       ?type_case_o@?$output_processor@DV?$string_output_adapter@D@__crt_stdio_output@@V?$standard_base@DV?$string_output_adapter@D@__crt_stdio_output@@@2@@__crt_stdio_output@@AAE_NXZ 10034e0d f i libucrt:output.obj
 0001:00033e2a       ?type_case_o@?$output_processor@_WV?$stream_output_adapter@_W@__crt_stdio_output@@V?$format_validation_base@_WV?$stream_output_adapter@_W@__crt_stdio_output@@@2@@__crt_stdio_output@@AAE_NXZ 10034e2a f i libucrt:output.obj
 0001:00033e47       ?type_case_o@?$output_processor@_WV?$stream_output_adapter@_W@__crt_stdio_output@@V?$positional_parameter_base@_WV?$stream_output_adapter@_W@__crt_stdio_output@@@2@@__crt_stdio_output@@AAE_NXZ 10034e47 f i libucrt:output.obj
 0001:00033e64       ?type_case_o@?$output_processor@_WV?$stream_output_adapter@_W@__crt_stdio_output@@V?$standard_base@_WV?$stream_output_adapter@_W@__crt_stdio_output@@@2@@__crt_stdio_output@@AAE_NXZ 10034e64 f i libucrt:output.obj
 0001:00033e81       ?type_case_o@?$output_processor@_WV?$string_output_adapter@_W@__crt_stdio_output@@V?$format_validation_base@_WV?$string_output_adapter@_W@__crt_stdio_output@@@2@@__crt_stdio_output@@AAE_NXZ 10034e81 f i libucrt:output.obj
 0001:00033e9e       ?type_case_o@?$output_processor@_WV?$string_output_adapter@_W@__crt_stdio_output@@V?$positional_parameter_base@_WV?$string_output_adapter@_W@__crt_stdio_output@@@2@@__crt_stdio_output@@AAE_NXZ 10034e9e f i libucrt:output.obj
 0001:00033ebb       ?type_case_o@?$output_processor@_WV?$string_output_adapter@_W@__crt_stdio_output@@V?$standard_base@_WV?$string_output_adapter@_W@__crt_stdio_output@@@2@@__crt_stdio_output@@AAE_NXZ 10034ebb f i libucrt:output.obj
 0001:00033ed8       ?type_case_p@?$output_processor@DV?$stream_output_adapter@D@__crt_stdio_output@@V?$format_validation_base@DV?$stream_output_adapter@D@__crt_stdio_output@@@2@@__crt_stdio_output@@AAE_NXZ 10034ed8 f i libucrt:output.obj
 0001:00033eee       ?type_case_p@?$output_processor@DV?$stream_output_adapter@D@__crt_stdio_output@@V?$positional_parameter_base@DV?$stream_output_adapter@D@__crt_stdio_output@@@2@@__crt_stdio_output@@AAE_NXZ 10034eee f i libucrt:output.obj
 0001:00033f04       ?type_case_p@?$output_processor@DV?$stream_output_adapter@D@__crt_stdio_output@@V?$standard_base@DV?$stream_output_adapter@D@__crt_stdio_output@@@2@@__crt_stdio_output@@AAE_NXZ 10034f04 f i libucrt:output.obj
 0001:00033f1a       ?type_case_p@?$output_processor@DV?$string_output_adapter@D@__crt_stdio_output@@V?$format_validation_base@DV?$string_output_adapter@D@__crt_stdio_output@@@2@@__crt_stdio_output@@AAE_NXZ 10034f1a f i libucrt:output.obj
 0001:00033f30       ?type_case_p@?$output_processor@DV?$string_output_adapter@D@__crt_stdio_output@@V?$positional_parameter_base@DV?$string_output_adapter@D@__crt_stdio_output@@@2@@__crt_stdio_output@@AAE_NXZ 10034f30 f i libucrt:output.obj
 0001:00033f46       ?type_case_p@?$output_processor@DV?$string_output_adapter@D@__crt_stdio_output@@V?$standard_base@DV?$string_output_adapter@D@__crt_stdio_output@@@2@@__crt_stdio_output@@AAE_NXZ 10034f46 f i libucrt:output.obj
 0001:00033f5c       ?type_case_p@?$output_processor@_WV?$stream_output_adapter@_W@__crt_stdio_output@@V?$format_validation_base@_WV?$stream_output_adapter@_W@__crt_stdio_output@@@2@@__crt_stdio_output@@AAE_NXZ 10034f5c f i libucrt:output.obj
 0001:00033f72       ?type_case_p@?$output_processor@_WV?$stream_output_adapter@_W@__crt_stdio_output@@V?$positional_parameter_base@_WV?$stream_output_adapter@_W@__crt_stdio_output@@@2@@__crt_stdio_output@@AAE_NXZ 10034f72 f i libucrt:output.obj
 0001:00033f88       ?type_case_p@?$output_processor@_WV?$stream_output_adapter@_W@__crt_stdio_output@@V?$standard_base@_WV?$stream_output_adapter@_W@__crt_stdio_output@@@2@@__crt_stdio_output@@AAE_NXZ 10034f88 f i libucrt:output.obj
 0001:00033f9e       ?type_case_p@?$output_processor@_WV?$string_output_adapter@_W@__crt_stdio_output@@V?$format_validation_base@_WV?$string_output_adapter@_W@__crt_stdio_output@@@2@@__crt_stdio_output@@AAE_NXZ 10034f9e f i libucrt:output.obj
 0001:00033fb4       ?type_case_p@?$output_processor@_WV?$string_output_adapter@_W@__crt_stdio_output@@V?$positional_parameter_base@_WV?$string_output_adapter@_W@__crt_stdio_output@@@2@@__crt_stdio_output@@AAE_NXZ 10034fb4 f i libucrt:output.obj
 0001:00033fca       ?type_case_p@?$output_processor@_WV?$string_output_adapter@_W@__crt_stdio_output@@V?$standard_base@_WV?$string_output_adapter@_W@__crt_stdio_output@@@2@@__crt_stdio_output@@AAE_NXZ 10034fca f i libucrt:output.obj
 0001:00033fe0       ?type_case_s@?$output_processor@DV?$stream_output_adapter@D@__crt_stdio_output@@V?$format_validation_base@DV?$stream_output_adapter@D@__crt_stdio_output@@@2@@__crt_stdio_output@@AAE_NXZ 10034fe0 f i libucrt:output.obj
 0001:00034052       ?type_case_s@?$output_processor@DV?$stream_output_adapter@D@__crt_stdio_output@@V?$positional_parameter_base@DV?$stream_output_adapter@D@__crt_stdio_output@@@2@@__crt_stdio_output@@AAE_NXZ 10035052 f i libucrt:output.obj
 0001:000340d0       ?type_case_s@?$output_processor@DV?$stream_output_adapter@D@__crt_stdio_output@@V?$standard_base@DV?$stream_output_adapter@D@__crt_stdio_output@@@2@@__crt_stdio_output@@AAE_NXZ 100350d0 f i libucrt:output.obj
 0001:00034142       ?type_case_s@?$output_processor@DV?$string_output_adapter@D@__crt_stdio_output@@V?$format_validation_base@DV?$string_output_adapter@D@__crt_stdio_output@@@2@@__crt_stdio_output@@AAE_NXZ 10035142 f i libucrt:output.obj
 0001:000341b4       ?type_case_s@?$output_processor@DV?$string_output_adapter@D@__crt_stdio_output@@V?$positional_parameter_base@DV?$string_output_adapter@D@__crt_stdio_output@@@2@@__crt_stdio_output@@AAE_NXZ 100351b4 f i libucrt:output.obj
 0001:00034232       ?type_case_s@?$output_processor@DV?$string_output_adapter@D@__crt_stdio_output@@V?$standard_base@DV?$string_output_adapter@D@__crt_stdio_output@@@2@@__crt_stdio_output@@AAE_NXZ 10035232 f i libucrt:output.obj
 0001:000342a4       ?type_case_s@?$output_processor@_WV?$stream_output_adapter@_W@__crt_stdio_output@@V?$format_validation_base@_WV?$stream_output_adapter@_W@__crt_stdio_output@@@2@@__crt_stdio_output@@AAE_NXZ 100352a4 f i libucrt:output.obj
 0001:00034318       ?type_case_s@?$output_processor@_WV?$stream_output_adapter@_W@__crt_stdio_output@@V?$positional_parameter_base@_WV?$stream_output_adapter@_W@__crt_stdio_output@@@2@@__crt_stdio_output@@AAE_NXZ 10035318 f i libucrt:output.obj
 0001:00034398       ?type_case_s@?$output_processor@_WV?$stream_output_adapter@_W@__crt_stdio_output@@V?$standard_base@_WV?$stream_output_adapter@_W@__crt_stdio_output@@@2@@__crt_stdio_output@@AAE_NXZ 10035398 f i libucrt:output.obj
 0001:0003440c       ?type_case_s@?$output_processor@_WV?$string_output_adapter@_W@__crt_stdio_output@@V?$format_validation_base@_WV?$string_output_adapter@_W@__crt_stdio_output@@@2@@__crt_stdio_output@@AAE_NXZ 1003540c f i libucrt:output.obj
 0001:00034480       ?type_case_s@?$output_processor@_WV?$string_output_adapter@_W@__crt_stdio_output@@V?$positional_parameter_base@_WV?$string_output_adapter@_W@__crt_stdio_output@@@2@@__crt_stdio_output@@AAE_NXZ 10035480 f i libucrt:output.obj
 0001:00034500       ?type_case_s@?$output_processor@_WV?$string_output_adapter@_W@__crt_stdio_output@@V?$standard_base@_WV?$string_output_adapter@_W@__crt_stdio_output@@@2@@__crt_stdio_output@@AAE_NXZ 10035500 f i libucrt:output.obj
 0001:00034574       ?type_case_s_compute_narrow_string_length@?$output_processor@DV?$stream_output_adapter@D@__crt_stdio_output@@V?$format_validation_base@DV?$stream_output_adapter@D@__crt_stdio_output@@@2@@__crt_stdio_output@@AAEHHD@Z 10035574 f i libucrt:output.obj
 0001:0003458a       ?type_case_s_compute_narrow_string_length@?$output_processor@DV?$stream_output_adapter@D@__crt_stdio_output@@V?$positional_parameter_base@DV?$stream_output_adapter@D@__crt_stdio_output@@@2@@__crt_stdio_output@@AAEHHD@Z 1003558a f i libucrt:output.obj
 0001:000345a0       ?type_case_s_compute_narrow_string_length@?$output_processor@DV?$stream_output_adapter@D@__crt_stdio_output@@V?$standard_base@DV?$stream_output_adapter@D@__crt_stdio_output@@@2@@__crt_stdio_output@@AAEHHD@Z 100355a0 f i libucrt:output.obj
 0001:000345b6       ?type_case_s_compute_narrow_string_length@?$output_processor@DV?$string_output_adapter@D@__crt_stdio_output@@V?$format_validation_base@DV?$string_output_adapter@D@__crt_stdio_output@@@2@@__crt_stdio_output@@AAEHHD@Z 100355b6 f i libucrt:output.obj
 0001:000345cc       ?type_case_s_compute_narrow_string_length@?$output_processor@DV?$string_output_adapter@D@__crt_stdio_output@@V?$positional_parameter_base@DV?$string_output_adapter@D@__crt_stdio_output@@@2@@__crt_stdio_output@@AAEHHD@Z 100355cc f i libucrt:output.obj
 0001:000345e2       ?type_case_s_compute_narrow_string_length@?$output_processor@DV?$string_output_adapter@D@__crt_stdio_output@@V?$standard_base@DV?$string_output_adapter@D@__crt_stdio_output@@@2@@__crt_stdio_output@@AAEHHD@Z 100355e2 f i libucrt:output.obj
 0001:000345f8       ?type_case_s_compute_narrow_string_length@?$output_processor@_WV?$stream_output_adapter@_W@__crt_stdio_output@@V?$format_validation_base@_WV?$stream_output_adapter@_W@__crt_stdio_output@@@2@@__crt_stdio_output@@AAEHH_W@Z 100355f8 f i libucrt:output.obj
 0001:0003464d       ?type_case_s_compute_narrow_string_length@?$output_processor@_WV?$stream_output_adapter@_W@__crt_stdio_output@@V?$positional_parameter_base@_WV?$stream_output_adapter@_W@__crt_stdio_output@@@2@@__crt_stdio_output@@AAEHH_W@Z 1003564d f i libucrt:output.obj
 0001:000346a2       ?type_case_s_compute_narrow_string_length@?$output_processor@_WV?$stream_output_adapter@_W@__crt_stdio_output@@V?$standard_base@_WV?$stream_output_adapter@_W@__crt_stdio_output@@@2@@__crt_stdio_output@@AAEHH_W@Z 100356a2 f i libucrt:output.obj
 0001:000346f7       ?type_case_s_compute_narrow_string_length@?$output_processor@_WV?$string_output_adapter@_W@__crt_stdio_output@@V?$format_validation_base@_WV?$string_output_adapter@_W@__crt_stdio_output@@@2@@__crt_stdio_output@@AAEHH_W@Z 100356f7 f i libucrt:output.obj
 0001:0003474c       ?type_case_s_compute_narrow_string_length@?$output_processor@_WV?$string_output_adapter@_W@__crt_stdio_output@@V?$positional_parameter_base@_WV?$string_output_adapter@_W@__crt_stdio_output@@@2@@__crt_stdio_output@@AAEHH_W@Z 1003574c f i libucrt:output.obj
 0001:000347a1       ?type_case_s_compute_narrow_string_length@?$output_processor@_WV?$string_output_adapter@_W@__crt_stdio_output@@V?$standard_base@_WV?$string_output_adapter@_W@__crt_stdio_output@@@2@@__crt_stdio_output@@AAEHH_W@Z 100357a1 f i libucrt:output.obj
 0001:000347f6       ?type_case_u@?$output_processor@DV?$stream_output_adapter@D@__crt_stdio_output@@V?$format_validation_base@DV?$stream_output_adapter@D@__crt_stdio_output@@@2@@__crt_stdio_output@@AAE_NXZ 100357f6 f i libucrt:output.obj
 0001:000347fe       ?type_case_u@?$output_processor@DV?$stream_output_adapter@D@__crt_stdio_output@@V?$positional_parameter_base@DV?$stream_output_adapter@D@__crt_stdio_output@@@2@@__crt_stdio_output@@AAE_NXZ 100357fe f i libucrt:output.obj
 0001:00034806       ?type_case_u@?$output_processor@DV?$stream_output_adapter@D@__crt_stdio_output@@V?$standard_base@DV?$stream_output_adapter@D@__crt_stdio_output@@@2@@__crt_stdio_output@@AAE_NXZ 10035806 f i libucrt:output.obj
 0001:0003480e       ?type_case_u@?$output_processor@DV?$string_output_adapter@D@__crt_stdio_output@@V?$format_validation_base@DV?$string_output_adapter@D@__crt_stdio_output@@@2@@__crt_stdio_output@@AAE_NXZ 1003580e f i libucrt:output.obj
 0001:00034816       ?type_case_u@?$output_processor@DV?$string_output_adapter@D@__crt_stdio_output@@V?$positional_parameter_base@DV?$string_output_adapter@D@__crt_stdio_output@@@2@@__crt_stdio_output@@AAE_NXZ 10035816 f i libucrt:output.obj
 0001:0003481e       ?type_case_u@?$output_processor@DV?$string_output_adapter@D@__crt_stdio_output@@V?$standard_base@DV?$string_output_adapter@D@__crt_stdio_output@@@2@@__crt_stdio_output@@AAE_NXZ 1003581e f i libucrt:output.obj
 0001:00034826       ?type_case_u@?$output_processor@_WV?$stream_output_adapter@_W@__crt_stdio_output@@V?$format_validation_base@_WV?$stream_output_adapter@_W@__crt_stdio_output@@@2@@__crt_stdio_output@@AAE_NXZ 10035826 f i libucrt:output.obj
 0001:0003482e       ?type_case_u@?$output_processor@_WV?$stream_output_adapter@_W@__crt_stdio_output@@V?$positional_parameter_base@_WV?$stream_output_adapter@_W@__crt_stdio_output@@@2@@__crt_stdio_output@@AAE_NXZ 1003582e f i libucrt:output.obj
 0001:00034836       ?type_case_u@?$output_processor@_WV?$stream_output_adapter@_W@__crt_stdio_output@@V?$standard_base@_WV?$stream_output_adapter@_W@__crt_stdio_output@@@2@@__crt_stdio_output@@AAE_NXZ 10035836 f i libucrt:output.obj
 0001:0003483e       ?type_case_u@?$output_processor@_WV?$string_output_adapter@_W@__crt_stdio_output@@V?$format_validation_base@_WV?$string_output_adapter@_W@__crt_stdio_output@@@2@@__crt_stdio_output@@AAE_NXZ 1003583e f i libucrt:output.obj
 0001:00034846       ?type_case_u@?$output_processor@_WV?$string_output_adapter@_W@__crt_stdio_output@@V?$positional_parameter_base@_WV?$string_output_adapter@_W@__crt_stdio_output@@@2@@__crt_stdio_output@@AAE_NXZ 10035846 f i libucrt:output.obj
 0001:0003484e       ?type_case_u@?$output_processor@_WV?$string_output_adapter@_W@__crt_stdio_output@@V?$standard_base@_WV?$string_output_adapter@_W@__crt_stdio_output@@@2@@__crt_stdio_output@@AAE_NXZ 1003584e f i libucrt:output.obj
 0001:00034856       ?type_case_x@?$output_processor@DV?$stream_output_adapter@D@__crt_stdio_output@@V?$format_validation_base@DV?$stream_output_adapter@D@__crt_stdio_output@@@2@@__crt_stdio_output@@AAE_NXZ 10035856 f i libucrt:output.obj
 0001:0003485e       ?type_case_x@?$output_processor@DV?$stream_output_adapter@D@__crt_stdio_output@@V?$positional_parameter_base@DV?$stream_output_adapter@D@__crt_stdio_output@@@2@@__crt_stdio_output@@AAE_NXZ 1003585e f i libucrt:output.obj
 0001:00034866       ?type_case_x@?$output_processor@DV?$stream_output_adapter@D@__crt_stdio_output@@V?$standard_base@DV?$stream_output_adapter@D@__crt_stdio_output@@@2@@__crt_stdio_output@@AAE_NXZ 10035866 f i libucrt:output.obj
 0001:0003486e       ?type_case_x@?$output_processor@DV?$string_output_adapter@D@__crt_stdio_output@@V?$format_validation_base@DV?$string_output_adapter@D@__crt_stdio_output@@@2@@__crt_stdio_output@@AAE_NXZ 1003586e f i libucrt:output.obj
 0001:00034876       ?type_case_x@?$output_processor@DV?$string_output_adapter@D@__crt_stdio_output@@V?$positional_parameter_base@DV?$string_output_adapter@D@__crt_stdio_output@@@2@@__crt_stdio_output@@AAE_NXZ 10035876 f i libucrt:output.obj
 0001:0003487e       ?type_case_x@?$output_processor@DV?$string_output_adapter@D@__crt_stdio_output@@V?$standard_base@DV?$string_output_adapter@D@__crt_stdio_output@@@2@@__crt_stdio_output@@AAE_NXZ 1003587e f i libucrt:output.obj
 0001:00034886       ?type_case_x@?$output_processor@_WV?$stream_output_adapter@_W@__crt_stdio_output@@V?$format_validation_base@_WV?$stream_output_adapter@_W@__crt_stdio_output@@@2@@__crt_stdio_output@@AAE_NXZ 10035886 f i libucrt:output.obj
 0001:0003488e       ?type_case_x@?$output_processor@_WV?$stream_output_adapter@_W@__crt_stdio_output@@V?$positional_parameter_base@_WV?$stream_output_adapter@_W@__crt_stdio_output@@@2@@__crt_stdio_output@@AAE_NXZ 1003588e f i libucrt:output.obj
 0001:00034896       ?type_case_x@?$output_processor@_WV?$stream_output_adapter@_W@__crt_stdio_output@@V?$standard_base@_WV?$stream_output_adapter@_W@__crt_stdio_output@@@2@@__crt_stdio_output@@AAE_NXZ 10035896 f i libucrt:output.obj
 0001:0003489e       ?type_case_x@?$output_processor@_WV?$string_output_adapter@_W@__crt_stdio_output@@V?$format_validation_base@_WV?$string_output_adapter@_W@__crt_stdio_output@@@2@@__crt_stdio_output@@AAE_NXZ 1003589e f i libucrt:output.obj
 0001:000348a6       ?type_case_x@?$output_processor@_WV?$string_output_adapter@_W@__crt_stdio_output@@V?$positional_parameter_base@_WV?$string_output_adapter@_W@__crt_stdio_output@@@2@@__crt_stdio_output@@AAE_NXZ 100358a6 f i libucrt:output.obj
 0001:000348ae       ?type_case_x@?$output_processor@_WV?$string_output_adapter@_W@__crt_stdio_output@@V?$standard_base@_WV?$string_output_adapter@_W@__crt_stdio_output@@@2@@__crt_stdio_output@@AAE_NXZ 100358ae f i libucrt:output.obj
 0001:000348b6       ?unget@?$c_string_character_source@D@__crt_strtox@@QAEXD@Z 100358b6 f i libucrt:output.obj
 0001:000348df       ?unget@?$c_string_character_source@_W@__crt_strtox@@QAEX_W@Z 100358df f i libucrt:output.obj
 0001:0003490d       ?unset_flag@?$output_processor@DV?$stream_output_adapter@D@__crt_stdio_output@@V?$format_validation_base@DV?$stream_output_adapter@D@__crt_stdio_output@@@2@@__crt_stdio_output@@AAEXI@Z 1003590d f i libucrt:output.obj
 0001:0003491e       ?unset_flag@?$output_processor@DV?$stream_output_adapter@D@__crt_stdio_output@@V?$positional_parameter_base@DV?$stream_output_adapter@D@__crt_stdio_output@@@2@@__crt_stdio_output@@AAEXI@Z 1003591e f i libucrt:output.obj
 0001:0003492f       ?unset_flag@?$output_processor@DV?$stream_output_adapter@D@__crt_stdio_output@@V?$standard_base@DV?$stream_output_adapter@D@__crt_stdio_output@@@2@@__crt_stdio_output@@AAEXI@Z 1003592f f i libucrt:output.obj
 0001:00034940       ?unset_flag@?$output_processor@DV?$string_output_adapter@D@__crt_stdio_output@@V?$format_validation_base@DV?$string_output_adapter@D@__crt_stdio_output@@@2@@__crt_stdio_output@@AAEXI@Z 10035940 f i libucrt:output.obj
 0001:00034951       ?unset_flag@?$output_processor@DV?$string_output_adapter@D@__crt_stdio_output@@V?$positional_parameter_base@DV?$string_output_adapter@D@__crt_stdio_output@@@2@@__crt_stdio_output@@AAEXI@Z 10035951 f i libucrt:output.obj
 0001:00034962       ?unset_flag@?$output_processor@DV?$string_output_adapter@D@__crt_stdio_output@@V?$standard_base@DV?$string_output_adapter@D@__crt_stdio_output@@@2@@__crt_stdio_output@@AAEXI@Z 10035962 f i libucrt:output.obj
 0001:00034973       ?unset_flag@?$output_processor@_WV?$stream_output_adapter@_W@__crt_stdio_output@@V?$format_validation_base@_WV?$stream_output_adapter@_W@__crt_stdio_output@@@2@@__crt_stdio_output@@AAEXI@Z 10035973 f i libucrt:output.obj
 0001:00034984       ?unset_flag@?$output_processor@_WV?$stream_output_adapter@_W@__crt_stdio_output@@V?$positional_parameter_base@_WV?$stream_output_adapter@_W@__crt_stdio_output@@@2@@__crt_stdio_output@@AAEXI@Z 10035984 f i libucrt:output.obj
 0001:00034995       ?unset_flag@?$output_processor@_WV?$stream_output_adapter@_W@__crt_stdio_output@@V?$standard_base@_WV?$stream_output_adapter@_W@__crt_stdio_output@@@2@@__crt_stdio_output@@AAEXI@Z 10035995 f i libucrt:output.obj
 0001:000349a6       ?unset_flag@?$output_processor@_WV?$string_output_adapter@_W@__crt_stdio_output@@V?$format_validation_base@_WV?$string_output_adapter@_W@__crt_stdio_output@@@2@@__crt_stdio_output@@AAEXI@Z 100359a6 f i libucrt:output.obj
 0001:000349b7       ?unset_flag@?$output_processor@_WV?$string_output_adapter@_W@__crt_stdio_output@@V?$positional_parameter_base@_WV?$string_output_adapter@_W@__crt_stdio_output@@@2@@__crt_stdio_output@@AAEXI@Z 100359b7 f i libucrt:output.obj
 0001:000349c8       ?unset_flag@?$output_processor@_WV?$string_output_adapter@_W@__crt_stdio_output@@V?$standard_base@_WV?$string_output_adapter@_W@__crt_stdio_output@@@2@@__crt_stdio_output@@AAEXI@Z 100359c8 f i libucrt:output.obj
 0001:000349d9       ?update_field_width@?$positional_parameter_base@DV?$stream_output_adapter@D@__crt_stdio_output@@@__crt_stdio_output@@IAE_NXZ 100359d9 f i libucrt:output.obj
 0001:00034aae       ?update_field_width@?$positional_parameter_base@DV?$string_output_adapter@D@__crt_stdio_output@@@__crt_stdio_output@@IAE_NXZ 10035aae f i libucrt:output.obj
 0001:00034b83       ?update_field_width@?$positional_parameter_base@_WV?$stream_output_adapter@_W@__crt_stdio_output@@@__crt_stdio_output@@IAE_NXZ 10035b83 f i libucrt:output.obj
 0001:00034c59       ?update_field_width@?$positional_parameter_base@_WV?$string_output_adapter@_W@__crt_stdio_output@@@__crt_stdio_output@@IAE_NXZ 10035c59 f i libucrt:output.obj
 0001:00034d2f       ?update_field_width@?$standard_base@DV?$stream_output_adapter@D@__crt_stdio_output@@@__crt_stdio_output@@IAE_NXZ 10035d2f f i libucrt:output.obj
 0001:00034d40       ?update_field_width@?$standard_base@DV?$string_output_adapter@D@__crt_stdio_output@@@__crt_stdio_output@@IAE_NXZ 10035d40 f i libucrt:output.obj
 0001:00034d51       ?update_field_width@?$standard_base@_WV?$stream_output_adapter@_W@__crt_stdio_output@@@__crt_stdio_output@@IAE_NXZ 10035d51 f i libucrt:output.obj
 0001:00034d62       ?update_field_width@?$standard_base@_WV?$string_output_adapter@_W@__crt_stdio_output@@@__crt_stdio_output@@IAE_NXZ 10035d62 f i libucrt:output.obj
 0001:00034d73       ?update_precision@?$positional_parameter_base@DV?$stream_output_adapter@D@__crt_stdio_output@@@__crt_stdio_output@@IAE_NXZ 10035d73 f i libucrt:output.obj
 0001:00034e48       ?update_precision@?$positional_parameter_base@DV?$string_output_adapter@D@__crt_stdio_output@@@__crt_stdio_output@@IAE_NXZ 10035e48 f i libucrt:output.obj
 0001:00034f1d       ?update_precision@?$positional_parameter_base@_WV?$stream_output_adapter@_W@__crt_stdio_output@@@__crt_stdio_output@@IAE_NXZ 10035f1d f i libucrt:output.obj
 0001:00034ff3       ?update_precision@?$positional_parameter_base@_WV?$string_output_adapter@_W@__crt_stdio_output@@@__crt_stdio_output@@IAE_NXZ 10035ff3 f i libucrt:output.obj
 0001:000350c9       ?update_precision@?$standard_base@DV?$stream_output_adapter@D@__crt_stdio_output@@@__crt_stdio_output@@IAE_NXZ 100360c9 f i libucrt:output.obj
 0001:000350da       ?update_precision@?$standard_base@DV?$string_output_adapter@D@__crt_stdio_output@@@__crt_stdio_output@@IAE_NXZ 100360da f i libucrt:output.obj
 0001:000350eb       ?update_precision@?$standard_base@_WV?$stream_output_adapter@_W@__crt_stdio_output@@@__crt_stdio_output@@IAE_NXZ 100360eb f i libucrt:output.obj
 0001:000350fc       ?update_precision@?$standard_base@_WV?$string_output_adapter@_W@__crt_stdio_output@@@__crt_stdio_output@@IAE_NXZ 100360fc f i libucrt:output.obj
 0001:0003510d       ?valid@__crt_stdio_stream@@QBE_NXZ 1003610d f i libucrt:output.obj
 0001:00035114       ?validate@?$c_string_character_source@D@__crt_strtox@@QBE_NXZ 10036114 f i libucrt:output.obj
 0001:0003512f       ?validate@?$c_string_character_source@_W@__crt_strtox@@QBE_NXZ 1003612f f i libucrt:output.obj
 0001:0003514a       ?validate@?$stream_output_adapter@D@__crt_stdio_output@@QBE_NAAV__crt_cached_ptd_host@@@Z 1003614a f i libucrt:output.obj
 0001:00035182       ?validate@?$stream_output_adapter@_W@__crt_stdio_output@@QBE_NAAV__crt_cached_ptd_host@@@Z 10036182 f i libucrt:output.obj
 0001:000351b3       ?validate@?$string_output_adapter@D@__crt_stdio_output@@QBE_NAAV__crt_cached_ptd_host@@@Z 100361b3 f i libucrt:output.obj
 0001:000351e4       ?validate@?$string_output_adapter@_W@__crt_stdio_output@@QBE_NAAV__crt_cached_ptd_host@@@Z 100361e4 f i libucrt:output.obj
 0001:00035215       ?validate_and_store_parameter_data@?$positional_parameter_base@DV?$stream_output_adapter@D@__crt_stdio_output@@@__crt_stdio_output@@AAE_NAAUparameter_data@12@W4parameter_type@12@DW4length_modifier@2@@Z 10036215 f i libucrt:output.obj
 0001:00035277       ?validate_and_store_parameter_data@?$positional_parameter_base@DV?$string_output_adapter@D@__crt_stdio_output@@@__crt_stdio_output@@AAE_NAAUparameter_data@12@W4parameter_type@12@DW4length_modifier@2@@Z 10036277 f i libucrt:output.obj
 0001:000352d9       ?validate_and_store_parameter_data@?$positional_parameter_base@_WV?$stream_output_adapter@_W@__crt_stdio_output@@@__crt_stdio_output@@AAE_NAAUparameter_data@12@W4parameter_type@12@_WW4length_modifier@2@@Z 100362d9 f i libucrt:output.obj
 0001:0003533d       ?validate_and_store_parameter_data@?$positional_parameter_base@_WV?$string_output_adapter@_W@__crt_stdio_output@@@__crt_stdio_output@@AAE_NAAUparameter_data@12@W4parameter_type@12@_WW4length_modifier@2@@Z 1003633d f i libucrt:output.obj
 0001:000353a1       ?validate_and_update_state_at_beginning_of_format_character@?$positional_parameter_base@DV?$stream_output_adapter@D@__crt_stdio_output@@@__crt_stdio_output@@IAE_NXZ 100363a1 f i libucrt:output.obj
 0001:000354b8       ?validate_and_update_state_at_beginning_of_format_character@?$positional_parameter_base@DV?$string_output_adapter@D@__crt_stdio_output@@@__crt_stdio_output@@IAE_NXZ 100364b8 f i libucrt:output.obj
 0001:000355cf       ?validate_and_update_state_at_beginning_of_format_character@?$positional_parameter_base@_WV?$stream_output_adapter@_W@__crt_stdio_output@@@__crt_stdio_output@@IAE_NXZ 100365cf f i libucrt:output.obj
 0001:000356f3       ?validate_and_update_state_at_beginning_of_format_character@?$positional_parameter_base@_WV?$string_output_adapter@_W@__crt_stdio_output@@@__crt_stdio_output@@IAE_NXZ 100366f3 f i libucrt:output.obj
 0001:00035817       ?validate_and_update_state_at_beginning_of_format_character@?$standard_base@DV?$stream_output_adapter@D@__crt_stdio_output@@@__crt_stdio_output@@IAE_NXZ 10036817 f i libucrt:output.obj
 0001:0003581a       ?validate_and_update_state_at_beginning_of_format_character@?$standard_base@DV?$string_output_adapter@D@__crt_stdio_output@@@__crt_stdio_output@@IAE_NXZ 1003681a f i libucrt:output.obj
 0001:0003581d       ?validate_and_update_state_at_beginning_of_format_character@?$standard_base@_WV?$stream_output_adapter@_W@__crt_stdio_output@@@__crt_stdio_output@@IAE_NXZ 1003681d f i libucrt:output.obj
 0001:00035820       ?validate_and_update_state_at_beginning_of_format_character@?$standard_base@_WV?$string_output_adapter@_W@__crt_stdio_output@@@__crt_stdio_output@@IAE_NXZ 10036820 f i libucrt:output.obj
 0001:00035823       ?validate_and_update_state_at_end_of_format_string@?$format_validation_base@DV?$stream_output_adapter@D@__crt_stdio_output@@@__crt_stdio_output@@IAE_NXZ 10036823 f i libucrt:output.obj
 0001:00035854       ?validate_and_update_state_at_end_of_format_string@?$format_validation_base@DV?$string_output_adapter@D@__crt_stdio_output@@@__crt_stdio_output@@IAE_NXZ 10036854 f i libucrt:output.obj
 0001:00035885       ?validate_and_update_state_at_end_of_format_string@?$format_validation_base@_WV?$stream_output_adapter@_W@__crt_stdio_output@@@__crt_stdio_output@@IAE_NXZ 10036885 f i libucrt:output.obj
 0001:000358b6       ?validate_and_update_state_at_end_of_format_string@?$format_validation_base@_WV?$string_output_adapter@_W@__crt_stdio_output@@@__crt_stdio_output@@IAE_NXZ 100368b6 f i libucrt:output.obj
 0001:000358e7       ?validate_and_update_state_at_end_of_format_string@?$positional_parameter_base@DV?$stream_output_adapter@D@__crt_stdio_output@@@__crt_stdio_output@@IAE_NXZ 100368e7 f i libucrt:output.obj
 0001:000359a1       ?validate_and_update_state_at_end_of_format_string@?$positional_parameter_base@DV?$string_output_adapter@D@__crt_stdio_output@@@__crt_stdio_output@@IAE_NXZ 100369a1 f i libucrt:output.obj
 0001:00035a5b       ?validate_and_update_state_at_end_of_format_string@?$positional_parameter_base@_WV?$stream_output_adapter@_W@__crt_stdio_output@@@__crt_stdio_output@@IAE_NXZ 10036a5b f i libucrt:output.obj
 0001:00035b15       ?validate_and_update_state_at_end_of_format_string@?$positional_parameter_base@_WV?$string_output_adapter@_W@__crt_stdio_output@@@__crt_stdio_output@@IAE_NXZ 10036b15 f i libucrt:output.obj
 0001:00035bcf       ?validate_and_update_state_at_end_of_format_string@?$standard_base@DV?$stream_output_adapter@D@__crt_stdio_output@@@__crt_stdio_output@@IBE_NXZ 10036bcf f i libucrt:output.obj
 0001:00035bd2       ?validate_and_update_state_at_end_of_format_string@?$standard_base@DV?$string_output_adapter@D@__crt_stdio_output@@@__crt_stdio_output@@IBE_NXZ 10036bd2 f i libucrt:output.obj
 0001:00035bd5       ?validate_and_update_state_at_end_of_format_string@?$standard_base@_WV?$stream_output_adapter@_W@__crt_stdio_output@@@__crt_stdio_output@@IBE_NXZ 10036bd5 f i libucrt:output.obj
 0001:00035bd8       ?validate_and_update_state_at_end_of_format_string@?$standard_base@_WV?$string_output_adapter@_W@__crt_stdio_output@@@__crt_stdio_output@@IBE_NXZ 10036bd8 f i libucrt:output.obj
 0001:00035bdb       ?validate_state_for_type_case_a@?$positional_parameter_base@DV?$stream_output_adapter@D@__crt_stdio_output@@@__crt_stdio_output@@IAE_NXZ 10036bdb f i libucrt:output.obj
 0001:00035c3a       ?validate_state_for_type_case_a@?$positional_parameter_base@DV?$string_output_adapter@D@__crt_stdio_output@@@__crt_stdio_output@@IAE_NXZ 10036c3a f i libucrt:output.obj
 0001:00035c99       ?validate_state_for_type_case_a@?$positional_parameter_base@_WV?$stream_output_adapter@_W@__crt_stdio_output@@@__crt_stdio_output@@IAE_NXZ 10036c99 f i libucrt:output.obj
 0001:00035cf8       ?validate_state_for_type_case_a@?$positional_parameter_base@_WV?$string_output_adapter@_W@__crt_stdio_output@@@__crt_stdio_output@@IAE_NXZ 10036cf8 f i libucrt:output.obj
 0001:00035d57       ?validate_state_for_type_case_a@?$standard_base@DV?$stream_output_adapter@D@__crt_stdio_output@@@__crt_stdio_output@@IBE_NXZ 10036d57 f i libucrt:output.obj
 0001:00035d5a       ?validate_state_for_type_case_a@?$standard_base@DV?$string_output_adapter@D@__crt_stdio_output@@@__crt_stdio_output@@IBE_NXZ 10036d5a f i libucrt:output.obj
 0001:00035d5d       ?validate_state_for_type_case_a@?$standard_base@_WV?$stream_output_adapter@_W@__crt_stdio_output@@@__crt_stdio_output@@IBE_NXZ 10036d5d f i libucrt:output.obj
 0001:00035d60       ?validate_state_for_type_case_a@?$standard_base@_WV?$string_output_adapter@_W@__crt_stdio_output@@@__crt_stdio_output@@IBE_NXZ 10036d60 f i libucrt:output.obj
 0001:00035d63       ?validate_stream_is_ansi_if_required@?$__acrt_stdio_char_traits@D@@SA_NQAU_iobuf@@@Z 10036d63 f i libucrt:output.obj
 0001:00035dea       ?validate_stream_is_ansi_if_required@?$__acrt_stdio_char_traits@_W@@SA_NQAU_iobuf@@@Z 10036dea f i libucrt:output.obj
 0001:00035ded       ?wide_character_to_digit@__crt_strtox@@YAH_W@Z 10036ded f i libucrt:output.obj
 0001:00035f8e       ?wide_null_string@?$output_processor@DV?$stream_output_adapter@D@__crt_stdio_output@@V?$format_validation_base@DV?$stream_output_adapter@D@__crt_stdio_output@@@2@@__crt_stdio_output@@CAPA_WXZ 10036f8e f i libucrt:output.obj
 0001:00035f94       ?wide_null_string@?$output_processor@DV?$stream_output_adapter@D@__crt_stdio_output@@V?$positional_parameter_base@DV?$stream_output_adapter@D@__crt_stdio_output@@@2@@__crt_stdio_output@@CAPA_WXZ 10036f94 f i libucrt:output.obj
 0001:00035f9a       ?wide_null_string@?$output_processor@DV?$stream_output_adapter@D@__crt_stdio_output@@V?$standard_base@DV?$stream_output_adapter@D@__crt_stdio_output@@@2@@__crt_stdio_output@@CAPA_WXZ 10036f9a f i libucrt:output.obj
 0001:00035fa0       ?wide_null_string@?$output_processor@DV?$string_output_adapter@D@__crt_stdio_output@@V?$format_validation_base@DV?$string_output_adapter@D@__crt_stdio_output@@@2@@__crt_stdio_output@@CAPA_WXZ 10036fa0 f i libucrt:output.obj
 0001:00035fa6       ?wide_null_string@?$output_processor@DV?$string_output_adapter@D@__crt_stdio_output@@V?$positional_parameter_base@DV?$string_output_adapter@D@__crt_stdio_output@@@2@@__crt_stdio_output@@CAPA_WXZ 10036fa6 f i libucrt:output.obj
 0001:00035fac       ?wide_null_string@?$output_processor@DV?$string_output_adapter@D@__crt_stdio_output@@V?$standard_base@DV?$string_output_adapter@D@__crt_stdio_output@@@2@@__crt_stdio_output@@CAPA_WXZ 10036fac f i libucrt:output.obj
 0001:00035fb2       ?wide_null_string@?$output_processor@_WV?$stream_output_adapter@_W@__crt_stdio_output@@V?$format_validation_base@_WV?$stream_output_adapter@_W@__crt_stdio_output@@@2@@__crt_stdio_output@@CAPA_WXZ 10036fb2 f i libucrt:output.obj
 0001:00035fb8       ?wide_null_string@?$output_processor@_WV?$stream_output_adapter@_W@__crt_stdio_output@@V?$positional_parameter_base@_WV?$stream_output_adapter@_W@__crt_stdio_output@@@2@@__crt_stdio_output@@CAPA_WXZ 10036fb8 f i libucrt:output.obj
 0001:00035fbe       ?wide_null_string@?$output_processor@_WV?$stream_output_adapter@_W@__crt_stdio_output@@V?$standard_base@_WV?$stream_output_adapter@_W@__crt_stdio_output@@@2@@__crt_stdio_output@@CAPA_WXZ 10036fbe f i libucrt:output.obj
 0001:00035fc4       ?wide_null_string@?$output_processor@_WV?$string_output_adapter@_W@__crt_stdio_output@@V?$format_validation_base@_WV?$string_output_adapter@_W@__crt_stdio_output@@@2@@__crt_stdio_output@@CAPA_WXZ 10036fc4 f i libucrt:output.obj
 0001:00035fca       ?wide_null_string@?$output_processor@_WV?$string_output_adapter@_W@__crt_stdio_output@@V?$positional_parameter_base@_WV?$string_output_adapter@_W@__crt_stdio_output@@@2@@__crt_stdio_output@@CAPA_WXZ 10036fca f i libucrt:output.obj
 0001:00035fd0       ?wide_null_string@?$output_processor@_WV?$string_output_adapter@_W@__crt_stdio_output@@V?$standard_base@_WV?$string_output_adapter@_W@__crt_stdio_output@@@2@@__crt_stdio_output@@CAPA_WXZ 10036fd0 f i libucrt:output.obj
 0001:00035fd6       ?write_character@?$output_adapter_common@DV?$stream_output_adapter@D@__crt_stdio_output@@@__crt_stdio_output@@QBEXDQAHAAV__crt_cached_ptd_host@@@Z 10036fd6 f i libucrt:output.obj
 0001:00035ff8       ?write_character@?$output_adapter_common@_WV?$stream_output_adapter@_W@__crt_stdio_output@@@__crt_stdio_output@@QBEX_WQAHAAV__crt_cached_ptd_host@@@Z 10036ff8 f i libucrt:output.obj
 0001:0003601a       ?write_character@?$string_output_adapter@D@__crt_stdio_output@@QBE_NDQAHAAV__crt_cached_ptd_host@@@Z 1003701a f i libucrt:output.obj
 0001:0003605c       ?write_character@?$string_output_adapter@_W@__crt_stdio_output@@QBE_N_WQAHAAV__crt_cached_ptd_host@@@Z 1003705c f i libucrt:output.obj
 0001:000360a1       ?write_character_without_count_update@?$stream_output_adapter@D@__crt_stdio_output@@QBE_NDAAV__crt_cached_ptd_host@@@Z 100370a1 f i libucrt:output.obj
 0001:000360db       ?write_character_without_count_update@?$stream_output_adapter@_W@__crt_stdio_output@@QBE_N_WAAV__crt_cached_ptd_host@@@Z 100370db f i libucrt:output.obj
 0001:00036118       ?write_stored_string_tchar@?$output_processor@DV?$stream_output_adapter@D@__crt_stdio_output@@V?$format_validation_base@DV?$stream_output_adapter@D@__crt_stdio_output@@@2@@__crt_stdio_output@@AAE_ND@Z 10037118 f i libucrt:output.obj
 0001:000361c3       ?write_stored_string_tchar@?$output_processor@DV?$stream_output_adapter@D@__crt_stdio_output@@V?$positional_parameter_base@DV?$stream_output_adapter@D@__crt_stdio_output@@@2@@__crt_stdio_output@@AAE_ND@Z 100371c3 f i libucrt:output.obj
 0001:0003626e       ?write_stored_string_tchar@?$output_processor@DV?$stream_output_adapter@D@__crt_stdio_output@@V?$standard_base@DV?$stream_output_adapter@D@__crt_stdio_output@@@2@@__crt_stdio_output@@AAE_ND@Z 1003726e f i libucrt:output.obj
 0001:00036319       ?write_stored_string_tchar@?$output_processor@DV?$string_output_adapter@D@__crt_stdio_output@@V?$format_validation_base@DV?$string_output_adapter@D@__crt_stdio_output@@@2@@__crt_stdio_output@@AAE_ND@Z 10037319 f i libucrt:output.obj
 0001:000363c4       ?write_stored_string_tchar@?$output_processor@DV?$string_output_adapter@D@__crt_stdio_output@@V?$positional_parameter_base@DV?$string_output_adapter@D@__crt_stdio_output@@@2@@__crt_stdio_output@@AAE_ND@Z 100373c4 f i libucrt:output.obj
 0001:0003646f       ?write_stored_string_tchar@?$output_processor@DV?$string_output_adapter@D@__crt_stdio_output@@V?$standard_base@DV?$string_output_adapter@D@__crt_stdio_output@@@2@@__crt_stdio_output@@AAE_ND@Z 1003746f f i libucrt:output.obj
 0001:0003651a       ?write_stored_string_tchar@?$output_processor@_WV?$stream_output_adapter@_W@__crt_stdio_output@@V?$format_validation_base@_WV?$stream_output_adapter@_W@__crt_stdio_output@@@2@@__crt_stdio_output@@AAE_N_W@Z 1003751a f i libucrt:output.obj
 0001:000365c7       ?write_stored_string_tchar@?$output_processor@_WV?$stream_output_adapter@_W@__crt_stdio_output@@V?$positional_parameter_base@_WV?$stream_output_adapter@_W@__crt_stdio_output@@@2@@__crt_stdio_output@@AAE_N_W@Z 100375c7 f i libucrt:output.obj
 0001:00036674       ?write_stored_string_tchar@?$output_processor@_WV?$stream_output_adapter@_W@__crt_stdio_output@@V?$standard_base@_WV?$stream_output_adapter@_W@__crt_stdio_output@@@2@@__crt_stdio_output@@AAE_N_W@Z 10037674 f i libucrt:output.obj
 0001:00036721       ?write_stored_string_tchar@?$output_processor@_WV?$string_output_adapter@_W@__crt_stdio_output@@V?$format_validation_base@_WV?$string_output_adapter@_W@__crt_stdio_output@@@2@@__crt_stdio_output@@AAE_N_W@Z 10037721 f i libucrt:output.obj
 0001:000367fe       ?write_stored_string_tchar@?$output_processor@_WV?$string_output_adapter@_W@__crt_stdio_output@@V?$positional_parameter_base@_WV?$string_output_adapter@_W@__crt_stdio_output@@@2@@__crt_stdio_output@@AAE_N_W@Z 100377fe f i libucrt:output.obj
 0001:000368db       ?write_stored_string_tchar@?$output_processor@_WV?$string_output_adapter@_W@__crt_stdio_output@@V?$standard_base@_WV?$string_output_adapter@_W@__crt_stdio_output@@@2@@__crt_stdio_output@@AAE_N_W@Z 100378db f i libucrt:output.obj
 0001:000369b8       ?write_string@?$stream_output_adapter@D@__crt_stdio_output@@QBEXQBDHQAHAAV__crt_cached_ptd_host@@@Z 100379b8 f i libucrt:output.obj
 0001:000369e4       ?write_string@?$stream_output_adapter@_W@__crt_stdio_output@@QBEXQB_WHQAHAAV__crt_cached_ptd_host@@@Z 100379e4 f i libucrt:output.obj
 0001:00036a10       ?write_string@?$string_output_adapter@D@__crt_stdio_output@@QBEXQBDHQAHAAV__crt_cached_ptd_host@@@Z 10037a10 f i libucrt:output.obj
 0001:00036a77       ?write_string@?$string_output_adapter@_W@__crt_stdio_output@@QBEXQB_WHQAHAAV__crt_cached_ptd_host@@@Z 10037a77 f i libucrt:output.obj
 0001:00036ae8       ?write_string_impl@?$output_adapter_common@DV?$stream_output_adapter@D@__crt_stdio_output@@@__crt_stdio_output@@IBEXQBDHQAHAAV__crt_cached_ptd_host@@@Z 10037ae8 f i libucrt:output.obj
 0001:00036b67       ?write_string_impl@?$output_adapter_common@_WV?$stream_output_adapter@_W@__crt_stdio_output@@@__crt_stdio_output@@IBEXQB_WHQAHAAV__crt_cached_ptd_host@@@Z 10037b67 f i libucrt:output.obj
 0001:00036be9       ___acrt_isleadbyte_l_noupdate 10037be9 f i libucrt:output.obj
 0001:00036c07       ___acrt_locale_get_ctype_array_value 10037c07 f i libucrt:output.obj
 0001:00036c29       ___ascii_iswalpha          10037c29 f i libucrt:output.obj
 0001:00036c4c       ___ascii_toupper           10037c4c f i libucrt:output.obj
 0001:00036c63       ___ascii_towupper          10037c63 f i libucrt:output.obj
 0001:00036c7a       ___stdio_common_vfprintf   10037c7a f   libucrt:output.obj
 0001:00036d1e       ___stdio_common_vfprintf_p 10037d1e f   libucrt:output.obj
 0001:00036dc2       ___stdio_common_vfprintf_s 10037dc2 f   libucrt:output.obj
 0001:00036e66       ___stdio_common_vfwprintf  10037e66 f   libucrt:output.obj
 0001:00036f0a       ___stdio_common_vfwprintf_p 10037f0a f   libucrt:output.obj
 0001:00036fae       ___stdio_common_vfwprintf_s 10037fae f   libucrt:output.obj
 0001:00037052       ___stdio_common_vsnprintf_s 10038052 f   libucrt:output.obj
 0001:00037096       ___stdio_common_vsnwprintf_s 10038096 f   libucrt:output.obj
 0001:000370da       ___stdio_common_vsprintf   100380da f   libucrt:output.obj
 0001:0003711b       ___stdio_common_vsprintf_p 1003811b f   libucrt:output.obj
 0001:0003715c       ___stdio_common_vsprintf_s 1003815c f   libucrt:output.obj
 0001:0003719d       ___stdio_common_vswprintf  1003819d f   libucrt:output.obj
 0001:000371de       ___stdio_common_vswprintf_p 100381de f   libucrt:output.obj
 0001:0003721f       ___stdio_common_vswprintf_s 1003821f f   libucrt:output.obj
 0001:00037260       __ctype_fast_check_internal 10038260 f i libucrt:output.obj
 0001:0003727a       __isdigit_fast_internal    1003827a f i libucrt:output.obj
 0001:00037294       __tolower_fast_internal    10038294 f i libucrt:output.obj
 0001:000372ad       _free                      100382ad f   libucrt:free.obj
 0001:000372c8       _malloc                    100382c8 f   libucrt:malloc.obj
 0001:00037811       __read                     10038811 f   libucrt:read.obj
 0001:0003792a       __read_nolock              1003892a f   libucrt:read.obj
 0001:00037cb5       __utf8_no_of_trailbytes    10038cb5 f i libucrt:read.obj
 0001:00037e73       __close                    10038e73 f   libucrt:close.obj
 0001:00037ea3       __close_internal           10038ea3 f   libucrt:close.obj
 0001:00037f46       __close_nolock             10038f46 f   libucrt:close.obj
 0001:00037f76       __close_nolock_internal    10038f76 f   libucrt:close.obj
 0001:00038016       ___acrt_errno_from_os_error 10039016 f   libucrt:errno.obj
 0001:00038059       ___acrt_errno_map_os_error 10039059 f   libucrt:errno.obj
 0001:0003807c       ___acrt_errno_map_os_error_ptd 1003907c f   libucrt:errno.obj
 0001:000380a0       ___doserrno                100390a0 f   libucrt:errno.obj
 0001:000380b3       __errno                    100390b3 f   libucrt:errno.obj
 0001:000380c6       __get_doserrno             100390c6 f   libucrt:errno.obj
 0001:000380eb       __get_errno                100390eb f   libucrt:errno.obj
 0001:00038110       __set_doserrno             10039110 f   libucrt:errno.obj
 0001:00038131       __set_errno                10039131 f   libucrt:errno.obj
 0001:00038152       ??$?R_W@__crt_internal_free_policy@@QBEXQB_W@Z 10039152 f i libucrt:strerror.obj
 0001:0003831a       ??0?$__crt_unique_heap_ptr@_WU__crt_internal_free_policy@@@@QAE@QA_W@Z 1003931a f i libucrt:strerror.obj
 0001:0003832a       ??1?$__crt_unique_heap_ptr@_WU__crt_internal_free_policy@@@@QAE@XZ 1003932a f i libucrt:strerror.obj
 0001:00038374       ?detach@?$__crt_unique_heap_ptr@DU__crt_internal_free_policy@@@@QAEPADXZ 10039374 f i libucrt:strerror.obj
 0001:0003837a       ?detach@?$__crt_unique_heap_ptr@_WU__crt_internal_free_policy@@@@QAEPA_WXZ 1003937a f i libucrt:strerror.obj
 0001:000383a6       ?release@?$__crt_unique_heap_ptr@_WU__crt_internal_free_policy@@@@QAEXXZ 100393a6 f i libucrt:strerror.obj
 0001:000383b8       __get_sys_err_msg          100393b8 f i libucrt:strerror.obj
 0001:00038410       __invoke_watson_if_oneof   10039410 f i libucrt:strerror.obj
 0001:0003843d       __wcserror                 1003943d f   libucrt:strerror.obj
 0001:00038448       __wcserror_s               10039448 f   libucrt:strerror.obj
 0001:000384b4       _strerror                  100394b4 f   libucrt:strerror.obj
 0001:000384bf       _strerror_s                100394bf f   libucrt:strerror.obj
 0001:00038d19       __isleadbyte_fast_internal 10039d19 f i libucrt:write.obj
 0001:00038d37       __write                    10039d37 f   libucrt:write.obj
 0001:00038d6e       __write_internal           10039d6e f   libucrt:write.obj
 0001:00038e7f       __write_nolock             10039e7f f   libucrt:write.obj
 0001:000397bb       ?ctrl_z@__crt_stdio_stream@@QBE_NXZ 1003a7bb f i libucrt:ftell.obj
 0001:000397c7       ?has_all_of@__crt_stdio_stream@@QBE_NJ@Z 1003a7c7 f i libucrt:ftell.obj
 0001:000397df       ?has_any_of@__crt_stdio_stream@@QBE_NJ@Z 1003a7df f i libucrt:ftell.obj
 0001:000397f4       ?has_big_buffer@__crt_stdio_stream@@QBE_NXZ 1003a7f4 f i libucrt:ftell.obj
 0001:00039800       ?has_crt_buffer@__crt_stdio_stream@@QBE_NXZ 1003a800 f i libucrt:ftell.obj
 0001:0003980c       ?has_setvbuf_buffer@__crt_stdio_stream@@QBE_NXZ 1003a80c f i libucrt:ftell.obj
 0001:00039818       __ftell_nolock             1003a818 f   libucrt:ftell.obj
 0001:00039848       __ftelli64                 1003a848 f   libucrt:ftell.obj
 0001:0003987e       __ftelli64_nolock          1003a87e f   libucrt:ftell.obj
 0001:000398b4       __ftelli64_nolock_internal 1003a8b4 f   libucrt:ftell.obj
 0001:000398bf       _ftell                     1003a8bf f   libucrt:ftell.obj
 0001:000398ef       ?eof@__crt_stdio_stream@@QBE_NXZ 1003a8ef f i libucrt:feoferr.obj
 0001:000398fb       ?error@__crt_stdio_stream@@QBE_NXZ 1003a8fb f i libucrt:feoferr.obj
 0001:00039907       _feof                      1003a907 f   libucrt:feoferr.obj
 0001:00039933       _ferror                    1003a933 f   libucrt:feoferr.obj
 0001:00039b5a       ??$open_file@ABQBDABQBDABHPAU_iobuf@@@?$__crt_char_traits@D@@SAPAU_iobuf@@ABQBD0ABH$$QAPAU1@@Z 1003ab5a f i libucrt:fopen.obj
 0001:00039b7d       ??$open_file@ABQB_WABQB_WABHPAU_iobuf@@@?$__crt_char_traits@_W@@SAPAU_iobuf@@ABQB_W0ABH$$QAPAU1@@Z 1003ab7d f i libucrt:fopen.obj
 0001:00039ba0       ?unlock@__crt_stdio_stream@@QBEXXZ 1003aba0 f i libucrt:fopen.obj
 0001:00039ba9       __fsopen                   1003aba9 f   libucrt:fopen.obj
 0001:00039bb4       __wfopen                   1003abb4 f   libucrt:fopen.obj
 0001:00039bcb       __wfopen_s                 1003abcb f   libucrt:fopen.obj
 0001:00039c12       __wfsopen                  1003ac12 f   libucrt:fopen.obj
 0001:00039c1d       _fopen                     1003ac1d f   libucrt:fopen.obj
 0001:00039c34       _fopen_s                   1003ac34 f   libucrt:fopen.obj
 0001:00039da0       ?is_in_use@__crt_stdio_stream@@QBE_NXZ 1003ada0 f i libucrt:fclose.obj
 0001:00039dac       __fclose_nolock            1003adac f   libucrt:fclose.obj
 0001:00039ddc       _fclose                    1003addc f   libucrt:fclose.obj
 0001:00039e0c       ?LongLongSub@@YAJ_J0PA_J@Z 1003ae0c f i libucrt:fseek.obj
 0001:00039e86       ?__acrt_stdio_reset_buffer@@YAXV__crt_stdio_stream@@@Z 1003ae86 f i libucrt:fseek.obj
 0001:0003a10b       ?has_any_buffer@__crt_stdio_stream@@QBE_NXZ 1003b10b f i libucrt:fseek.obj
 0001:0003a11a       ?lowio_handle@__crt_stdio_stream@@QBEHXZ 1003b11a f i libucrt:fseek.obj
 0001:0003a121       ?unset_flags@__crt_stdio_stream@@QBE_NJ@Z 1003b121 f i libucrt:fseek.obj
 0001:0003a14a       __fseek_nolock             1003b14a f   libucrt:fseek.obj
 0001:0003a184       __fseeki64                 1003b184 f   libucrt:fseek.obj
 0001:0003a1be       __fseeki64_nolock          1003b1be f   libucrt:fseek.obj
 0001:0003a1f8       _fseek                     1003b1f8 f   libucrt:fseek.obj
 0001:0003a35d       ?set_flags@__crt_stdio_stream@@QBE_NJ@Z 1003b35d f i libucrt:fwrite.obj
 0001:0003a381       __fwrite_internal          1003b381 f   libucrt:fwrite.obj
 0001:0003a3f8       __fwrite_nolock            1003b3f8 f   libucrt:fwrite.obj
 0001:0003a432       __fwrite_nolock_internal   1003b432 f   libucrt:fwrite.obj
 0001:0003a5d9       _fwrite                    1003b5d9 f   libucrt:fwrite.obj
 0001:0003a613       __fread_nolock             1003b613 f   libucrt:fread.obj
 0001:0003a630       __fread_nolock_s           1003b630 f   libucrt:fread.obj
 0001:0003a809       _fread                     1003b809 f   libucrt:fread.obj
 0001:0003a826       _fread_s                   1003b826 f   libucrt:fread.obj
 0001:0003a944       _rand                      1003b944 f   libucrt:rand.obj
 0001:0003a965       _srand                     1003b965 f   libucrt:rand.obj
 0001:0003ac86       __time32                   1003bc86 f   libucrt:time.obj
 0001:0003ace5       __time64                   1003bce5 f   libucrt:time.obj
 0001:0003ad4d       __timespec32_get           1003bd4d f   libucrt:time.obj
 0001:0003ad58       __timespec64_get           1003bd58 f   libucrt:time.obj
 0001:0003ad63       __initterm                 1003bd63 f   libucrt:initterm.obj
 0001:0003ad8e       __initterm_e               1003bd8e f   libucrt:initterm.obj
 0001:0003ade0       __seh_filter_dll           1003bde0 f   libucrt:exception_filter.obj
 0001:0003ae00       __seh_filter_exe           1003be00 f   libucrt:exception_filter.obj
 0001:0003af46       ??$?B$$A6GXPAXK0@Z@__crt_fast_encoded_nullptr_t@@QBEP6GXPAXK0@ZXZ 1003bf46 f i libucrt:exit.obj
 0001:0003afee       ??$__crt_fast_decode_pointer@P6GXPAXK0@Z@@YAP6GXPAXK0@ZQ6GX0K0@Z@Z 1003bfee f i libucrt:exit.obj
 0001:0003b009       ??$__crt_fast_encode_pointer@P6GXPAXK0@Z@@YAP6GXPAXK0@ZQ6GX0K0@Z@Z 1003c009 f i libucrt:exit.obj
 0001:0003b028       ??$__crt_get_proc_address@P6GXI@Z@@YAP6GXI@ZQAUHINSTANCE__@@QBD@Z 1003c028 f i libucrt:exit.obj
 0001:0003b07b       ??0?$__crt_unique_handle_t@U__crt_hmodule_traits@@@@QAE@QAUHINSTANCE__@@@Z 1003c07b f i libucrt:exit.obj
 0001:0003b08b       ??1?$__crt_unique_handle_t@U__crt_hmodule_traits@@@@QAE@XZ 1003c08b f i libucrt:exit.obj
 0001:0003b19c       ?__acrt_select_exit_lock@@YA?AW4__acrt_lock_id@@XZ 1003c19c f i libucrt:exit.obj
 0001:0003b1a0       ?__crt_fast_encode_pointer@@YA?AU__crt_fast_encoded_nullptr_t@@$$T@Z 1003c1a0 f i libucrt:exit.obj
 0001:0003b1ab       ?__crt_rotate_pointer_value@@YAIIH@Z 1003c1ab f i libucrt:exit.obj
 0001:0003b1cd       ?close@?$__crt_unique_handle_t@U__crt_hmodule_traits@@@@QAEXXZ 1003c1cd f i libucrt:exit.obj
 0001:0003b1e4       ?close@__crt_hmodule_traits@@SA_NPAUHINSTANCE__@@@Z 1003c1e4 f i libucrt:exit.obj
 0001:0003b2c1       ?get@?$__crt_unique_handle_t@U__crt_hmodule_traits@@@@QBEPAUHINSTANCE__@@XZ 1003c2c1 f i libucrt:exit.obj
 0001:0003b2c4       ?get_address_of@?$__crt_unique_handle_t@U__crt_hmodule_traits@@@@QAEPAPAUHINSTANCE__@@XZ 1003c2c4 f i libucrt:exit.obj
 0001:0003b2c7       ?get_invalid_value@__crt_hmodule_traits@@SAPAUHINSTANCE__@@XZ 1003c2c7 f i libucrt:exit.obj
 0001:0003b3a7       __Exit                     1003c3a7 f   libucrt:exit.obj
 0001:0003b3bd       ___acrt_initialize_thread_local_exit_callback 1003c3bd f   libucrt:exit.obj
 0001:0003b3cc       __c_exit                   1003c3cc f   libucrt:exit.obj
 0001:0003b3db       __cexit                    1003c3db f   libucrt:exit.obj
 0001:0003b3ea       __exit                     1003c3ea f   libucrt:exit.obj
 0001:0003b400       __is_c_termination_complete 1003c400 f   libucrt:exit.obj
 0001:0003b407       __register_thread_local_exe_atexit_callback 1003c407 f   libucrt:exit.obj
 0001:0003b42d       _exit                      1003c42d f   libucrt:exit.obj
 0001:0003b443       _quick_exit                1003c443 f   libucrt:exit.obj
 0001:0003b459       ??$?RE@__crt_internal_free_policy@@QBEXQBE@Z 1003c459 f i libucrt:argv_parsing.obj
 0001:0003b46b       ??$?RPAD@__crt_internal_free_policy@@QBEXQBQAD@Z 1003c46b f i libucrt:argv_parsing.obj
 0001:0003b47d       ??$?RPA_W@__crt_internal_free_policy@@QBEXQBQA_W@Z 1003c47d f i libucrt:argv_parsing.obj
 0001:0003b702       ??$get_module_file_name@$$TAAY0BAF@DH@?$__crt_char_traits@D@@SAK$$QA$$TAAY0BAF@D$$QAH@Z 1003c702 f i libucrt:argv_parsing.obj
 0001:0003b71e       ??$get_module_file_name@$$TAAY0BAF@_WH@?$__crt_char_traits@_W@@SAK$$QA$$TAAY0BAF@_W$$QAH@Z 1003c71e f i libucrt:argv_parsing.obj
 0001:0003ba4d       ??$set_program_name@PAD@?$__crt_char_traits@D@@SAX$$QAPAD@Z 1003ca4d f i libucrt:argv_parsing.obj
 0001:0003ba5e       ??$set_program_name@PA_W@?$__crt_char_traits@_W@@SAX$$QAPA_W@Z 1003ca5e f i libucrt:argv_parsing.obj
 0001:0003ba8f       ??0?$__crt_unique_heap_ptr@EU__crt_internal_free_policy@@@@QAE@QAE@Z 1003ca8f f i libucrt:argv_parsing.obj
 0001:0003ba9f       ??0?$__crt_unique_heap_ptr@PADU__crt_internal_free_policy@@@@QAE@QAPAD@Z 1003ca9f f i libucrt:argv_parsing.obj
 0001:0003baaf       ??0?$__crt_unique_heap_ptr@PA_WU__crt_internal_free_policy@@@@QAE@QAPA_W@Z 1003caaf f i libucrt:argv_parsing.obj
 0001:0003babf       ??1?$__crt_unique_heap_ptr@EU__crt_internal_free_policy@@@@QAE@XZ 1003cabf f i libucrt:argv_parsing.obj
 0001:0003bad1       ??1?$__crt_unique_heap_ptr@PADU__crt_internal_free_policy@@@@QAE@XZ 1003cad1 f i libucrt:argv_parsing.obj
 0001:0003bae3       ??1?$__crt_unique_heap_ptr@PA_WU__crt_internal_free_policy@@@@QAE@XZ 1003cae3 f i libucrt:argv_parsing.obj
 0001:0003baf5       ??B?$__crt_unique_heap_ptr@EU__crt_internal_free_policy@@@@QBE_NXZ 1003caf5 f i libucrt:argv_parsing.obj
 0001:0003bb28       ?detach@?$__crt_unique_heap_ptr@EU__crt_internal_free_policy@@@@QAEPAEXZ 1003cb28 f i libucrt:argv_parsing.obj
 0001:0003bb2e       ?detach@?$__crt_unique_heap_ptr@PADU__crt_internal_free_policy@@@@QAEPAPADXZ 1003cb2e f i libucrt:argv_parsing.obj
 0001:0003bb34       ?detach@?$__crt_unique_heap_ptr@PA_WU__crt_internal_free_policy@@@@QAEPAPA_WXZ 1003cb34 f i libucrt:argv_parsing.obj
 0001:0003bb58       ?get@?$__crt_unique_heap_ptr@EU__crt_internal_free_policy@@@@QBEPAEXZ 1003cb58 f i libucrt:argv_parsing.obj
 0001:0003bb5b       ?get@?$__crt_unique_heap_ptr@PADU__crt_internal_free_policy@@@@QBEPAPADXZ 1003cb5b f i libucrt:argv_parsing.obj
 0001:0003bb5e       ?get@?$__crt_unique_heap_ptr@PA_WU__crt_internal_free_policy@@@@QBEPAPA_WXZ 1003cb5e f i libucrt:argv_parsing.obj
 0001:0003bb61       ?get_address_of@?$__crt_unique_heap_ptr@PADU__crt_internal_free_policy@@@@QAEPAPAPADXZ 1003cb61 f i libucrt:argv_parsing.obj
 0001:0003bb64       ?get_address_of@?$__crt_unique_heap_ptr@PA_WU__crt_internal_free_policy@@@@QAEPAPAPA_WXZ 1003cb64 f i libucrt:argv_parsing.obj
 0001:0003bb7f       ?is_valid@?$__crt_unique_heap_ptr@EU__crt_internal_free_policy@@@@QBE_NXZ 1003cb7f f i libucrt:argv_parsing.obj
 0001:0003bb86       ?release@?$__crt_unique_heap_ptr@EU__crt_internal_free_policy@@@@QAEXXZ 1003cb86 f i libucrt:argv_parsing.obj
 0001:0003bb98       ?release@?$__crt_unique_heap_ptr@PADU__crt_internal_free_policy@@@@QAEXXZ 1003cb98 f i libucrt:argv_parsing.obj
 0001:0003bbaa       ?release@?$__crt_unique_heap_ptr@PA_WU__crt_internal_free_policy@@@@QAEXXZ 1003cbaa f i libucrt:argv_parsing.obj
 0001:0003bbd6       ___acrt_allocate_buffer_for_argv 1003cbd6 f   libucrt:argv_parsing.obj
 0001:0003bc25       __configure_narrow_argv    1003cc25 f   libucrt:argv_parsing.obj
 0001:0003bc30       __configure_wide_argv      1003cc30 f   libucrt:argv_parsing.obj
 0001:0003bc3b       __set_pgmptr               1003cc3b f i libucrt:argv_parsing.obj
 0001:0003bc4a       __set_wpgmptr              1003cc4a f i libucrt:argv_parsing.obj
 0001:0003c063       ??$get_environment_from_os@$$V@?$__crt_char_traits@D@@SAPADXZ 1003d063 f i libucrt:environment_initialization.obj
 0001:0003c068       ??$get_environment_from_os@$$V@?$__crt_char_traits@_W@@SAPA_WXZ 1003d068 f i libucrt:environment_initialization.obj
 0001:0003c171       ??$set_variable_in_environment_nolock@PADH@?$__crt_char_traits@D@@SAH$$QAPAD$$QAH@Z 1003d171 f i libucrt:environment_initialization.obj
 0001:0003c189       ??$set_variable_in_environment_nolock@PA_WH@?$__crt_char_traits@_W@@SAH$$QAPA_W$$QAH@Z 1003d189 f i libucrt:environment_initialization.obj
 0001:0003c1a1       ??$tcscpy_s@PADABIAAPAD@?$__crt_char_traits@D@@SAH$$QAPADABIAAPAD@Z 1003d1a1 f i libucrt:environment_initialization.obj
 0001:0003c1bf       ??$tcscpy_s@PA_WABIAAPA_W@?$__crt_char_traits@_W@@SAH$$QAPA_WABIAAPA_W@Z 1003d1bf f i libucrt:environment_initialization.obj
 0001:0003c1dd       ??$tcslen@AAPAD@?$__crt_char_traits@D@@SAIAAPAD@Z 1003d1dd f i libucrt:environment_initialization.obj
 0001:0003c1f5       ??$tcslen@AAPA_W@?$__crt_char_traits@_W@@SAIAAPA_W@Z 1003d1f5 f i libucrt:environment_initialization.obj
 0001:0003c213       ??$uninitialize@A6AXAAPAPAD@_E@?$dual_state_global@PAPAD@__crt_state_management@@QAEXA6AXAAPAPAD@_E@Z 1003d213 f i libucrt:environment_initialization.obj
 0001:0003c26b       ??$uninitialize@A6AXAAPAPA_W@_E@?$dual_state_global@PAPA_W@__crt_state_management@@QAEXA6AXAAPAPA_W@_E@Z 1003d26b f i libucrt:environment_initialization.obj
 0001:0003c2f9       ??B?$__crt_unique_heap_ptr@PADU__crt_internal_free_policy@@@@QBE_NXZ 1003d2f9 f i libucrt:environment_initialization.obj
 0001:0003c300       ??B?$__crt_unique_heap_ptr@PA_WU__crt_internal_free_policy@@@@QBE_NXZ 1003d300 f i libucrt:environment_initialization.obj
 0001:0003c307       ??B?$__crt_unique_heap_ptr@_WU__crt_internal_free_policy@@@@QBE_NXZ 1003d307 f i libucrt:environment_initialization.obj
 0001:0003c30e       ?__crt_compute_required_transform_buffer_count@@YAIIQBD@Z 1003d30e f i libucrt:environment_initialization.obj
 0001:0003c32a       ?__crt_compute_required_transform_buffer_count@@YAIIQB_W@Z 1003d32a f i libucrt:environment_initialization.obj
 0001:0003c348       ?__crt_transform_string@@YAIIQBDQA_WI@Z 1003d348 f i libucrt:environment_initialization.obj
 0001:0003c367       ?__crt_transform_string@@YAIIQB_WQADI@Z 1003d367 f i libucrt:environment_initialization.obj
 0001:0003c389       ?get@?$__crt_unique_heap_ptr@_WU__crt_internal_free_policy@@@@QBEPA_WXZ 1003d389 f i libucrt:environment_initialization.obj
 0001:0003c38c       ?get_current_state_index@__crt_state_management@@YAIXZ 1003d38c f i libucrt:environment_initialization.obj
 0001:0003c3b3       ?initialize@?$dual_state_global@PAPAD@__crt_state_management@@QAEXQAPAD@Z 1003d3b3 f i libucrt:environment_initialization.obj
 0001:0003c3cf       ?initialize@?$dual_state_global@PAPA_W@__crt_state_management@@QAEXQAPA_W@Z 1003d3cf f i libucrt:environment_initialization.obj
 0001:0003c3eb       ?is_valid@?$__crt_unique_heap_ptr@PADU__crt_internal_free_policy@@@@QBE_NXZ 1003d3eb f i libucrt:environment_initialization.obj
 0001:0003c3f2       ?is_valid@?$__crt_unique_heap_ptr@PA_WU__crt_internal_free_policy@@@@QBE_NXZ 1003d3f2 f i libucrt:environment_initialization.obj
 0001:0003c3f9       ?is_valid@?$__crt_unique_heap_ptr@_WU__crt_internal_free_policy@@@@QBE_NXZ 1003d3f9 f i libucrt:environment_initialization.obj
 0001:0003c408       ?value@?$dual_state_global@PAPAD@__crt_state_management@@QAEAAPAPADXZ 1003d408 f i libucrt:environment_initialization.obj
 0001:0003c40b       ?value@?$dual_state_global@PAPA_W@__crt_state_management@@QAEAAPAPA_WXZ 1003d40b f i libucrt:environment_initialization.obj
 0001:0003c40e       ___dcrt_get_or_create_narrow_environment_nolock 1003d40e f   libucrt:environment_initialization.obj
 0001:0003c413       ___dcrt_get_or_create_wide_environment_nolock 1003d413 f   libucrt:environment_initialization.obj
 0001:0003c418       ___dcrt_uninitialize_environments_nolock 1003d418 f   libucrt:environment_initialization.obj
 0001:0003c469       ___p__environ              1003d469 f   libucrt:environment_initialization.obj
 0001:0003c46f       ___p__wenviron             1003d46f f   libucrt:environment_initialization.obj
 0001:0003c475       __get_initial_narrow_environment 1003d475 f   libucrt:environment_initialization.obj
 0001:0003c489       __get_initial_wide_environment 1003d489 f   libucrt:environment_initialization.obj
 0001:0003c49d       __initialize_narrow_environment 1003d49d f   libucrt:environment_initialization.obj
 0001:0003c4a2       __initialize_wide_environment 1003d4a2 f   libucrt:environment_initialization.obj
 0001:0003c4a7       ??$?B$$A6AXXZ@__crt_fast_encoded_nullptr_t@@QBEP6AXXZXZ 1003d4a7 f i libucrt:onexit.obj
 0001:0003c4ad       ??$?BP6AXXZ@__crt_fast_encoded_nullptr_t@@QBEPAP6AXXZXZ 1003d4ad f i libucrt:onexit.obj
 0001:0003c4b3       ??$?RP6AXXZ@__crt_internal_free_policy@@QBEXQBQ6AXXZ@Z 1003d4b3 f i libucrt:onexit.obj
 0001:0003c5f6       ??$__crt_fast_decode_pointer@P6AXXZ@@YAP6AXXZQ6AXXZ@Z 1003d5f6 f i libucrt:onexit.obj
 0001:0003c611       ??$__crt_fast_decode_pointer@PAP6AXXZ@@YAPAP6AXXZQAP6AXXZ@Z 1003d611 f i libucrt:onexit.obj
 0001:0003c62c       ??$__crt_fast_encode_pointer@P6AHXZ@@YAP6AHXZQ6AHXZ@Z 1003d62c f i libucrt:onexit.obj
 0001:0003c64b       ??$__crt_fast_encode_pointer@P6AXXZ@@YAP6AXXZQ6AXXZ@Z 1003d64b f i libucrt:onexit.obj
 0001:0003c66a       ??$__crt_fast_encode_pointer@PAP6AXXZ@@YAPAP6AXXZQAP6AXXZ@Z 1003d66a f i libucrt:onexit.obj
 0001:0003c6f7       ??0?$__crt_unique_heap_ptr@P6AXXZU__crt_internal_free_policy@@@@QAE@QAP6AXXZ@Z 1003d6f7 f i libucrt:onexit.obj
 0001:0003c707       ??1?$__crt_unique_heap_ptr@P6AXXZU__crt_internal_free_policy@@@@QAE@XZ 1003d707 f i libucrt:onexit.obj
 0001:0003c719       ??1scoped_global_state_reset@__crt_state_management@@QAE@XZ 1003d719 f i libucrt:onexit.obj
 0001:0003c91c       ?detach@?$__crt_unique_heap_ptr@P6AXXZU__crt_internal_free_policy@@@@QAEPAP6AXXZXZ 1003d91c f i libucrt:onexit.obj
 0001:0003c922       ?release@?$__crt_unique_heap_ptr@P6AXXZU__crt_internal_free_policy@@@@QAEXXZ 1003d922 f i libucrt:onexit.obj
 0001:0003c934       __crt_at_quick_exit        1003d934 f   libucrt:onexit.obj
 0001:0003c94a       __crt_atexit               1003d94a f   libucrt:onexit.obj
 0001:0003c960       __execute_onexit_table     1003d960 f   libucrt:onexit.obj
 0001:0003c99e       __initialize_onexit_table  1003d99e f   libucrt:onexit.obj
 0001:0003c9c7       __register_onexit_function 1003d9c7 f   libucrt:onexit.obj
 0001:0003cad6       ??$?BX@__crt_fast_encoded_nullptr_t@@QBEPAXXZ 1003dad6 f i libucrt:initialization.obj
 0001:0003cadc       ??$__crt_fast_encode_pointer@PAX@@YAPAXQAX@Z 1003dadc f i libucrt:initialization.obj
 0001:0003cb4d       ?__acrt_stdio_is_initialized@@YA_NXZ 1003db4d f i libucrt:initialization.obj
 0001:0003cb58       ?initialize@?$dual_state_global@PAU__crt_locale_data@@@__crt_state_management@@QAEXQAU__crt_locale_data@@@Z 1003db58 f i libucrt:initialization.obj
 0001:0003cb74       ___acrt_initialize         1003db74 f   libucrt:initialization.obj
 0001:0003cb86       ___acrt_thread_attach      1003db86 f   libucrt:initialization.obj
 0001:0003cb91       ___acrt_thread_detach      1003db91 f   libucrt:initialization.obj
 0001:0003cb99       ___acrt_uninitialize       1003db99 f   libucrt:initialization.obj
 0001:0003cbc9       ___acrt_uninitialize_critical 1003dbc9 f   libucrt:initialization.obj
 0001:0003cbf1       __get_terminate            1003dbf1 f   libucrt:terminate.obj
 0001:0003cc03       _set_terminate             1003dc03 f   libucrt:terminate.obj
 0001:0003cc23       _terminate                 1003dc23 f   libucrt:terminate.obj
 0001:0003ccb9       _strcpy_s                  1003dcb9 f   libucrt:strcpy_s.obj
 0001:0003cd13       __set_abort_behavior       1003dd13 f   libucrt:abort.obj
 0001:0003cd34       _abort                     1003dd34 f   libucrt:abort.obj
 0001:0003cd78       ??$is_overflow_condition@_K@__crt_strtox@@YA_NI_K@Z 1003dd78 f i libucrt:atox.obj
 0001:0003cdb9       ??$make_c_string_character_source@D$$T@__crt_strtox@@YA?AV?$c_string_character_source@D@0@QBD$$T@Z 1003ddb9 f i libucrt:atox.obj
 0001:0003cdd4       ??$make_c_string_character_source@_W$$T@__crt_strtox@@YA?AV?$c_string_character_source@_W@0@QB_W$$T@Z 1003ddd4 f i libucrt:atox.obj
 0001:0003cdef       ??$parse_integer@KV?$c_string_character_source@D@__crt_strtox@@$00@__crt_strtox@@YAKAAV__crt_cached_ptd_host@@V?$c_string_character_source@D@0@H_N@Z 1003ddef f i libucrt:atox.obj
 0001:0003d036       ??$parse_integer@KV?$c_string_character_source@_W@__crt_strtox@@$00@__crt_strtox@@YAKAAV__crt_cached_ptd_host@@V?$c_string_character_source@_W@0@H_N@Z 1003e036 f i libucrt:atox.obj
 0001:0003d644       ??$parse_integer@_KV?$c_string_character_source@D@__crt_strtox@@$00@__crt_strtox@@YA_KAAV__crt_cached_ptd_host@@V?$c_string_character_source@D@0@H_N@Z 1003e644 f i libucrt:atox.obj
 0001:0003d90c       ??$parse_integer@_KV?$c_string_character_source@_W@__crt_strtox@@$00@__crt_strtox@@YA_KAAV__crt_cached_ptd_host@@V?$c_string_character_source@_W@0@H_N@Z 1003e90c f i libucrt:atox.obj
 0001:0003df92       ??$parse_integer_from_string@JD$$T@__crt_strtox@@YAJQBD$$THQAU__crt_locale_pointers@@@Z 1003ef92 f i libucrt:atox.obj
 0001:0003dfd9       ??$parse_integer_from_string@J_W$$T@__crt_strtox@@YAJQB_W$$THQAU__crt_locale_pointers@@@Z 1003efd9 f i libucrt:atox.obj
 0001:0003e020       ??$parse_integer_from_string@_JD$$T@__crt_strtox@@YA_JQBD$$THQAU__crt_locale_pointers@@@Z 1003f020 f i libucrt:atox.obj
 0001:0003e06d       ??$parse_integer_from_string@_J_W$$T@__crt_strtox@@YA_JQB_W$$THQAU__crt_locale_pointers@@@Z 1003f06d f i libucrt:atox.obj
 0001:0003e0ba       ?is_space@__crt_strtox@@YA_NDQAU__crt_locale_pointers@@@Z 1003f0ba f i libucrt:atox.obj
 0001:0003e0d8       ?is_space@__crt_strtox@@YA_N_WPAU__crt_locale_pointers@@@Z 1003f0d8 f i libucrt:atox.obj
 0001:0003e0f0       ?maximum_signed_value@__crt_strtox@@YA_J_K@Z 1003f0f0 f i libucrt:atox.obj
 0001:0003e0f9       ?minimum_signed_value@__crt_strtox@@YA_J_K@Z 1003f0f9 f i libucrt:atox.obj
 0001:0003e101       ___acrt_get_locale_data_prefix 1003f101 f i libucrt:atox.obj
 0001:0003e10d       __atoi64                   1003f10d f   libucrt:atox.obj
 0001:0003e152       __atoi64_l                 1003f152 f   libucrt:atox.obj
 0001:0003e198       __atoi_l                   1003f198 f   libucrt:atox.obj
 0001:0003e1d8       __atol_l                   1003f1d8 f   libucrt:atox.obj
 0001:0003e218       __atoll_l                  1003f218 f   libucrt:atox.obj
 0001:0003e25e       __chvalidchk_l             1003f25e f i libucrt:atox.obj
 0001:0003e286       __ischartype_l             1003f286 f i libucrt:atox.obj
 0001:0003e2dd       __wtoi                     1003f2dd f   libucrt:atox.obj
 0001:0003e31c       __wtoi64                   1003f31c f   libucrt:atox.obj
 0001:0003e361       __wtoi64_l                 1003f361 f   libucrt:atox.obj
 0001:0003e3a7       __wtoi_l                   1003f3a7 f   libucrt:atox.obj
 0001:0003e3e7       __wtol                     1003f3e7 f   libucrt:atox.obj
 0001:0003e426       __wtol_l                   1003f426 f   libucrt:atox.obj
 0001:0003e466       __wtoll                    1003f466 f   libucrt:atox.obj
 0001:0003e4ab       __wtoll_l                  1003f4ab f   libucrt:atox.obj
 0001:0003e4f1       _atoi                      1003f4f1 f   libucrt:atox.obj
 0001:0003e530       _atol                      1003f530 f   libucrt:atox.obj
 0001:0003e56f       _atoll                     1003f56f f   libucrt:atox.obj
 0001:0003e5c0       _strncmp                   1003f5c0 f   libucrt:strncmp.obj
 0001:0003e638       _calloc                    1003f638 f   libucrt:calloc.obj
 0001:0003e643       _wcsncmp                   1003f643 f   libucrt:wcsncmp.obj
 0001:0003e67d       ??$?RU__crt_lowio_handle_data@@@__crt_internal_free_policy@@QBEXQBU__crt_lowio_handle_data@@@Z 1003f67d f i libucrt:osfinfo.obj
 0001:0003e68f       ??0?$__crt_unique_heap_ptr@U__crt_lowio_handle_data@@U__crt_internal_free_policy@@@@QAE@QAU__crt_lowio_handle_data@@@Z 1003f68f f i libucrt:osfinfo.obj
 0001:0003e69f       ??1?$__crt_unique_heap_ptr@U__crt_lowio_handle_data@@U__crt_internal_free_policy@@@@QAE@XZ 1003f69f f i libucrt:osfinfo.obj
 0001:0003e6b1       ??B?$__crt_unique_heap_ptr@U__crt_lowio_handle_data@@U__crt_internal_free_policy@@@@QBE_NXZ 1003f6b1 f i libucrt:osfinfo.obj
 0001:0003e6b8       ?detach@?$__crt_unique_heap_ptr@U__crt_lowio_handle_data@@U__crt_internal_free_policy@@@@QAEPAU__crt_lowio_handle_data@@XZ 1003f6b8 f i libucrt:osfinfo.obj
 0001:0003e6be       ?get@?$__crt_unique_heap_ptr@U__crt_lowio_handle_data@@U__crt_internal_free_policy@@@@QBEPAU__crt_lowio_handle_data@@XZ 1003f6be f i libucrt:osfinfo.obj
 0001:0003e6c1       ?is_valid@?$__crt_unique_heap_ptr@U__crt_lowio_handle_data@@U__crt_internal_free_policy@@@@QBE_NXZ 1003f6c1 f i libucrt:osfinfo.obj
 0001:0003e6c8       ?release@?$__crt_unique_heap_ptr@U__crt_lowio_handle_data@@U__crt_internal_free_policy@@@@QAEXXZ 1003f6c8 f i libucrt:osfinfo.obj
 0001:0003e6da       ___acrt_lowio_create_handle_array 1003f6da f   libucrt:osfinfo.obj
 0001:0003e755       ___acrt_lowio_destroy_handle_array 1003f755 f   libucrt:osfinfo.obj
 0001:0003e78a       ___acrt_lowio_ensure_fh_exists 1003f78a f   libucrt:osfinfo.obj
 0001:0003e828       ___acrt_lowio_lock_fh      1003f828 f   libucrt:osfinfo.obj
 0001:0003e84b       ___acrt_lowio_set_os_handle 1003f84b f   libucrt:osfinfo.obj
 0001:0003e8dd       ___acrt_lowio_unlock_fh    1003f8dd f   libucrt:osfinfo.obj
 0001:0003e900       __alloc_osfhnd             1003f900 f   libucrt:osfinfo.obj
 0001:0003ea13       __free_osfhnd              1003fa13 f   libucrt:osfinfo.obj
 0001:0003eaa4       __get_osfhandle            1003faa4 f   libucrt:osfinfo.obj
 0001:0003eb0e       __open_osfhandle           1003fb0e f   libucrt:osfinfo.obj
 0001:0003ec3e       ??$__crt_fast_decode_pointer@P6AXPB_W00II@Z@@YAP6AXPB_W00II@ZQ6AX000II@Z@Z 1003fc3e f i libucrt:invalid_parameter.obj
 0001:0003ec59       ??$__crt_fast_encode_pointer@P6AXPB_W00II@Z@@YAP6AXPB_W00II@ZQ6AX000II@Z@Z 1003fc59 f i libucrt:invalid_parameter.obj
 0001:0003ec78       ??$initialize_from_array@$$BY00Q6AXPB_W00II@Z@?$dual_state_global@P6AXPB_W00II@Z@__crt_state_management@@QAAXAAY00Q6AXPB_W00II@Z@Z 1003fc78 f i libucrt:invalid_parameter.obj
 0001:0003ec89       ?check_synchronize_global_state_index@__crt_cached_ptd_host@@AAEIXZ 1003fc89 f i libucrt:invalid_parameter.obj
 0001:0003ecb2       ?dangerous_get_state_array@?$dual_state_global@P6AXPB_W00II@Z@__crt_state_management@@QAEPAP6AXPB_W00II@ZXZ 1003fcb2 f i libucrt:invalid_parameter.obj
 0001:0003ecb5       ?get_current_global_state_index@__crt_cached_ptd_host@@QAEIXZ 1003fcb5 f i libucrt:invalid_parameter.obj
 0001:0003ecba       ?get_raw_ptd_noexit@__crt_cached_ptd_host@@QAEPAU__acrt_ptd@@XZ 1003fcba f i libucrt:invalid_parameter.obj
 0001:0003ecc5       ?try_synchronize_per_thread_data@__crt_cached_ptd_host@@AAEPAU__acrt_ptd@@XZ 1003fcc5 f i libucrt:invalid_parameter.obj
 0001:0003ecd0       ?value@?$dual_state_global@P6AXPB_W00II@Z@__crt_state_management@@QAEAAP6AXPB_W00II@ZAAV__crt_cached_ptd_host@@@Z 1003fcd0 f i libucrt:invalid_parameter.obj
 0001:0003ece8       ?value@?$dual_state_global@P6AXPB_W00II@Z@__crt_state_management@@QAEAAP6AXPB_W00II@ZXZ 1003fce8 f i libucrt:invalid_parameter.obj
 0001:0003eceb       ___acrt_call_reportfault   1003fceb f   libucrt:invalid_parameter.obj
 0001:0003ee24       ___acrt_initialize_invalid_parameter_handler 1003fe24 f   libucrt:invalid_parameter.obj
 0001:0003ee33       __get_invalid_parameter_handler 1003fe33 f   libucrt:invalid_parameter.obj
 0001:0003ee4a       __get_thread_local_invalid_parameter_handler 1003fe4a f   libucrt:invalid_parameter.obj
 0001:0003ee5b       __invalid_parameter        1003fe5b f   libucrt:invalid_parameter.obj
 0001:0003ee92       __invalid_parameter_internal 1003fe92 f   libucrt:invalid_parameter.obj
 0001:0003ef0f       __invalid_parameter_noinfo 1003ff0f f   libucrt:invalid_parameter.obj
 0001:0003ef1f       __invalid_parameter_noinfo_noreturn 1003ff1f f   libucrt:invalid_parameter.obj
 0001:0003ef3c       __invoke_watson            1003ff3c f   libucrt:invalid_parameter.obj
 0001:0003ef70       __set_invalid_parameter_handler 1003ff70 f   libucrt:invalid_parameter.obj
 0001:0003efa0       __set_thread_local_invalid_parameter_handler 1003ffa0 f   libucrt:invalid_parameter.obj
 0001:0003efbd       ??$?RU__acrt_ptd@@@__crt_internal_free_policy@@QBEXQBU__acrt_ptd@@@Z 1003ffbd f i libucrt:per_thread_data.obj
 0001:0003f2a9       ??0?$__crt_unique_heap_ptr@U__acrt_ptd@@U__crt_internal_free_policy@@@@QAE@QAU__acrt_ptd@@@Z 100402a9 f i libucrt:per_thread_data.obj
 0001:0003f2b9       ??1?$__crt_unique_heap_ptr@U__acrt_ptd@@U__crt_internal_free_policy@@@@QAE@XZ 100402b9 f i libucrt:per_thread_data.obj
 0001:0003f2cb       ??B?$__crt_unique_heap_ptr@U__acrt_ptd@@U__crt_internal_free_policy@@@@QBE_NXZ 100402cb f i libucrt:per_thread_data.obj
 0001:0003f419       ?dangerous_get_state_array@?$dual_state_global@PAU__crt_locale_data@@@__crt_state_management@@QAEPAPAU__crt_locale_data@@XZ 10040419 f i libucrt:per_thread_data.obj
 0001:0003f50f       ?detach@?$__crt_unique_heap_ptr@U__acrt_ptd@@U__crt_internal_free_policy@@@@QAEPAU__acrt_ptd@@XZ 1004050f f i libucrt:per_thread_data.obj
 0001:0003f515       ?get@?$__crt_unique_heap_ptr@U__acrt_ptd@@U__crt_internal_free_policy@@@@QBEPAU__acrt_ptd@@XZ 10040515 f i libucrt:per_thread_data.obj
 0001:0003f6fa       ?is_valid@?$__crt_unique_heap_ptr@U__acrt_ptd@@U__crt_internal_free_policy@@@@QBE_NXZ 100406fa f i libucrt:per_thread_data.obj
 0001:0003f701       ?release@?$__crt_unique_heap_ptr@U__acrt_ptd@@U__crt_internal_free_policy@@@@QAEXXZ 10040701 f i libucrt:per_thread_data.obj
 0001:0003f772       ?value@?$dual_state_global@PAU__crt_locale_data@@@__crt_state_management@@QAEAAPAU__crt_locale_data@@XZ 10040772 f i libucrt:per_thread_data.obj
 0001:0003f775       ___acrt_freeptd            10040775 f   libucrt:per_thread_data.obj
 0001:0003f7a1       ___acrt_getptd             100407a1 f   libucrt:per_thread_data.obj
 0001:0003f85c       ___acrt_getptd_head        1004085c f   libucrt:per_thread_data.obj
 0001:0003f8f2       ___acrt_getptd_noexit      100408f2 f   libucrt:per_thread_data.obj
 0001:0003f9a3       ___acrt_getptd_noexit_explicit 100409a3 f   libucrt:per_thread_data.obj
 0001:0003fa46       ___acrt_initialize_ptd     10040a46 f   libucrt:per_thread_data.obj
 0001:0003fa72       ___acrt_uninitialize_ptd   10040a72 f   libucrt:per_thread_data.obj
 0001:0003fa8c       ___threadhandle            10040a8c f   libucrt:per_thread_data.obj
 0001:0003fa92       ___threadid                10040a92 f   libucrt:per_thread_data.obj
 0001:0003fa9b       ??$?RU__crt_locale_data@@@__crt_internal_free_policy@@QBEXQBU__crt_locale_data@@@Z 10040a9b f i libucrt:wsetlocale.obj
 0001:0003faad       ??$?RU__crt_locale_pointers@@@__crt_internal_free_policy@@QBEXQBU__crt_locale_pointers@@@Z 10040aad f i libucrt:wsetlocale.obj
 0001:0003fabf       ??$?RU__crt_multibyte_data@@@__crt_internal_free_policy@@QBEXQBU__crt_multibyte_data@@@Z 10040abf f i libucrt:wsetlocale.obj
 0001:0003fe68       ??0?$__crt_unique_heap_ptr@U__crt_locale_data@@U__crt_internal_free_policy@@@@QAE@QAU__crt_locale_data@@@Z 10040e68 f i libucrt:wsetlocale.obj
 0001:0003fe78       ??0?$__crt_unique_heap_ptr@U__crt_locale_pointers@@U__crt_internal_free_policy@@@@QAE@QAU__crt_locale_pointers@@@Z 10040e78 f i libucrt:wsetlocale.obj
 0001:0003fe88       ??0?$__crt_unique_heap_ptr@U__crt_multibyte_data@@U__crt_internal_free_policy@@@@QAE@QAU__crt_multibyte_data@@@Z 10040e88 f i libucrt:wsetlocale.obj
 0001:0003fe98       ??0_expandlocale_locale_name_cache@@QAE@QA_WIQAU__crt_qualified_locale_data@@@Z 10040e98 f i libucrt:wsetlocale.obj
 0001:0003fee2       ??1?$__crt_unique_heap_ptr@U__crt_locale_data@@U__crt_internal_free_policy@@@@QAE@XZ 10040ee2 f i libucrt:wsetlocale.obj
 0001:0003fef4       ??1?$__crt_unique_heap_ptr@U__crt_locale_pointers@@U__crt_internal_free_policy@@@@QAE@XZ 10040ef4 f i libucrt:wsetlocale.obj
 0001:0003ff06       ??1?$__crt_unique_heap_ptr@U__crt_multibyte_data@@U__crt_internal_free_policy@@@@QAE@XZ 10040f06 f i libucrt:wsetlocale.obj
 0001:0003ff18       ??1_expandlocale_locale_name_cache@@QAE@XZ 10040f18 f i libucrt:wsetlocale.obj
 0001:0003ff48       ??B?$__crt_unique_heap_ptr@U__crt_locale_data@@U__crt_internal_free_policy@@@@QBE_NXZ 10040f48 f i libucrt:wsetlocale.obj
 0001:0003ff4f       ??B?$__crt_unique_heap_ptr@U__crt_locale_pointers@@U__crt_internal_free_policy@@@@QBE_NXZ 10040f4f f i libucrt:wsetlocale.obj
 0001:0003ff56       ??B?$__crt_unique_heap_ptr@U__crt_multibyte_data@@U__crt_internal_free_policy@@@@QBE_NXZ 10040f56 f i libucrt:wsetlocale.obj
 0001:00040176       ?commit_locale_name@_expandlocale_locale_name_cache@@QAEXQB_WI@Z 10041176 f i libucrt:wsetlocale.obj
 0001:000401ba       ?commit_locale_name_cache_already_updated@_expandlocale_locale_name_cache@@QAEXQB_WI@Z 100411ba f i libucrt:wsetlocale.obj
 0001:000401ef       ?detach@?$__crt_unique_heap_ptr@U__crt_locale_data@@U__crt_internal_free_policy@@@@QAEPAU__crt_locale_data@@XZ 100411ef f i libucrt:wsetlocale.obj
 0001:000401f5       ?detach@?$__crt_unique_heap_ptr@U__crt_locale_pointers@@U__crt_internal_free_policy@@@@QAEPAU__crt_locale_pointers@@XZ 100411f5 f i libucrt:wsetlocale.obj
 0001:000401fb       ?detach@?$__crt_unique_heap_ptr@U__crt_multibyte_data@@U__crt_internal_free_policy@@@@QAEPAU__crt_multibyte_data@@XZ 100411fb f i libucrt:wsetlocale.obj
 0001:00040201       ?get@?$__crt_unique_heap_ptr@U__crt_locale_data@@U__crt_internal_free_policy@@@@QBEPAU__crt_locale_data@@XZ 10041201 f i libucrt:wsetlocale.obj
 0001:00040204       ?get@?$__crt_unique_heap_ptr@U__crt_locale_pointers@@U__crt_internal_free_policy@@@@QBEPAU__crt_locale_pointers@@XZ 10041204 f i libucrt:wsetlocale.obj
 0001:00040207       ?get@?$__crt_unique_heap_ptr@U__crt_multibyte_data@@U__crt_internal_free_policy@@@@QBEPAU__crt_multibyte_data@@XZ 10041207 f i libucrt:wsetlocale.obj
 0001:0004020a       ?is_valid@?$__crt_unique_heap_ptr@U__crt_locale_data@@U__crt_internal_free_policy@@@@QBE_NXZ 1004120a f i libucrt:wsetlocale.obj
 0001:00040211       ?is_valid@?$__crt_unique_heap_ptr@U__crt_locale_pointers@@U__crt_internal_free_policy@@@@QBE_NXZ 10041211 f i libucrt:wsetlocale.obj
 0001:00040218       ?is_valid@?$__crt_unique_heap_ptr@U__crt_multibyte_data@@U__crt_internal_free_policy@@@@QBE_NXZ 10041218 f i libucrt:wsetlocale.obj
 0001:0004021f       ?release@?$__crt_unique_heap_ptr@U__crt_locale_data@@U__crt_internal_free_policy@@@@QAEXXZ 1004121f f i libucrt:wsetlocale.obj
 0001:00040231       ?release@?$__crt_unique_heap_ptr@U__crt_locale_pointers@@U__crt_internal_free_policy@@@@QAEXXZ 10041231 f i libucrt:wsetlocale.obj
 0001:00040243       ?release@?$__crt_unique_heap_ptr@U__crt_multibyte_data@@U__crt_internal_free_policy@@@@QAEXXZ 10041243 f i libucrt:wsetlocale.obj
 0001:00040255       ___acrt_copy_locale_name   10041255 f   libucrt:wsetlocale.obj
 0001:000402b5       ___acrt_set_locale_changed 100412b5 f   libucrt:wsetlocale.obj
 0001:000402c0       ___acrt_uninitialize_locale 100412c0 f   libucrt:wsetlocale.obj
 0001:000402e7       ___ascii_tolower           100412e7 f i libucrt:wsetlocale.obj
 0001:000402fe       ___ascii_towlower          100412fe f i libucrt:wsetlocale.obj
 0001:00040315       ___lc_lctowcs              10041315 f   libucrt:wsetlocale.obj
 0001:00040385       ___lc_wcstolc              10041385 f   libucrt:wsetlocale.obj
 0001:000404c2       __configthreadlocale       100414c2 f   libucrt:wsetlocale.obj
 0001:00040553       __create_locale            10041553 f   libucrt:wsetlocale.obj
 0001:0004097d       __free_locale              1004197d f   libucrt:wsetlocale.obj
 0001:00040a3f       __get_current_locale       10041a3f f   libucrt:wsetlocale.obj
 0001:00040ada       __wcreate_locale           10041ada f   libucrt:wsetlocale.obj
 0001:00040be1       __wcscats                  10041be1 f   libucrt:wsetlocale.obj
 0001:00040c22       __wsetlocale               10041c22 f   libucrt:wsetlocale.obj
 0001:000419a0       ___p___mb_cur_max          100429a0 f   libucrt:nlsdata.obj
 0001:00041b4d       ___acrt_initialize_lowio   10042b4d f   libucrt:ioinit.obj
 0001:00041bad       ___acrt_uninitialize_lowio 10042bad f   libucrt:ioinit.obj
 0001:00041bdf       __free_base                10042bdf f   libucrt:free_base.obj
 0001:00041c19       __malloc_base              10042c19 f   libucrt:malloc_base.obj
 0001:00041c67       ??$__crt_interlocked_read@H@@YAHPDH@Z 10042c67 f i libucrt:setmode.obj
 0001:00041c74       ?value@?$dual_state_global@H@__crt_state_management@@QAEAAHXZ 10042c74 f i libucrt:setmode.obj
 0001:00041c77       __get_fmode                10042c77 f   libucrt:setmode.obj
 0001:00041ca4       __set_fmode                10042ca4 f   libucrt:setmode.obj
 0001:00041ce1       __setmode                  10042ce1 f   libucrt:setmode.obj
 0001:00041e01       __setmode_nolock           10042e01 f   libucrt:setmode.obj
 0001:00041f68       ___acrt_MultiByteToWideChar 10042f68 f   libucrt:multibytetowidechar.obj
 0001:00041f9f       ??$?B$$A6GHPA_WKJ@Z@__crt_fast_encoded_nullptr_t@@QBEP6GHPA_WKJ@ZXZ 10042f9f f i libucrt:winapi_thunks.obj
 0001:00042047       ??$__crt_fast_decode_pointer@P6GHPA_WKJ@Z@@YAP6GHPA_WKJ@ZQ6GH0KJ@Z@Z 10043047 f i libucrt:winapi_thunks.obj
 0001:00042062       ??$__crt_fast_decode_pointer@PAX@@YAPAXQAX@Z 10043062 f i libucrt:winapi_thunks.obj
 0001:0004207d       ??$__crt_fast_encode_pointer@P6GHPA_WKJ@Z@@YAP6GHPA_WKJ@ZQ6GH0KJ@Z@Z 1004307d f i libucrt:winapi_thunks.obj
 0001:0004272d       _GetCurrentThreadEffectiveToken 1004372d f i libucrt:winapi_thunks.obj
 0001:00042731       ___acrt_AppPolicyGetProcessTerminationMethodInternal@4 10043731 f   libucrt:winapi_thunks.obj
 0001:00042771       ___acrt_AppPolicyGetShowDeveloperDiagnosticInternal@4 10043771 f   libucrt:winapi_thunks.obj
 0001:000427b1       ___acrt_AppPolicyGetThreadInitializationTypeInternal@4 100437b1 f   libucrt:winapi_thunks.obj
 0001:000427f1       ___acrt_AppPolicyGetWindowingModelInternal@4 100437f1 f   libucrt:winapi_thunks.obj
 0001:00042831       ___acrt_AreFileApisANSI@0  10043831 f   libucrt:winapi_thunks.obj
 0001:00042850       ___acrt_CompareStringEx@36 10043850 f   libucrt:winapi_thunks.obj
 0001:000428ad       ___acrt_EnumSystemLocalesEx@16 100438ad f   libucrt:winapi_thunks.obj
 0001:00042901       ___acrt_FlsAlloc@4         10043901 f   libucrt:winapi_thunks.obj
 0001:00042940       ___acrt_FlsFree@4          10043940 f   libucrt:winapi_thunks.obj
 0001:0004297f       ___acrt_FlsGetValue@4      1004397f f   libucrt:winapi_thunks.obj
 0001:000429be       ___acrt_FlsSetValue@8      100439be f   libucrt:winapi_thunks.obj
 0001:00042a00       ___acrt_GetDateFormatEx@28 10043a00 f   libucrt:winapi_thunks.obj
 0001:00042a57       ___acrt_GetEnabledXStateFeatures@0 10043a57 f   libucrt:winapi_thunks.obj
 0001:00042a8b       ___acrt_GetLocaleInfoEx@16 10043a8b f   libucrt:winapi_thunks.obj
 0001:00042aca       ___acrt_GetSystemTimePreciseAsFileTime@4 10043aca f   libucrt:winapi_thunks.obj
 0001:00042b09       ___acrt_GetTempPath2W@8    10043b09 f   libucrt:winapi_thunks.obj
 0001:00042b4b       ___acrt_GetTimeFormatEx@24 10043b4b f   libucrt:winapi_thunks.obj
 0001:00042b90       ___acrt_GetUserDefaultLocaleName@8 10043b90 f   libucrt:winapi_thunks.obj
 0001:00042bcc       ___acrt_GetXStateFeaturesMask@8 10043bcc f   libucrt:winapi_thunks.obj
 0001:00042c0c       ___acrt_InitializeCriticalSectionEx@12 10043c0c f   libucrt:winapi_thunks.obj
 0001:00042c57       ___acrt_IsValidLocaleName@4 10043c57 f   libucrt:winapi_thunks.obj
 0001:00042c8f       ___acrt_LCIDToLocaleName@16 10043c8f f   libucrt:winapi_thunks.obj
 0001:00042cce       ___acrt_LCMapStringEx@36   10043cce f   libucrt:winapi_thunks.obj
 0001:00042d2b       ___acrt_LocaleNameToLCID@8 10043d2b f   libucrt:winapi_thunks.obj
 0001:00042d5c       ___acrt_LocateXStateFeature@12 10043d5c f   libucrt:winapi_thunks.obj
 0001:00042d8b       ___acrt_MessageBoxA@16     10043d8b f   libucrt:winapi_thunks.obj
 0001:00042dbd       ___acrt_MessageBoxW@16     10043dbd f   libucrt:winapi_thunks.obj
 0001:00042def       ___acrt_RoInitialize@4     10043def f   libucrt:winapi_thunks.obj
 0001:00042e2a       ___acrt_RoUninitialize@0   10043e2a f   libucrt:winapi_thunks.obj
 0001:00042e58       ___acrt_RtlGenRandom@8     10043e58 f   libucrt:winapi_thunks.obj
 0001:00042e98       ___acrt_SetThreadStackGuarantee@4 10043e98 f   libucrt:winapi_thunks.obj
 0001:00042ed3       ___acrt_can_show_message_box 10043ed3 f   libucrt:winapi_thunks.obj
 0001:00042efa       ___acrt_can_use_vista_locale_apis 10043efa f   libucrt:winapi_thunks.obj
 0001:00042f05       ___acrt_can_use_xstate_apis 10043f05 f   libucrt:winapi_thunks.obj
 0001:00042f10       ___acrt_eagerly_load_locale_apis 10043f10 f   libucrt:winapi_thunks.obj
 0001:00042f47       ___acrt_get_parent_window  10043f47 f   libucrt:winapi_thunks.obj
 0001:00042faf       ___acrt_initialize_winapi_thunks 10043faf f   libucrt:winapi_thunks.obj
 0001:00042fc3       ___acrt_is_interactive     10043fc3 f   libucrt:winapi_thunks.obj
 0001:00043063       ___acrt_uninitialize_winapi_thunks 10044063 f   libucrt:winapi_thunks.obj
 0001:00043099       ?value@?$dual_state_global@PAU__crt_multibyte_data@@@__crt_state_management@@QAEAAPAU__crt_multibyte_data@@XZ 10044099 f i libucrt:locale_update.obj
 0001:0004309c       ?value_explicit@?$dual_state_global@PAU__crt_locale_data@@@__crt_state_management@@QAEAAPAU__crt_locale_data@@I@Z 1004409c f i libucrt:locale_update.obj
 0001:000430ab       ?value_explicit@?$dual_state_global@PAU__crt_multibyte_data@@@__crt_state_management@@QAEAAPAU__crt_multibyte_data@@I@Z 100440ab f i libucrt:locale_update.obj
 0001:000430ba       ___acrt_should_sync_with_global_locale 100440ba f i libucrt:locale_update.obj
 0001:000430d6       ___acrt_update_locale_info 100440d6 f   libucrt:locale_update.obj
 0001:00043103       ___acrt_update_locale_info_explicit 10044103 f   libucrt:locale_update.obj
 0001:00043134       ___acrt_update_multibyte_info 10044134 f   libucrt:locale_update.obj
 0001:00043161       ___acrt_update_multibyte_info_explicit 10044161 f   libucrt:locale_update.obj
 0001:0004328e       ??0__crt_seek_guard@@QAE@H_J@Z 1004428e f i libucrt:chsize.obj
 0001:000432db       ??1__crt_seek_guard@@QAE@XZ 100442db f i libucrt:chsize.obj
 0001:000433fb       ?check@?$cached@K@__crt_cached_ptd_host@@QBE_NK@Z 100443fb f i libucrt:chsize.obj
 0001:00043417       __chsize                   10044417 f   libucrt:chsize.obj
 0001:00043433       __chsize_nolock            10044433 f   libucrt:chsize.obj
 0001:0004346a       __chsize_nolock_internal   1004446a f   libucrt:chsize.obj
 0001:00043601       __chsize_s                 10044601 f   libucrt:chsize.obj
 0001:00043638       __umask                    10044638 f   libucrt:umask.obj
 0001:0004365b       __umask_s                  1004465b f   libucrt:umask.obj
 0001:00043726       ___acrt_WideCharToMultiByte 10044726 f   libucrt:widechartomultibyte.obj
 0001:00043792       ?__wcsrtombs_utf8@__crt_mbstring@@YAIPADPAPB_WIPAU_Mbstatet@@AAV__crt_cached_ptd_host@@@Z 10044792 f   libucrt:wcrtomb.obj
 0001:00043c26       _wcrtomb                   10044c26 f   libucrt:wcrtomb.obj
 0001:00043c55       _wcrtomb_s                 10044c55 f   libucrt:wcrtomb.obj
 0001:00043cf1       _wcsrtombs                 10044cf1 f   libucrt:wcrtomb.obj
 0001:00043d2b       _wcsrtombs_s               10044d2b f   libucrt:wcrtomb.obj
 0001:00043de3       _wctob                     10044de3 f   libucrt:wcrtomb.obj
 0001:00044656       ??1?$__crt_simd_cleanup_guard@$00@@QAE@XZ 10045656 f i libucrt:strnlen.obj
 0001:0004465a       ??1?$__crt_simd_cleanup_guard@$0A@@@QAE@XZ 1004565a f i libucrt:strnlen.obj
 0001:0004465d       ?compare_equals@?$__crt_simd_traits@$00E@@SA?AT__m256i@@T2@0@Z 1004565d f i libucrt:strnlen.obj
 0001:00044662       ?compare_equals@?$__crt_simd_traits@$00G@@SA?AT__m256i@@T2@0@Z 10045662 f i libucrt:strnlen.obj
 0001:00044667       ?compare_equals@?$__crt_simd_traits@$0A@E@@SA?AT__m128i@@T2@0@Z 10045667 f i libucrt:strnlen.obj
 0001:0004466c       ?compare_equals@?$__crt_simd_traits@$0A@G@@SA?AT__m128i@@T2@0@Z 1004566c f i libucrt:strnlen.obj
 0001:00044671       ?compute_byte_mask@?$__crt_simd_pack_traits@$00@@SAHT__m256i@@@Z 10045671 f i libucrt:strnlen.obj
 0001:00044676       ?compute_byte_mask@?$__crt_simd_pack_traits@$0A@@@SAHT__m128i@@@Z 10045676 f i libucrt:strnlen.obj
 0001:0004467b       ?get_zero_pack@?$__crt_simd_pack_traits@$00@@SA?AT__m256i@@XZ 1004567b f i libucrt:strnlen.obj
 0001:00044680       ?get_zero_pack@?$__crt_simd_pack_traits@$0A@@@SA?AT__m128i@@XZ 10045680 f i libucrt:strnlen.obj
 0001:00044684       _strnlen                   10045684 f   libucrt:strnlen.obj
 0001:000447a6       _wcslen                    100457a6 f   libucrt:strnlen.obj
 0001:000448ce       _wcsnlen                   100458ce f   libucrt:strnlen.obj
 0001:00044a7e       ?__acrt_fp_classify@@YA?AW4__acrt_fp_class@@ABN@Z 10045a7e f i libucrt:cvt.obj
 0001:00044ae0       ?__acrt_fp_is_negative@@YA_NABN@Z 10045ae0 f i libucrt:cvt.obj
 0001:0004546f       ?strrchr@@YAPADQADH@Z      1004646f f i libucrt:cvt.obj
 0001:0004547a       ___acrt_fp_format          1004647a f   libucrt:cvt.obj
 0001:000455fb       __wctomb_internal          100465fb f   libucrt:wctomb.obj
 0001:00045765       __wctomb_l                 10046765 f   libucrt:wctomb.obj
 0001:000457c0       __wctomb_s_l               100467c0 f   libucrt:wctomb.obj
 0001:000457fb       _wctomb                    100467fb f   libucrt:wctomb.obj
 0001:00045847       _wctomb_s                  10046847 f   libucrt:wctomb.obj
 0001:00045881       __mbtowc_internal          10046881 f   libucrt:mbtowc.obj
 0001:000459b4       __mbtowc_l                 100469b4 f   libucrt:mbtowc.obj
 0001:000459ec       _mbtowc                    100469ec f   libucrt:mbtowc.obj
 0001:00045a23       __fileno                   10046a23 f   libucrt:fileno.obj
 0001:00045a4a       ??$?RPAU__crt_stdio_stream_data@@@__crt_internal_free_policy@@QBEXQBQAU__crt_stdio_stream_data@@@Z 10046a4a f i libucrt:_file.obj
 0001:00045a5c       ??0?$__crt_unique_heap_ptr@PAU__crt_stdio_stream_data@@U__crt_internal_free_policy@@@@QAE@QAPAU__crt_stdio_stream_data@@@Z 10046a5c f i libucrt:_file.obj
 0001:00045a6c       ??1?$__crt_unique_heap_ptr@PAU__crt_stdio_stream_data@@U__crt_internal_free_policy@@@@QAE@XZ 10046a6c f i libucrt:_file.obj
 0001:00045a7e       ?detach@?$__crt_unique_heap_ptr@PAU__crt_stdio_stream_data@@U__crt_internal_free_policy@@@@QAEPAPAU__crt_stdio_stream_data@@XZ 10046a7e f i libucrt:_file.obj
 0001:00045a84       ?release@?$__crt_unique_heap_ptr@PAU__crt_stdio_stream_data@@U__crt_internal_free_policy@@@@QAEXXZ 10046a84 f i libucrt:_file.obj
 0001:00045a96       ___acrt_initialize_stdio   10046a96 f   libucrt:_file.obj
 0001:00045b5e       ___acrt_iob_func           10046b5e f   libucrt:_file.obj
 0001:00045b6e       ___acrt_uninitialize_stdio 10046b6e f   libucrt:_file.obj
 0001:00045bba       __get_stream_buffer_pointers 10046bba f   libucrt:_file.obj
 0001:00045c00       __lock_file                10046c00 f   libucrt:_file.obj
 0001:00045c14       __unlock_file              10046c14 f   libucrt:_file.obj
 0001:00045c28       __get_printf_count_output  10046c28 f   libucrt:printf_count_output.obj
 0001:00045c3d       __set_printf_count_output  10046c3d f   libucrt:printf_count_output.obj
 0001:00045d2b       __fputwc_nolock            10046d2b f   libucrt:fputwc.obj
 0001:00045d61       __fputwc_nolock_internal   10046d61 f   libucrt:fputwc.obj
 0001:00045e99       __fputwchar                10046e99 f   libucrt:fputwc.obj
 0001:00045eb3       __putwc_nolock             10046eb3 f   libucrt:fputwc.obj
 0001:00045ebe       _fputwc                    10046ebe f   libucrt:fputwc.obj
 0001:00045ef4       _putwc                     10046ef4 f   libucrt:fputwc.obj
 0001:00045eff       _putwchar                  10046eff f   libucrt:fputwc.obj
 0001:0004603e       __fputc_nolock             1004703e f   libucrt:fputc.obj
 0001:00046072       __fputc_nolock_internal    10047072 f   libucrt:fputc.obj
 0001:0004609f       __fputchar                 1004709f f   libucrt:fputc.obj
 0001:000460b9       __putc_nolock              100470b9 f   libucrt:fputc.obj
 0001:000460c4       _fputc                     100470c4 f   libucrt:fputc.obj
 0001:000460f8       _putc                      100470f8 f   libucrt:fputc.obj
 0001:00046103       _putchar                   10047103 f   libucrt:fputc.obj
 0001:0004610e       ?has_temporary_buffer@__crt_stdio_stream@@QBE_NXZ 1004710e f i libucrt:_sftbuf.obj
 0001:0004611a       ___acrt_should_use_temporary_buffer 1004711a f   libucrt:_sftbuf.obj
 0001:00046158       ___acrt_stdio_begin_temporary_buffering_nolock 10047158 f   libucrt:_sftbuf.obj
 0001:00046203       ___acrt_stdio_end_temporary_buffering_nolock 10047203 f   libucrt:_sftbuf.obj
 0001:00046241       __isatty                   10047241 f   libucrt:isatty.obj
 0001:00046297       __calloc_base              10047297 f   libucrt:calloc_base.obj
 0001:000462f4       ___sys_errlist             100472f4 f   libucrt:syserr.obj
 0001:000462fa       ___sys_nerr                100472fa f   libucrt:syserr.obj
 0001:000465a3       __mbstowcs_l               100475a3 f   libucrt:mbstowcs.obj
 0001:000465db       __mbstowcs_s_l             100475db f   libucrt:mbstowcs.obj
 0001:00046619       _mbstowcs                  10047619 f   libucrt:mbstowcs.obj
 0001:00046650       _mbstowcs_s                10047650 f   libucrt:mbstowcs.obj
 0001:00046744       _strncpy_s                 10047744 f   libucrt:strncpy_s.obj
 0001:0004677b       ?__mbrtowc_utf8@__crt_mbstring@@YAIPA_WPBDIPAU_Mbstatet@@AAV__crt_cached_ptd_host@@@Z 1004777b f   libucrt:mbrtowc.obj
 0001:000467be       ?__mbsrtowcs_utf8@__crt_mbstring@@YAIPA_WPAPBDIPAU_Mbstatet@@AAV__crt_cached_ptd_host@@@Z 100477be f   libucrt:mbrtowc.obj
 0001:00046cf8       _btowc                     10047cf8 f   libucrt:mbrtowc.obj
 0001:00046d69       _mbrlen                    10047d69 f   libucrt:mbrtowc.obj
 0001:00046db1       _mbrtowc                   10047db1 f   libucrt:mbrtowc.obj
 0001:00046e18       _mbsrtowcs                 10047e18 f   libucrt:mbrtowc.obj
 0001:00046e52       _mbsrtowcs_s               10047e52 f   libucrt:mbrtowc.obj
 0001:00046f73       __putwch                   10047f73 f   libucrt:putwch.obj
 0001:00046fa0       __putwch_nolock            10047fa0 f   libucrt:putwch.obj
 0001:00046fd2       __putwch_nolock_internal   10047fd2 f   libucrt:putwch.obj
 0001:00046fe2       ??$?RU__crt_stdio_stream_data@@@__crt_internal_free_policy@@QBEXQBU__crt_stdio_stream_data@@@Z 10047fe2 f i libucrt:stream.obj
 0001:00046ff4       ??0?$__crt_unique_heap_ptr@U__crt_stdio_stream_data@@U__crt_internal_free_policy@@@@QAE@QAU__crt_stdio_stream_data@@@Z 10047ff4 f i libucrt:stream.obj
 0001:00047004       ??0__crt_stdio_stream@@QAE@QAU__crt_stdio_stream_data@@@Z 10048004 f i libucrt:stream.obj
 0001:00047014       ??0__crt_stdio_stream@@QAE@XZ 10048014 f i libucrt:stream.obj
 0001:0004701a       ??1?$__crt_unique_heap_ptr@U__crt_stdio_stream_data@@U__crt_internal_free_policy@@@@QAE@XZ 1004801a f i libucrt:stream.obj
 0001:0004702c       ?__acrt_stdio_allocate_stream@@YA?AV__crt_stdio_stream@@XZ 1004802c f   libucrt:stream.obj
 0001:00047095       ?__acrt_stdio_free_stream@@YAXV__crt_stdio_stream@@@Z 10048095 f   libucrt:stream.obj
 0001:000470d0       ?deallocate@__crt_stdio_stream@@QAEXXZ 100480d0 f i libucrt:stream.obj
 0001:000470da       ?detach@?$__crt_unique_heap_ptr@U__crt_stdio_stream_data@@U__crt_internal_free_policy@@@@QAEPAU__crt_stdio_stream_data@@XZ 100480da f i libucrt:stream.obj
 0001:000471a2       ?lock@__crt_stdio_stream@@QBEXXZ 100481a2 f i libucrt:stream.obj
 0001:000471ab       ?release@?$__crt_unique_heap_ptr@U__crt_stdio_stream_data@@U__crt_internal_free_policy@@@@QAEXXZ 100481ab f i libucrt:stream.obj
 0001:000471bd       ?try_allocate@__crt_stdio_stream@@QAE_NXZ 100481bd f i libucrt:stream.obj
 0001:000471dd       ??$__acrt_stdio_parse_mode@D@@YA?AU__acrt_stdio_stream_mode@@QBD@Z 100481dd f i libucrt:openfile.obj
 0001:00047407       ??$__acrt_stdio_parse_mode@_W@@YA?AU__acrt_stdio_stream_mode@@QB_W@Z 10048407 f i libucrt:openfile.obj
 0001:00047778       ??$tcsncmp@AAPBDAAY02$$CBDI@?$__crt_char_traits@D@@SAHAAPBDAAY02$$CBD$$QAI@Z 10048778 f i libucrt:openfile.obj
 0001:00047794       ??$tcsncmp@AAPB_WAAY02$$CB_WI@?$__crt_char_traits@_W@@SAHAAPB_WAAY02$$CB_W$$QAI@Z 10048794 f i libucrt:openfile.obj
 0001:000477b0       ??$tcsnicmp@AAPBDAAY04$$CBDI@?$__crt_char_traits@D@@SAHAAPBDAAY04$$CBD$$QAI@Z 100487b0 f i libucrt:openfile.obj
 0001:000477cc       ??$tcsnicmp@AAPBDAAY06$$CBDI@?$__crt_char_traits@D@@SAHAAPBDAAY06$$CBD$$QAI@Z 100487cc f i libucrt:openfile.obj
 0001:000477e8       ??$tcsnicmp@AAPBDAAY07$$CBDI@?$__crt_char_traits@D@@SAHAAPBDAAY07$$CBD$$QAI@Z 100487e8 f i libucrt:openfile.obj
 0001:00047804       ??$tcsnicmp@AAPB_WAAY04$$CB_WI@?$__crt_char_traits@_W@@SAHAAPB_WAAY04$$CB_W$$QAI@Z 10048804 f i libucrt:openfile.obj
 0001:00047820       ??$tcsnicmp@AAPB_WAAY06$$CB_WI@?$__crt_char_traits@_W@@SAHAAPB_WAAY06$$CB_W$$QAI@Z 10048820 f i libucrt:openfile.obj
 0001:0004783c       ??$tcsnicmp@AAPB_WAAY07$$CB_WI@?$__crt_char_traits@_W@@SAHAAPB_WAAY07$$CB_W$$QAI@Z 1004883c f i libucrt:openfile.obj
 0001:00047858       ??$tsopen_s@PAHABQBDABHABHH@?$__crt_char_traits@D@@SAH$$QAPAHABQBDABH2$$QAH@Z 10048858 f i libucrt:openfile.obj
 0001:00047880       ??$tsopen_s@PAHABQB_WABHABHH@?$__crt_char_traits@_W@@SAH$$QAPAHABQB_WABH2$$QAH@Z 10048880 f i libucrt:openfile.obj
 0001:000478a8       ?__acrt_stdio_parse_mode_D@@YA_NAAU__acrt_stdio_stream_mode@@@Z 100488a8 f i libucrt:openfile.obj
 0001:000478c3       ?__acrt_stdio_parse_mode_N@@YA_NAAU__acrt_stdio_stream_mode@@@Z 100488c3 f i libucrt:openfile.obj
 0001:000478d5       ?__acrt_stdio_parse_mode_R@@YA_NAAU__acrt_stdio_stream_mode@@AA_N@Z 100488d5 f i libucrt:openfile.obj
 0001:000478f3       ?__acrt_stdio_parse_mode_S@@YA_NAAU__acrt_stdio_stream_mode@@AA_N@Z 100488f3 f i libucrt:openfile.obj
 0001:00047911       ?__acrt_stdio_parse_mode_T@@YA_NAAU__acrt_stdio_stream_mode@@@Z 10048911 f i libucrt:openfile.obj
 0001:00047930       ?__acrt_stdio_parse_mode_b@@YA_NAAU__acrt_stdio_stream_mode@@@Z 10048930 f i libucrt:openfile.obj
 0001:00047950       ?__acrt_stdio_parse_mode_c@@YA_NAAU__acrt_stdio_stream_mode@@AA_N@Z 10048950 f i libucrt:openfile.obj
 0001:00047972       ?__acrt_stdio_parse_mode_n@@YA_NAAU__acrt_stdio_stream_mode@@AA_N@Z 10048972 f i libucrt:openfile.obj
 0001:00047994       ?__acrt_stdio_parse_mode_plus@@YA_NAAU__acrt_stdio_stream_mode@@AA_N@Z 10048994 f i libucrt:openfile.obj
 0001:000479ca       ?__acrt_stdio_parse_mode_t@@YA_NAAU__acrt_stdio_stream_mode@@@Z 100489ca f i libucrt:openfile.obj
 0001:000479ea       ?__acrt_stdio_parse_mode_x@@YA_NAAU__acrt_stdio_stream_mode@@@Z 100489ea f i libucrt:openfile.obj
 0001:00047a0a       __openfile                 10048a0a f   libucrt:openfile.obj
 0001:00047a15       __wopenfile                10048a15 f   libucrt:openfile.obj
 0001:00047a20       ___acrt_stdio_free_buffer_nolock 10048a20 f   libucrt:_freebuf.obj
 0001:00047f39       ___acrt_stdio_flush_nolock 10048f39 f   libucrt:fflush.obj
 0001:00047fa2       __fflush_nolock            10048fa2 f   libucrt:fflush.obj
 0001:00048007       __flushall                 10049007 f   libucrt:fflush.obj
 0001:00048010       _fflush                    10049010 f   libucrt:fflush.obj
 0001:0004847e       ___acrt_stdio_flush_and_write_narrow_nolock 1004947e f   libucrt:_flsbuf.obj
 0001:00048489       ___acrt_stdio_flush_and_write_wide_nolock 10049489 f   libucrt:_flsbuf.obj
 0001:000488ad       ___acrt_stdio_refill_and_read_narrow_nolock 100498ad f   libucrt:_filbuf.obj
 0001:000488b8       ___acrt_stdio_refill_and_read_wide_nolock 100498b8 f   libucrt:_filbuf.obj
 0001:000488c3       ___acrt_initialize_locks   100498c3 f   libucrt:locks.obj
 0001:00048904       ___acrt_lock               10049904 f   libucrt:locks.obj
 0001:0004891b       ___acrt_uninitialize_locks 1004991b f   libucrt:locks.obj
 0001:0004894c       ___acrt_unlock             1004994c f   libucrt:locks.obj
 0001:00048963       __lock_locales             10049963 f   libucrt:locks.obj
 0001:00048971       __unlock_locales           10049971 f   libucrt:locks.obj
 0001:0004897a       ___acrt_app_verifier_enabled 1004997a f   libucrt:peb_access.obj
 0001:0004898c       ___acrt_is_secure_process  1004998c f   libucrt:peb_access.obj
 0001:00048b38       ___acrt_get_begin_thread_init_policy 10049b38 f   libucrt:win_policies.obj
 0001:00048b72       ___acrt_get_developer_information_policy 10049b72 f   libucrt:win_policies.obj
 0001:00048bb0       ___acrt_get_process_end_policy 10049bb0 f   libucrt:win_policies.obj
 0001:00048bd7       ___acrt_get_windowing_model_policy 10049bd7 f   libucrt:win_policies.obj
 0001:00048c62       ??$__acrt_convert_wcs_mbs_cp@_WDV<lambda_28bda7af82a03b66c1cb3803a755f95d>@@U__crt_win32_buffer_internal_dynamic_resizing@@@@YAHQB_WAAV?$__crt_win32_buffer@DU__crt_win32_buffer_internal_dynamic_resizing@@@@ABV<lambda_28bda7af82a03b66c1cb3803a755f95d>@@I@Z 10049c62 f i libucrt:argv_wildcards.obj
 0001:00048d28       ??$__acrt_wcs_to_mbs_cp@U__crt_win32_buffer_internal_dynamic_resizing@@@@YAHQB_WAAV?$__crt_win32_buffer@DU__crt_win32_buffer_internal_dynamic_resizing@@@@I@Z 10049d28 f i libucrt:argv_wildcards.obj
 0001:000495da       ??$tcslen@ABQBD@?$__crt_char_traits@D@@SAIABQBD@Z 1004a5da f i libucrt:argv_wildcards.obj
 0001:000495f2       ??$tcslen@ABQB_W@?$__crt_char_traits@_W@@SAIABQB_W@Z 1004a5f2 f i libucrt:argv_wildcards.obj
 0001:00049610       ??$tcsncpy_s@AAPADIAAPADABI@?$__crt_char_traits@D@@SAHAAPAD$$QAI0ABI@Z 1004a610 f i libucrt:argv_wildcards.obj
 0001:00049633       ??$tcsncpy_s@AAPA_WIAAPA_WABI@?$__crt_char_traits@_W@@SAHAAPA_W$$QAI0ABI@Z 1004a633 f i libucrt:argv_wildcards.obj
 0001:00049656       ??$tcsncpy_s@PADABIABQBDABI@?$__crt_char_traits@D@@SAH$$QAPADABIABQBD1@Z 1004a656 f i libucrt:argv_wildcards.obj
 0001:00049679       ??$tcsncpy_s@PADIABQBDABI@?$__crt_char_traits@D@@SAH$$QAPAD$$QAIABQBDABI@Z 1004a679 f i libucrt:argv_wildcards.obj
 0001:0004969c       ??$tcsncpy_s@PA_WABIABQB_WABI@?$__crt_char_traits@_W@@SAH$$QAPA_WABIABQB_W1@Z 1004a69c f i libucrt:argv_wildcards.obj
 0001:000496bf       ??$tcsncpy_s@PA_WIABQB_WABI@?$__crt_char_traits@_W@@SAH$$QAPA_W$$QAIABQB_WABI@Z 1004a6bf f i libucrt:argv_wildcards.obj
 0001:000496e2       ??$tcspbrk@AAPADAAY02$$CBD@?$__crt_char_traits@D@@SAPADAAPADAAY02$$CBD@Z 1004a6e2 f i libucrt:argv_wildcards.obj
 0001:000496f8       ??$tcspbrk@AAPA_WAAY02$$CB_W@?$__crt_char_traits@_W@@SAPA_WAAPA_WAAY02$$CB_W@Z 1004a6f8 f i libucrt:argv_wildcards.obj
 0001:0004970e       ??0?$__crt_unique_handle_t@U__crt_findfile_traits@@@@QAE@QAX@Z 1004a70e f i libucrt:argv_wildcards.obj
 0001:0004971e       ??0?$__crt_win32_buffer@DU__crt_win32_buffer_internal_dynamic_resizing@@@@QAE@XZ 1004a71e f i libucrt:argv_wildcards.obj
 0001:0004974e       ??1?$__crt_unique_handle_t@U__crt_findfile_traits@@@@QAE@XZ 1004a74e f i libucrt:argv_wildcards.obj
 0001:00049765       ??1?$__crt_win32_buffer@DU__crt_win32_buffer_internal_dynamic_resizing@@@@QAE@XZ 1004a765 f i libucrt:argv_wildcards.obj
 0001:000497c0       ??R<lambda_28bda7af82a03b66c1cb3803a755f95d>@@QBE@IQB_WQADI@Z 1004a7c0 f i libucrt:argv_wildcards.obj
 0001:0004985a       ?_deallocate@?$__crt_win32_buffer@DU__crt_win32_buffer_internal_dynamic_resizing@@@@AAEXXZ 1004a85a f i libucrt:argv_wildcards.obj
 0001:00049874       ?allocate@?$__crt_win32_buffer@DU__crt_win32_buffer_internal_dynamic_resizing@@@@QAEHI@Z 1004a874 f i libucrt:argv_wildcards.obj
 0001:00049920       ?capacity@?$__crt_win32_buffer@DU__crt_win32_buffer_internal_dynamic_resizing@@@@QBEIXZ 1004a920 f i libucrt:argv_wildcards.obj
 0001:00049924       ?close@?$__crt_unique_handle_t@U__crt_findfile_traits@@@@QAEXXZ 1004a924 f i libucrt:argv_wildcards.obj
 0001:0004993b       ?close@__crt_findfile_traits@@SA_NPAX@Z 1004a93b f i libucrt:argv_wildcards.obj
 0001:00049950       ?data@?$__crt_win32_buffer@DU__crt_win32_buffer_internal_dynamic_resizing@@@@QAEPADXZ 1004a950 f i libucrt:argv_wildcards.obj
 0001:00049954       ?debug_info@?$__crt_win32_buffer@DU__crt_win32_buffer_internal_dynamic_resizing@@@@QBEABV__crt_win32_buffer_empty_debug_info@@XZ 1004a954 f i libucrt:argv_wildcards.obj
 0001:00049a6d       ?get@?$__crt_unique_handle_t@U__crt_findfile_traits@@@@QBEPAXXZ 1004aa6d f i libucrt:argv_wildcards.obj
 0001:00049aa3       ?get_invalid_value@__crt_findfile_traits@@SAPAXXZ 1004aaa3 f i libucrt:argv_wildcards.obj
 0001:00049af2       ?set_to_nullptr@?$__crt_win32_buffer@DU__crt_win32_buffer_internal_dynamic_resizing@@@@QAEXXZ 1004aaf2 f i libucrt:argv_wildcards.obj
 0001:00049b09       ?size@?$__crt_win32_buffer@DU__crt_win32_buffer_internal_dynamic_resizing@@@@QAEXI@Z 1004ab09 f i libucrt:argv_wildcards.obj
 0001:00049b2a       ?strpbrk@@YAPADQADQBD@Z    1004ab2a f i libucrt:argv_wildcards.obj
 0001:00049b35       ?wcspbrk@@YAPA_WPA_WPB_W@Z 1004ab35 f i libucrt:argv_wildcards.obj
 0001:00049b40       ___acrt_expand_narrow_argv_wildcards 1004ab40 f   libucrt:argv_wildcards.obj
 0001:00049b4b       ___acrt_expand_wide_argv_wildcards 1004ab4b f   libucrt:argv_wildcards.obj
 0001:00049b56       ??$__acrt_convert_wcs_mbs_cp@_WDV<lambda_0fec1a7b3f42a53036604e18c2d5e07e>@@U__crt_win32_buffer_no_resizing@@@@YAHQB_WAAV?$__crt_win32_buffer@DU__crt_win32_buffer_no_resizing@@@@ABV<lambda_0fec1a7b3f42a53036604e18c2d5e07e>@@I@Z 1004ab56 f i libucrt:getmodulefilenamea.obj
 0001:00049c18       ??$__acrt_wcs_to_mbs_cp@U__crt_win32_buffer_no_resizing@@@@YAHQB_WAAV?$__crt_win32_buffer@DU__crt_win32_buffer_no_resizing@@@@I@Z 1004ac18 f i libucrt:getmodulefilenamea.obj
 0001:00049c35       ??0?$__crt_win32_buffer@DU__crt_win32_buffer_no_resizing@@@@QAE@QADI@Z 1004ac35 f i libucrt:getmodulefilenamea.obj
 0001:00049c59       ??1?$__crt_win32_buffer@DU__crt_win32_buffer_no_resizing@@@@QAE@XZ 1004ac59 f i libucrt:getmodulefilenamea.obj
 0001:00049c64       ??R<lambda_0fec1a7b3f42a53036604e18c2d5e07e>@@QBE@IQB_WQADI@Z 1004ac64 f i libucrt:getmodulefilenamea.obj
 0001:00049c88       ?_deallocate@?$__crt_win32_buffer@DU__crt_win32_buffer_no_resizing@@@@AAEXXZ 1004ac88 f i libucrt:getmodulefilenamea.obj
 0001:00049c93       ?allocate@?$__crt_win32_buffer@DU__crt_win32_buffer_no_resizing@@@@QAEHI@Z 1004ac93 f i libucrt:getmodulefilenamea.obj
 0001:00049cba       ?allocate@__crt_win32_buffer_no_resizing@@SAHQAPAXIABV__crt_win32_buffer_empty_debug_info@@@Z 1004acba f i libucrt:getmodulefilenamea.obj
 0001:00049cc7       ?capacity@?$__crt_win32_buffer@DU__crt_win32_buffer_no_resizing@@@@QBEIXZ 1004acc7 f i libucrt:getmodulefilenamea.obj
 0001:00049ccb       ?data@?$__crt_win32_buffer@DU__crt_win32_buffer_no_resizing@@@@QAEPADXZ 1004accb f i libucrt:getmodulefilenamea.obj
 0001:00049ccf       ?deallocate@__crt_win32_buffer_no_resizing@@SAXQAXABV__crt_win32_buffer_empty_debug_info@@@Z 1004accf f i libucrt:getmodulefilenamea.obj
 0001:00049cd2       ?debug_info@?$__crt_win32_buffer@DU__crt_win32_buffer_no_resizing@@@@QBEABV__crt_win32_buffer_empty_debug_info@@XZ 1004acd2 f i libucrt:getmodulefilenamea.obj
 0001:00049cd5       ?set_to_nullptr@?$__crt_win32_buffer@DU__crt_win32_buffer_no_resizing@@@@QAEXXZ 1004acd5 f i libucrt:getmodulefilenamea.obj
 0001:00049ce9       ?size@?$__crt_win32_buffer@DU__crt_win32_buffer_no_resizing@@@@QAEXI@Z 1004ace9 f i libucrt:getmodulefilenamea.obj
 0001:00049cf8       ?size@?$__crt_win32_buffer@DU__crt_win32_buffer_no_resizing@@@@QBEIXZ 1004acf8 f i libucrt:getmodulefilenamea.obj
 0001:00049cfc       ___acrt_GetModuleFileNameA 1004acfc f   libucrt:getmodulefilenamea.obj
 0001:00049e10       ??$initialize_from_array@$$BY10BAA@E@?$dual_state_global@PAE@__crt_state_management@@QAAXAAY10BAA@E@Z 1004ae10 f i libucrt:mbctype.obj
 0001:00049e1f       ??$initialize_from_array@$$BY10BAB@E@?$dual_state_global@PAE@__crt_state_management@@QAAXAAY10BAB@E@Z 1004ae1f f i libucrt:mbctype.obj
 0001:00049f3b       ?dangerous_get_state_array@?$dual_state_global@PAE@__crt_state_management@@QAEPAPAEXZ 1004af3b f i libucrt:mbctype.obj
 0001:00049f3e       ?dangerous_get_state_array@?$dual_state_global@PAU__crt_multibyte_data@@@__crt_state_management@@QAEPAPAU__crt_multibyte_data@@XZ 1004af3e f i libucrt:mbctype.obj
 0001:00049fb2       ?initialize@?$dual_state_global@PAU__crt_multibyte_data@@@__crt_state_management@@QAEXQAU__crt_multibyte_data@@@Z 1004afb2 f i libucrt:mbctype.obj
 0001:0004a3cb       ?value@?$dual_state_global@PAE@__crt_state_management@@QAEAAPAEXZ 1004b3cb f i libucrt:mbctype.obj
 0001:0004a3ce       ___acrt_initialize_multibyte 1004b3ce f   libucrt:mbctype.obj
 0001:0004a416       ___acrt_update_thread_multibyte_data 1004b416 f   libucrt:mbctype.obj
 0001:0004a429       ___p__mbcasemap            1004b429 f   libucrt:mbctype.obj
 0001:0004a42f       ___p__mbctype              1004b42f f   libucrt:mbctype.obj
 0001:0004a435       __getmbcp                  1004b435 f   libucrt:mbctype.obj
 0001:0004a469       __setmbcp                  1004b469 f   libucrt:mbctype.obj
 0001:0004a488       __setmbcp_nolock           1004b488 f   libucrt:mbctype.obj
 0001:0004a75e       __ismbbalnum               1004b75e f   libucrt:ismbbyte.obj
 0001:0004a779       __ismbbalnum_l             1004b779 f   libucrt:ismbbyte.obj
 0001:0004a795       __ismbbalpha               1004b795 f   libucrt:ismbbyte.obj
 0001:0004a7b0       __ismbbalpha_l             1004b7b0 f   libucrt:ismbbyte.obj
 0001:0004a7cc       __ismbbblank               1004b7cc f   libucrt:ismbbyte.obj
 0001:0004a7ef       __ismbbblank_l             1004b7ef f   libucrt:ismbbyte.obj
 0001:0004a813       __ismbbgraph               1004b813 f   libucrt:ismbbyte.obj
 0001:0004a82e       __ismbbgraph_l             1004b82e f   libucrt:ismbbyte.obj
 0001:0004a84a       __ismbbkalnum              1004b84a f   libucrt:ismbbyte.obj
 0001:0004a862       __ismbbkalnum_l            1004b862 f   libucrt:ismbbyte.obj
 0001:0004a87b       __ismbbkana                1004b87b f   libucrt:ismbbyte.obj
 0001:0004a88e       __ismbbkana_l              1004b88e f   libucrt:ismbbyte.obj
 0001:0004a8dd       __ismbbkprint              1004b8dd f   libucrt:ismbbyte.obj
 0001:0004a8f5       __ismbbkprint_l            1004b8f5 f   libucrt:ismbbyte.obj
 0001:0004a90e       __ismbbkpunct              1004b90e f   libucrt:ismbbyte.obj
 0001:0004a926       __ismbbkpunct_l            1004b926 f   libucrt:ismbbyte.obj
 0001:0004a93f       __ismbblead                1004b93f f   libucrt:ismbbyte.obj
 0001:0004a957       __ismbblead_l              1004b957 f   libucrt:ismbbyte.obj
 0001:0004a970       __ismbbprint               1004b970 f   libucrt:ismbbyte.obj
 0001:0004a98b       __ismbbprint_l             1004b98b f   libucrt:ismbbyte.obj
 0001:0004a9a7       __ismbbpunct               1004b9a7 f   libucrt:ismbbyte.obj
 0001:0004a9bf       __ismbbpunct_l             1004b9bf f   libucrt:ismbbyte.obj
 0001:0004a9d8       __ismbbtrail               1004b9d8 f   libucrt:ismbbyte.obj
 0001:0004a9f0       __ismbbtrail_l             1004b9f0 f   libucrt:ismbbyte.obj
 0001:0004aa09       ___acrt_initialize_command_line 1004ba09 f   libucrt:argv_data.obj
 0001:0004aa22       ___acrt_uninitialize_command_line 1004ba22 f   libucrt:argv_data.obj
 0001:0004aa25       ___p___argc                1004ba25 f   libucrt:argv_data.obj
 0001:0004aa2b       ___p___argv                1004ba2b f   libucrt:argv_data.obj
 0001:0004aa31       ___p___wargv               1004ba31 f   libucrt:argv_data.obj
 0001:0004aa37       ___p__acmdln               1004ba37 f   libucrt:argv_data.obj
 0001:0004aa3d       ___p__pgmptr               1004ba3d f   libucrt:argv_data.obj
 0001:0004aa43       ___p__wcmdln               1004ba43 f   libucrt:argv_data.obj
 0001:0004aa49       ___p__wpgmptr              1004ba49 f   libucrt:argv_data.obj
 0001:0004aa4f       __get_pgmptr               1004ba4f f   libucrt:argv_data.obj
 0001:0004aa80       __get_wpgmptr              1004ba80 f   libucrt:argv_data.obj
 0001:0004ab15       _wcscpy_s                  1004bb15 f   libucrt:wcscpy_s.obj
 0001:0004ac14       ___dcrt_get_narrow_environment_from_os 1004bc14 f   libucrt:get_environment_from_os.obj
 0001:0004acb4       ___dcrt_get_wide_environment_from_os 1004bcb4 f   libucrt:get_environment_from_os.obj
 0001:0004b43c       ??$get_or_create_environment_nolock@$$V@?$__crt_char_traits@D@@SAPAPADXZ 1004c43c f i libucrt:setenv.obj
 0001:0004b441       ??$get_or_create_environment_nolock@$$V@?$__crt_char_traits@_W@@SAPAPA_WXZ 1004c441 f i libucrt:setenv.obj
 0001:0004b446       ??$set_environment_variable@ABQADQAD@?$__crt_char_traits@D@@SAHABQAD$$QBQAD@Z 1004c446 f i libucrt:setenv.obj
 0001:0004b45e       ??$set_environment_variable@ABQA_WQA_W@?$__crt_char_traits@_W@@SAHABQA_W$$QBQA_W@Z 1004c45e f i libucrt:setenv.obj
 0001:0004b475       ??$tcschr@ABQADD@?$__crt_char_traits@D@@SAPADABQAD$$QAD@Z 1004c475 f i libucrt:setenv.obj
 0001:0004b48f       ??$tcschr@ABQA_WD@?$__crt_char_traits@_W@@SAPA_WABQA_W$$QAD@Z 1004c48f f i libucrt:setenv.obj
 0001:0004b4ad       ??$tcscpy_s@AAPADABIAAPAD@?$__crt_char_traits@D@@SAHAAPADABI0@Z 1004c4ad f i libucrt:setenv.obj
 0001:0004b4cb       ??$tcscpy_s@AAPA_WABIAAPA_W@?$__crt_char_traits@_W@@SAHAAPA_WABI0@Z 1004c4cb f i libucrt:setenv.obj
 0001:0004b4e9       ??$tcscpy_s@ABQADABIABQAD@?$__crt_char_traits@D@@SAHABQADABI0@Z 1004c4e9 f i libucrt:setenv.obj
 0001:0004b507       ??$tcscpy_s@ABQA_WABIABQA_W@?$__crt_char_traits@_W@@SAHABQA_WABI0@Z 1004c507 f i libucrt:setenv.obj
 0001:0004b525       ??$tcslen@ABQAD@?$__crt_char_traits@D@@SAIABQAD@Z 1004c525 f i libucrt:setenv.obj
 0001:0004b53d       ??$tcslen@ABQA_W@?$__crt_char_traits@_W@@SAIABQA_W@Z 1004c53d f i libucrt:setenv.obj
 0001:0004b55b       ??$tcsnicoll@ABQBDAAPADABI@?$__crt_char_traits@D@@SAHABQBDAAPADABI@Z 1004c55b f i libucrt:setenv.obj
 0001:0004b579       ??$tcsnicoll@ABQB_WAAPA_WABI@?$__crt_char_traits@_W@@SAHABQB_WAAPA_WABI@Z 1004c579 f i libucrt:setenv.obj
 0001:0004b5bb       ?strchr@@YAPADQADH@Z       1004c5bb f i libucrt:setenv.obj
 0001:0004b5c6       ?wcschr@@YAPA_WPA_W_W@Z    1004c5c6 f i libucrt:setenv.obj
 0001:0004b5d1       ___dcrt_set_variable_in_narrow_environment_nolock 1004c5d1 f   libucrt:setenv.obj
 0001:0004b5dc       ___dcrt_set_variable_in_wide_environment_nolock 1004c5dc f   libucrt:setenv.obj
 0001:0004b5e7       __recalloc                 1004c5e7 f   libucrt:recalloc.obj
 0001:0004b5f2       __recalloc_base            1004c5f2 f   libucrt:recalloc.obj
 0001:0004b65f       ___acrt_getheap            1004c65f f   libucrt:heap_handle.obj
 0001:0004b665       ___acrt_initialize_heap    1004c665 f   libucrt:heap_handle.obj
 0001:0004b676       ___acrt_uninitialize_heap  1004c676 f   libucrt:heap_handle.obj
 0001:0004b680       __get_heap_handle          1004c680 f   libucrt:heap_handle.obj
 0001:0004b686       ___acrt_execute_initializers 1004c686 f   libucrt:shared_initialization.obj
 0001:0004b6ee       ___acrt_execute_uninitializers 1004c6ee f   libucrt:shared_initialization.obj
 0001:0004b71f       ??$?B$$A6AHI@Z@__crt_fast_encoded_nullptr_t@@QBEP6AHI@ZXZ 1004c71f f i libucrt:new_handler.obj
 0001:0004b725       ??$__crt_fast_decode_pointer@P6AHI@Z@@YAP6AHI@ZQ6AHI@Z@Z 1004c725 f i libucrt:new_handler.obj
 0001:0004b740       ??$__crt_fast_encode_pointer@P6AHI@Z@@YAP6AHI@ZQ6AHI@Z@Z 1004c740 f i libucrt:new_handler.obj
 0001:0004b75f       ?_set_new_handler@@YAP6AHI@ZH@Z 1004c75f f   libucrt:new_handler.obj
 0001:0004b76c       ?initialize@?$dual_state_global@P6AHI@Z@__crt_state_management@@QAEXQ6AHI@Z@Z 1004c76c f i libucrt:new_handler.obj
 0001:0004b788       ?value@?$dual_state_global@P6AHI@Z@__crt_state_management@@QAEAAP6AHI@ZXZ 1004c788 f i libucrt:new_handler.obj
 0001:0004b78b       ___acrt_initialize_new_handler 1004c78b f   libucrt:new_handler.obj
 0001:0004b79a       __callnewh                 1004c79a f   libucrt:new_handler.obj
 0001:0004b7c6       __query_new_handler        1004c7c6 f   libucrt:new_handler.obj
 0001:0004b81d       __set_new_handler          1004c81d f   libucrt:new_handler.obj
 0001:0004b882       ??$?B$$A6AXH@Z@__crt_fast_encoded_nullptr_t@@QBEP6AXH@ZXZ 1004c882 f i libucrt:signal.obj
 0001:0004b916       ??$__crt_fast_decode_pointer@P6AXH@Z@@YAP6AXH@ZQ6AXH@Z@Z 1004c916 f i libucrt:signal.obj
 0001:0004b931       ??$__crt_fast_encode_pointer@P6AXH@Z@@YAP6AXH@ZQ6AXH@Z@Z 1004c931 f i libucrt:signal.obj
 0001:0004ba8d       ?initialize@?$dual_state_global@P6AXH@Z@__crt_state_management@@QAEXQ6AXH@Z@Z 1004ca8d f i libucrt:signal.obj
 0001:0004bb37       ?value@?$dual_state_global@P6AXH@Z@__crt_state_management@@QAEAAP6AXH@ZXZ 1004cb37 f i libucrt:signal.obj
 0001:0004bb3a       ___acrt_get_sigabrt_handler 1004cb3a f   libucrt:signal.obj
 0001:0004bb61       ___acrt_initialize_signal_handlers 1004cb61 f   libucrt:signal.obj
 0001:0004bb7f       ___fpecode                 1004cb7f f   libucrt:signal.obj
 0001:0004bb88       ___pxcptinfoptrs           1004cb88 f   libucrt:signal.obj
 0001:0004bb91       _raise                     1004cb91 f   libucrt:signal.obj
 0001:0004bd83       _signal                    1004cd83 f   libucrt:signal.obj
 0001:0004bf47       ??$__crt_fast_decode_pointer@P6AHPAU_exception@@@Z@@YAP6AHPAU_exception@@@ZQ6AH0@Z@Z 1004cf47 f i libucrt:matherr.obj
 0001:0004bf62       ??$__crt_fast_encode_pointer@P6AHPAU_exception@@@Z@@YAP6AHPAU_exception@@@ZQ6AH0@Z@Z 1004cf62 f i libucrt:matherr.obj
 0001:0004bf81       ?initialize@?$dual_state_global@P6AHPAU_exception@@@Z@__crt_state_management@@QAEXQ6AHPAU_exception@@@Z@Z 1004cf81 f i libucrt:matherr.obj
 0001:0004bf9d       ?value@?$dual_state_global@P6AHPAU_exception@@@Z@__crt_state_management@@QAEAAP6AHPAU_exception@@@ZXZ 1004cf9d f i libucrt:matherr.obj
 0001:0004bfa0       ___acrt_has_user_matherr   1004cfa0 f   libucrt:matherr.obj
 0001:0004bfbd       ___acrt_initialize_user_matherr 1004cfbd f   libucrt:matherr.obj
 0001:0004bfcc       ___acrt_invoke_user_matherr 1004cfcc f   libucrt:matherr.obj
 0001:0004c002       ___setusermatherr          1004d002 f   libucrt:matherr.obj
 0001:0004c017       ___pctype_func             1004d017 f   libucrt:ctype.obj
 0001:0004c03b       ___pwctype_func            1004d03b f   libucrt:ctype.obj
 0001:0004c041       __iswctype_l               1004d041 f   libucrt:iswctype.obj
 0001:0004c055       _iswctype                  1004d055 f   libucrt:iswctype.obj
 0001:0004c0be       __isctype                  1004d0be f   libucrt:isctype.obj
 0001:0004c0f1       __isctype_l                1004d0f1 f   libucrt:isctype.obj
 0001:0004c25c       ___acrt_report_runtime_error 1004d25c f   libucrt:report_runtime_error.obj
 0001:0004c371       __query_app_type           1004d371 f   libucrt:report_runtime_error.obj
 0001:0004c377       __set_app_type             1004d377 f   libucrt:report_runtime_error.obj
 0001:0004c386       ___acrt_add_locale_ref     1004d386 f   libucrt:locale_refcounting.obj
 0001:0004c403       ___acrt_free_locale        1004d403 f   libucrt:locale_refcounting.obj
 0001:0004c54b       ___acrt_locale_add_lc_time_reference 1004d54b f   libucrt:locale_refcounting.obj
 0001:0004c574       ___acrt_locale_free_lc_time_if_unreferenced 1004d574 f   libucrt:locale_refcounting.obj
 0001:0004c5a5       ___acrt_locale_release_lc_time_reference 1004d5a5 f   libucrt:locale_refcounting.obj
 0001:0004c5ce       ___acrt_release_locale_ref 1004d5ce f   libucrt:locale_refcounting.obj
 0001:0004c64f       ___acrt_update_thread_locale_data 1004d64f f   libucrt:locale_refcounting.obj
 0001:0004c6d0       __updatetlocinfoEx_nolock  1004d6d0 f   libucrt:locale_refcounting.obj
 0001:0004c720       ??$?RG@__crt_internal_free_policy@@QBEXQBG@Z 1004d720 f i libucrt:initctype.obj
 0001:0004c732       ??$?RJ@__crt_internal_free_policy@@QBEXQBJ@Z 1004d732 f i libucrt:initctype.obj
 0001:0004c744       ??0?$__crt_unique_heap_ptr@GU__crt_internal_free_policy@@@@QAE@QAG@Z 1004d744 f i libucrt:initctype.obj
 0001:0004c754       ??0?$__crt_unique_heap_ptr@JU__crt_internal_free_policy@@@@QAE@QAJ@Z 1004d754 f i libucrt:initctype.obj
 0001:0004c764       ??1?$__crt_unique_heap_ptr@GU__crt_internal_free_policy@@@@QAE@XZ 1004d764 f i libucrt:initctype.obj
 0001:0004c776       ??1?$__crt_unique_heap_ptr@JU__crt_internal_free_policy@@@@QAE@XZ 1004d776 f i libucrt:initctype.obj
 0001:0004c788       ?detach@?$__crt_unique_heap_ptr@GU__crt_internal_free_policy@@@@QAEPAGXZ 1004d788 f i libucrt:initctype.obj
 0001:0004c78e       ?detach@?$__crt_unique_heap_ptr@JU__crt_internal_free_policy@@@@QAEPAJXZ 1004d78e f i libucrt:initctype.obj
 0001:0004c794       ?release@?$__crt_unique_heap_ptr@GU__crt_internal_free_policy@@@@QAEXXZ 1004d794 f i libucrt:initctype.obj
 0001:0004c7a6       ?release@?$__crt_unique_heap_ptr@JU__crt_internal_free_policy@@@@QAEXXZ 1004d7a6 f i libucrt:initctype.obj
 0001:0004c7b8       ____lc_codepage_func       1004d7b8 f   libucrt:initctype.obj
 0001:0004c7dd       ____lc_collate_cp_func     1004d7dd f   libucrt:initctype.obj
 0001:0004c802       ____lc_locale_name_func    1004d802 f   libucrt:initctype.obj
 0001:0004c829       ____mb_cur_max_func        1004d829 f   libucrt:initctype.obj
 0001:0004c84e       ____mb_cur_max_l_func      1004d84e f   libucrt:initctype.obj
 0001:0004c867       ___acrt_locale_initialize_ctype 1004d867 f   libucrt:initctype.obj
 0001:0004ccc4       ??$?RUlconv@@@__crt_internal_free_policy@@QBEXQBUlconv@@@Z 1004dcc4 f i libucrt:initmon.obj
 0001:0004ccd6       ??0?$__crt_unique_heap_ptr@Ulconv@@U__crt_internal_free_policy@@@@QAE@QAUlconv@@@Z 1004dcd6 f i libucrt:initmon.obj
 0001:0004cce6       ??1?$__crt_unique_heap_ptr@Ulconv@@U__crt_internal_free_policy@@@@QAE@XZ 1004dce6 f i libucrt:initmon.obj
 0001:0004ccf8       ?detach@?$__crt_unique_heap_ptr@Ulconv@@U__crt_internal_free_policy@@@@QAEPAUlconv@@XZ 1004dcf8 f i libucrt:initmon.obj
 0001:0004ccfe       ?release@?$__crt_unique_heap_ptr@Ulconv@@U__crt_internal_free_policy@@@@QAEXXZ 1004dcfe f i libucrt:initmon.obj
 0001:0004cd10       ___acrt_locale_free_monetary 1004dd10 f   libucrt:initmon.obj
 0001:0004ce0e       ___acrt_locale_initialize_monetary 1004de0e f   libucrt:initmon.obj
 0001:0004d1a6       ___acrt_locale_free_numeric 1004e1a6 f   libucrt:initnum.obj
 0001:0004d20f       ___acrt_locale_initialize_numeric 1004e20f f   libucrt:initnum.obj
 0001:0004d463       ??$?RU__crt_lc_time_data@@@__crt_internal_free_policy@@QBEXQBU__crt_lc_time_data@@@Z 1004e463 f i libucrt:inittime.obj
 0001:0004d4e7       ??0?$__crt_unique_heap_ptr@U__crt_lc_time_data@@U__crt_internal_free_policy@@@@QAE@QAU__crt_lc_time_data@@@Z 1004e4e7 f i libucrt:inittime.obj
 0001:0004d4f7       ??1?$__crt_unique_heap_ptr@U__crt_lc_time_data@@U__crt_internal_free_policy@@@@QAE@XZ 1004e4f7 f i libucrt:inittime.obj
 0001:0004d509       ??B?$__crt_unique_heap_ptr@U__crt_lc_time_data@@U__crt_internal_free_policy@@@@QBE_NXZ 1004e509 f i libucrt:inittime.obj
 0001:0004d510       ?detach@?$__crt_unique_heap_ptr@U__crt_lc_time_data@@U__crt_internal_free_policy@@@@QAEPAU__crt_lc_time_data@@XZ 1004e510 f i libucrt:inittime.obj
 0001:0004d53b       ?get@?$__crt_unique_heap_ptr@U__crt_lc_time_data@@U__crt_internal_free_policy@@@@QBEPAU__crt_lc_time_data@@XZ 1004e53b f i libucrt:inittime.obj
 0001:0004d826       ?is_valid@?$__crt_unique_heap_ptr@U__crt_lc_time_data@@U__crt_internal_free_policy@@@@QBE_NXZ 1004e826 f i libucrt:inittime.obj
 0001:0004d82d       ?release@?$__crt_unique_heap_ptr@U__crt_lc_time_data@@U__crt_internal_free_policy@@@@QAEXXZ 1004e82d f i libucrt:inittime.obj
 0001:0004d83f       ___acrt_locale_free_time   1004e83f f   libucrt:inittime.obj
 0001:0004d923       ___acrt_locale_initialize_time 1004e923 f   libucrt:inittime.obj
 0001:0004da0e       _wcscat_s                  1004ea0e f   libucrt:wcscat_s.obj
 0001:0004db65       _wcsncat_s                 1004eb65 f   libucrt:wcsncat_s.obj
 0001:0004dc3e       _wcsncpy_s                 1004ec3e f   libucrt:wcsncpy_s.obj
 0001:0004dc49       _wcscspn                   1004ec49 f   libucrt:wcscspn.obj
 0001:0004dca2       _wcspbrk                   1004eca2 f   libucrt:wcspbrk.obj
 0001:0004dcf0       ??0?$__crt_scoped_stack_ptr@_W@@QAE@U?$__crt_scoped_stack_ptr_tag@_W@@@Z 1004ecf0 f i libucrt:getstringtypea.obj
 0001:0004dd00       ??0?$__crt_scoped_stack_ptr_tag@_W@@QAE@QA_W@Z 1004ed00 f i libucrt:getstringtypea.obj
 0001:0004dd10       ??1?$__crt_scoped_stack_ptr@_W@@QAE@XZ 1004ed10 f i libucrt:getstringtypea.obj
 0001:0004dd19       ?get@?$__crt_scoped_stack_ptr@_W@@QBEPA_WXZ 1004ed19 f i libucrt:getstringtypea.obj
 0001:0004dd1c       __MallocaComputeSize       1004ed1c f i libucrt:getstringtypea.obj
 0001:0004dd2f       __MarkAllocaS              1004ed2f f i libucrt:getstringtypea.obj
 0001:0004dd45       ___acrt_GetStringTypeA     1004ed45 f   libucrt:getstringtypea.obj
 0001:0004de46       __freea_crt                1004ee46 f i libucrt:getstringtypea.obj
 0001:0004e5a6       ___acrt_get_qualified_locale 1004f5a6 f   libucrt:get_qualified_locale.obj
 0001:0004ef39       ___acrt_get_qualified_locale_downlevel 1004ff39 f   libucrt:getqloc_downlevel.obj
 0001:0004f129       _localeconv                10050129 f   libucrt:localeconv.obj
 0001:0004f151       ?value@?$dual_state_global@J@__crt_state_management@@QAEAAJXZ 10050151 f i libucrt:new_mode.obj
 0001:0004f154       __query_new_mode           10050154 f   libucrt:new_mode.obj
 0001:0004f15b       __set_new_mode             1005015b f   libucrt:new_mode.obj
 0001:0004f18a       ?dangerous_get_state_array@?$dual_state_global@H@__crt_state_management@@QAEPAHXZ 1005018a f i libucrt:txtmode.obj
 0001:0004f18d       ___acrt_initialize_fmode   1005018d f   libucrt:txtmode.obj
 0001:0004f1a3       ___p__fmode                100501a3 f   libucrt:txtmode.obj
 0001:0004f230       ___acrt_DownlevelLCIDToLocaleName 10050230 f   libucrt:lcidtoname_downlevel.obj
 0001:0004f2d3       ___acrt_DownlevelLocaleNameToLCID 100502d3 f   libucrt:lcidtoname_downlevel.obj
 0001:0004f2ff       ?__c16rtomb_utf8@__crt_mbstring@@YAIPAD_SPAU_Mbstatet@@AAV__crt_cached_ptd_host@@@Z 100502ff f   libucrt:c16rtomb.obj
 0001:0004f420       _c16rtomb                  10050420 f   libucrt:c16rtomb.obj
 0001:0004f457       ?__c32rtomb_utf8@__crt_mbstring@@YAIPAD_UPAU_Mbstatet@@AAV__crt_cached_ptd_host@@@Z 10050457 f   libucrt:c32rtomb.obj
 0001:0004f507       _c32rtomb                  10050507 f   libucrt:c32rtomb.obj
 0001:0004f5ef       ___acrt_fp_strflt_to_string 100505ef f   libucrt:_fptostr.obj
 0001:000509b0       ??0big_integer@__crt_strtox@@QAE@ABU01@@Z 100519b0 f i libucrt:cfout.obj
 0001:000509f0       ??0big_integer@__crt_strtox@@QAE@XZ 100519f0 f i libucrt:cfout.obj
 0001:00050a80       ??4big_integer@__crt_strtox@@QAEAAU01@ABU01@@Z 10051a80 f i libucrt:cfout.obj
 0001:00050ac0       ??8__crt_strtox@@YA_NABUbig_integer@0@0@Z 10051ac0 f i libucrt:cfout.obj
 0001:00050b00       ??9__crt_strtox@@YA_NABUbig_integer@0@0@Z 10051b00 f i libucrt:cfout.obj
 0001:00050b40       ?add_carry@__crt_strtox@@YAIAAIII@Z 10051b40 f i libucrt:cfout.obj
 0001:00050b60       ?add_multiply_carry@__crt_strtox@@YAIAAIIII@Z 10051b60 f i libucrt:cfout.obj
 0001:00050b90       ?bit_scan_reverse@__crt_strtox@@YAII@Z 10051b90 f i libucrt:cfout.obj
 0001:00050bb0       ?count_sequential_high_zeroes@__crt_strtox@@YAII@Z 10051bb0 f i libucrt:cfout.obj
 0001:00050bd0       ?divide@__crt_strtox@@YA_KAAUbig_integer@1@ABU21@@Z 10051bd0 f i libucrt:cfout.obj
 0001:00051080       ?is_zero@__crt_strtox@@YA_NABUbig_integer@1@@Z 10052080 f i libucrt:cfout.obj
 0001:00051090       ?make_big_integer@__crt_strtox@@YA?AUbig_integer@1@_K@Z 10052090 f i libucrt:cfout.obj
 0001:000510b0       ?make_big_integer_power_of_two@__crt_strtox@@YA?AUbig_integer@1@I@Z 100520b0 f i libucrt:cfout.obj
 0001:00051100       ?multiply@__crt_strtox@@YA_NAAUbig_integer@1@ABU21@@Z 10052100 f i libucrt:cfout.obj
 0001:00051460       ?multiply@__crt_strtox@@YA_NAAUbig_integer@1@I@Z 10052460 f i libucrt:cfout.obj
 0001:00051530       ?multiply_64_32@__crt_strtox@@YA_K_KI@Z 10052530 f i libucrt:cfout.obj
 0001:00051550       ?multiply_by_power_of_ten@__crt_strtox@@YA_NAAUbig_integer@1@I@Z 10052550 f i libucrt:cfout.obj
 0001:00051ae0       ?multiply_core@__crt_strtox@@YAIQAIII@Z 10052ae0 f i libucrt:cfout.obj
 0001:00051b20       ?shift_left@__crt_strtox@@YA_NAAUbig_integer@1@I@Z 10052b20 f i libucrt:cfout.obj
 0001:00051c4f       ___acrt_fltout             10052c4f f   libucrt:cfout.obj
 0001:000532b8       ___fpe_flt_rounds          100542b8 f   libucrt:fegetround.obj
 0001:000532ec       _fegetround                100542ec f   libucrt:fegetround.obj
 0001:000532f9       __fcloseall                100542f9 f   libucrt:closeall.obj
 0001:000533a4       ?__mbrtoc32_utf8@__crt_mbstring@@YAIPA_UPBDIPAU_Mbstatet@@AAV__crt_cached_ptd_host@@@Z 100543a4 f   libucrt:mbrtoc32.obj
 0001:00053555       _mbrtoc32                  10054555 f   libucrt:mbrtoc32.obj
 0001:0005363f       ___dcrt_lowio_ensure_console_output_initialized 1005463f f   libucrt:initcon.obj
 0001:0005365e       ___dcrt_terminate_console_output 1005465e f   libucrt:initcon.obj
 0001:00053675       ___dcrt_write_console      10054675 f   libucrt:initcon.obj
 0001:000536ca       ___ascii_wcsnicmp          100546ca f   libucrt:wcsnicmp.obj
 0001:00053719       __towlower_fast_internal   10054719 f i libucrt:wcsnicmp.obj
 0001:00053744       __towlower_internal        10054744 f i libucrt:wcsnicmp.obj
 0001:00053783       __wcsnicmp                 10054783 f   libucrt:wcsnicmp.obj
 0001:000537cf       __wcsnicmp_l               100547cf f   libucrt:wcsnicmp.obj
 0001:000538a2       __strnicmp                 100548a2 f   libucrt:strnicmp.obj
 0001:0005390f       __strnicmp_l               1005490f f   libucrt:strnicmp.obj
 0001:000539da       ___p__commode              100549da f   libucrt:ncommode.obj
 0001:00053b43       __commit                   10054b43 f   libucrt:commit.obj
 0001:00053bc0       ___acrt_stdio_allocate_buffer_nolock 10054bc0 f   libucrt:_getbuf.obj
 0001:00053ce0       _qsort                     10054ce0 f   libucrt:qsort.obj
 0001:000541d0       _strpbrk                   100551d0 f   libucrt:strpbrk.obj
 0001:00054210       __mbsdec                   10055210 f   libucrt:mbsdec.obj
 0001:00054227       __mbsdec_l                 10055227 f   libucrt:mbsdec.obj
 0001:000542b4       ??B?$__crt_scoped_stack_ptr@_W@@QBE_NXZ 100552b4 f i libucrt:lcmapstringa.obj
 0001:000544aa       ___acrt_LCMapStringA       100554aa f   libucrt:lcmapstringa.obj
 0001:00054502       __wcsnicoll                10055502 f   libucrt:wcsnicol.obj
 0001:0005456f       __wcsnicoll_l              1005556f f   libucrt:wcsnicol.obj
 0001:0005462f       __strnicoll                1005562f f   libucrt:strnicol.obj
 0001:00054658       __strnicoll_l              10055658 f   libucrt:strnicol.obj
 0001:00054720       ___acrt_SetEnvironmentVariableA 10055720 f   libucrt:setenvironmentvariablea.obj
 0001:000547b5       __msize                    100557b5 f   libucrt:msize.obj
 0001:000547c0       __msize_base               100557c0 f   libucrt:msize.obj
 0001:000547f3       __realloc_base             100557f3 f   libucrt:realloc_base.obj
 0001:0005485c       ___acrt_GetStringTypeW     1005585c f   libucrt:getstringtypew.obj
 0001:00054875       __set_error_mode           10055875 f   libucrt:set_error_mode.obj
 0001:000549b7       ??$message_box@$$TABQBDABQBDK@?$__crt_char_traits@D@@SAH$$QA$$TABQBD1$$QAK@Z 100559b7 f i libucrt:crtmbox.obj
 0001:000549d7       ??$message_box@$$TABQB_WABQB_WK@?$__crt_char_traits@_W@@SAH$$QA$$TABQB_W1$$QAK@Z 100559d7 f i libucrt:crtmbox.obj
 0001:000549f7       ??$message_box@PAUHWND__@@ABQBDABQBDABI@?$__crt_char_traits@D@@SAH$$QAPAUHWND__@@ABQBD1ABI@Z 100559f7 f i libucrt:crtmbox.obj
 0001:00054a17       ??$message_box@PAUHWND__@@ABQB_WABQB_WABI@?$__crt_char_traits@_W@@SAH$$QAPAUHWND__@@ABQB_W1ABI@Z 10055a17 f i libucrt:crtmbox.obj
 0001:00054a37       ??$output_debug_string@ABQBD@?$__crt_char_traits@D@@SAXABQBD@Z 10055a37 f i libucrt:crtmbox.obj
 0001:00054a48       ??$output_debug_string@ABQB_W@?$__crt_char_traits@_W@@SAXABQB_W@Z 10055a48 f i libucrt:crtmbox.obj
 0001:00054a5a       ___acrt_show_narrow_message_box 10055a5a f   libucrt:crtmbox.obj
 0001:00054a65       ___acrt_show_wide_message_box 10055a65 f   libucrt:crtmbox.obj
 0001:00054b4f       ___acrt_GetLocaleInfoA     10055b4f f   libucrt:getlocaleinfoa.obj
 0001:00055201       __i64toa                   10056201 f   libucrt:xtoa.obj
 0001:00055242       __i64toa_s                 10056242 f   libucrt:xtoa.obj
 0001:00055281       __i64tow                   10056281 f   libucrt:xtoa.obj
 0001:000552c2       __i64tow_s                 100562c2 f   libucrt:xtoa.obj
 0001:00055301       __itoa                     10056301 f   libucrt:xtoa.obj
 0001:00055336       __itoa_s                   10056336 f   libucrt:xtoa.obj
 0001:00055369       __itow                     10056369 f   libucrt:xtoa.obj
 0001:0005539e       __itow_s                   1005639e f   libucrt:xtoa.obj
 0001:000553d1       __ltoa                     100563d1 f   libucrt:xtoa.obj
 0001:00055406       __ltoa_s                   10056406 f   libucrt:xtoa.obj
 0001:00055439       __ltow                     10056439 f   libucrt:xtoa.obj
 0001:0005546e       __ltow_s                   1005646e f   libucrt:xtoa.obj
 0001:000554a1       __ui64toa                  100564a1 f   libucrt:xtoa.obj
 0001:000554c3       __ui64toa_s                100564c3 f   libucrt:xtoa.obj
 0001:000554e3       __ui64tow                  100564e3 f   libucrt:xtoa.obj
 0001:00055505       __ui64tow_s                10056505 f   libucrt:xtoa.obj
 0001:00055525       __ultoa                    10056525 f   libucrt:xtoa.obj
 0001:00055544       __ultoa_s                  10056544 f   libucrt:xtoa.obj
 0001:00055561       __ultow                    10056561 f   libucrt:xtoa.obj
 0001:00055580       __ultow_s                  10056580 f   libucrt:xtoa.obj
 0001:0005559d       ___ascii_wcsicmp           1005659d f   libucrt:wcsicmp.obj
 0001:000555da       __wcsicmp                  100565da f   libucrt:wcsicmp.obj
 0001:00055623       __wcsicmp_l                10056623 f   libucrt:wcsicmp.obj
 0001:000556db       ?reset_and_return@__crt_mbstring@@YAIIPAU_Mbstatet@@@Z 100566db f   libucrt:common_utf8.obj
 0001:000556ef       ?return_illegal_sequence@__crt_mbstring@@YAIPAU_Mbstatet@@AAV__crt_cached_ptd_host@@@Z 100566ef f   libucrt:common_utf8.obj
 0001:00055711       __controlfp_s              10056711 f   libucrt:contrlfp.obj
 0001:00055770       _fegetenv                  10056770 f   libucrt:fegetenv.obj
 0001:0005578d       _fesetenv                  1005678d f   libucrt:fesetenv.obj
 0001:000557d9       _feholdexcept              100567d9 f   libucrt:feholdexcept.obj
 0001:00055830       __CIlog10                  10056830 f   libucrt:log10_impl.obj
 0001:0005586b       __CIlog10_default          1005686b f   libucrt:log10_impl.obj
 0001:0005587f       __log10_default            1005687f     libucrt:log10_impl.obj
 0001:00055940       _ceil                      10056940 f   libucrt:ceil_pentium4.obj
 0001:00055980       __ceil_pentium4            10056980 f   libucrt:ceil_pentium4.obj
 0001:00055a5d       ??$__acrt_fenv_shift_bits@W4__acrt_fenv_abstract_control@@@@YA?AW4__acrt_fenv_abstract_control@@W40@0I@Z 10056a5d f i libucrt:_fenvutils.obj
 0001:00055a6f       ??$__acrt_fenv_shift_bits@W4__acrt_fenv_abstract_status@@@@YA?AW4__acrt_fenv_abstract_status@@W40@0I@Z 10056a6f f i libucrt:_fenvutils.obj
 0001:00055a81       ??$__acrt_fenv_translate_bit@W4__acrt_fenv_abstract_control@@W4__acrt_fenv_machine_sse_control@@@@YA?AW4__acrt_fenv_abstract_control@@W4__acrt_fenv_machine_sse_control@@0W40@1@Z 10056a81 f i libucrt:_fenvutils.obj
 0001:00055a99       ??$__acrt_fenv_translate_bit@W4__acrt_fenv_abstract_control@@W4__acrt_fenv_machine_x87_control@@@@YA?AW4__acrt_fenv_abstract_control@@W4__acrt_fenv_machine_x87_control@@0W40@1@Z 10056a99 f i libucrt:_fenvutils.obj
 0001:00055ab1       ??$__acrt_fenv_translate_bit@W4__acrt_fenv_abstract_status@@W4__acrt_fenv_machine_sse_status@@@@YA?AW4__acrt_fenv_abstract_status@@W4__acrt_fenv_machine_sse_status@@0W40@1@Z 10056ab1 f i libucrt:_fenvutils.obj
 0001:00055ac6       ??$__acrt_fenv_translate_bit@W4__acrt_fenv_abstract_status@@W4__acrt_fenv_machine_x87_status@@@@YA?AW4__acrt_fenv_abstract_status@@W4__acrt_fenv_machine_x87_status@@0W40@1@Z 10056ac6 f i libucrt:_fenvutils.obj
 0001:00055adb       ??$__acrt_fenv_translate_bit@W4__acrt_fenv_machine_sse_control@@W4__acrt_fenv_abstract_control@@@@YA?AW4__acrt_fenv_machine_sse_control@@W4__acrt_fenv_abstract_control@@0W40@1@Z 10056adb f i libucrt:_fenvutils.obj
 0001:00055af2       ??$__acrt_fenv_translate_bit@W4__acrt_fenv_machine_sse_status@@W4__acrt_fenv_abstract_status@@@@YA?AW4__acrt_fenv_machine_sse_status@@W4__acrt_fenv_abstract_status@@0W40@1@Z 10056af2 f i libucrt:_fenvutils.obj
 0001:00055b07       ??$__acrt_fenv_translate_bit@W4__acrt_fenv_machine_x87_control@@W4__acrt_fenv_abstract_control@@@@YA?AW4__acrt_fenv_machine_x87_control@@W4__acrt_fenv_abstract_control@@0W40@1@Z 10056b07 f i libucrt:_fenvutils.obj
 0001:00055b1e       ??$__acrt_fenv_translate_bit@W4__acrt_fenv_machine_x87_status@@W4__acrt_fenv_abstract_status@@@@YA?AW4__acrt_fenv_machine_x87_status@@W4__acrt_fenv_abstract_status@@0W40@1@Z 10056b1e f i libucrt:_fenvutils.obj
 0001:00055b33       ??$__acrt_fenv_unshift_bits@W4__acrt_fenv_abstract_control@@@@YA?AW4__acrt_fenv_abstract_control@@W40@0I@Z 10056b33 f i libucrt:_fenvutils.obj
 0001:00055b45       ??$__acrt_fenv_unshift_bits@W4__acrt_fenv_abstract_status@@@@YA?AW4__acrt_fenv_abstract_status@@W40@0I@Z 10056b45 f i libucrt:_fenvutils.obj
 0001:00055f3a       ??I@YA?AW4__acrt_fenv_abstract_control@@W40@0@Z 10056f3a f i libucrt:_fenvutils.obj
 0001:00055f47       ??I@YA?AW4__acrt_fenv_abstract_status@@W40@0@Z 10056f47 f i libucrt:_fenvutils.obj
 0001:00055f54       ??I@YA?AW4__acrt_fenv_machine_sse_control@@W40@0@Z 10056f54 f i libucrt:_fenvutils.obj
 0001:00055f61       ??I@YA?AW4__acrt_fenv_machine_sse_status@@W40@0@Z 10056f61 f i libucrt:_fenvutils.obj
 0001:00055f6e       ??I@YA?AW4__acrt_fenv_machine_x87_control@@W40@0@Z 10056f6e f i libucrt:_fenvutils.obj
 0001:00055f7b       ??I@YA?AW4__acrt_fenv_machine_x87_status@@W40@0@Z 10056f7b f i libucrt:_fenvutils.obj
 0001:00055f88       ??U@YA?AW4__acrt_fenv_abstract_control@@W40@0@Z 10056f88 f i libucrt:_fenvutils.obj
 0001:00055f95       ??U@YA?AW4__acrt_fenv_abstract_status@@W40@0@Z 10056f95 f i libucrt:_fenvutils.obj
 0001:00055fa2       ??U@YA?AW4__acrt_fenv_machine_sse_control@@W40@0@Z 10056fa2 f i libucrt:_fenvutils.obj
 0001:00055faf       ??U@YA?AW4__acrt_fenv_machine_x87_control@@W40@0@Z 10056faf f i libucrt:_fenvutils.obj
 0001:00055fbc       ??_5@YAAAW4__acrt_fenv_abstract_control@@AAW40@W40@@Z 10056fbc f i libucrt:_fenvutils.obj
 0001:00055fcb       ??_5@YAAAW4__acrt_fenv_abstract_status@@AAW40@W40@@Z 10056fcb f i libucrt:_fenvutils.obj
 0001:00055fda       ??_5@YAAAW4__acrt_fenv_machine_sse_control@@AAW40@W40@@Z 10056fda f i libucrt:_fenvutils.obj
 0001:00055feb       ??_5@YAAAW4__acrt_fenv_machine_sse_status@@AAW40@W40@@Z 10056feb f i libucrt:_fenvutils.obj
 0001:00055ffa       ??_5@YAAAW4__acrt_fenv_machine_x87_control@@AAW40@W40@@Z 10056ffa f i libucrt:_fenvutils.obj
 0001:0005600b       ??_5@YAAAW4__acrt_fenv_machine_x87_status@@AAW40@W40@@Z 1005700b f i libucrt:_fenvutils.obj
 0001:0005601a       ?__acrt_fenv_shift_abstract_sse_control@@YA?AW4__acrt_fenv_abstract_control@@W41@@Z 1005701a f i libucrt:_fenvutils.obj
 0001:00056037       ?__acrt_fenv_shift_abstract_sse_status@@YA?AW4__acrt_fenv_abstract_status@@W41@@Z 10057037 f i libucrt:_fenvutils.obj
 0001:00056047       ?__acrt_fenv_shift_abstract_x87_control@@YA?AW4__acrt_fenv_abstract_control@@W41@@Z 10057047 f i libucrt:_fenvutils.obj
 0001:00056064       ?__acrt_fenv_shift_abstract_x87_status@@YA?AW4__acrt_fenv_abstract_status@@W41@@Z 10057064 f i libucrt:_fenvutils.obj
 0001:00056074       ?__acrt_fenv_unshift_abstract_sse_control@@YA?AW4__acrt_fenv_abstract_control@@W41@@Z 10057074 f i libucrt:_fenvutils.obj
 0001:00056093       ?__acrt_fenv_unshift_abstract_sse_status@@YA?AW4__acrt_fenv_abstract_status@@W41@@Z 10057093 f i libucrt:_fenvutils.obj
 0001:000560a3       ?__acrt_fenv_unshift_abstract_x87_control@@YA?AW4__acrt_fenv_abstract_control@@W41@@Z 100570a3 f i libucrt:_fenvutils.obj
 0001:000560c2       ?__acrt_fenv_unshift_abstract_x87_status@@YA?AW4__acrt_fenv_abstract_status@@W41@@Z 100570c2 f i libucrt:_fenvutils.obj
 0001:000565d5       ___acrt_fenv_expand_round_control 100575d5 f   libucrt:_fenvutils.obj
 0001:0005660b       ___acrt_fenv_get_common_round_control 1005760b f   libucrt:_fenvutils.obj
 0001:0005662d       ___acrt_fenv_get_control   1005762d f   libucrt:_fenvutils.obj
 0001:000566ad       ___acrt_fenv_get_fp_status_word_from_exception_mask 100576ad f   libucrt:_fenvutils.obj
 0001:000566c7       ___acrt_fenv_get_status    100576c7 f   libucrt:_fenvutils.obj
 0001:00056771       ___acrt_fenv_set_control   10057771 f   libucrt:_fenvutils.obj
 0001:000567ec       ___acrt_fenv_set_status    100577ec f   libucrt:_fenvutils.obj
 0001:000568e8       __towlower_l               100578e8 f   libucrt:towlower.obj
 0001:000569bc       _towlower                  100579bc f   libucrt:towlower.obj
 0001:000569d0       ___ascii_strnicmp          100579d0 f   libucrt:_strnicm.obj
 0001:00056a31       ___strncnt                 10057a31 f   libucrt:strncnt.obj
 0001:00056a4d       ___acrt_CompareStringW     10057a4d f   libucrt:comparestringw.obj
 0001:00056d51       ___acrt_CompareStringA     10057d51 f   libucrt:comparestringa.obj
 0001:00056d97       ___acrt_OutputDebugStringA@4 10057d97 f   libucrt:outputdebugstringa.obj
 0001:00056f49       ___control87_2             10057f49 f   libucrt:ieee87.obj
 0001:000573e1       ___fpreset_sse2            100583e1 f   libucrt:ieee87.obj
 0001:000575b7       __clearfp                  100585b7 f   libucrt:ieee87.obj
 0001:00057695       __control87                10058695 f   libucrt:ieee87.obj
 0001:00057996       __controlfp                10058996 f   libucrt:ieee87.obj
 0001:000579b0       __fpreset                  100589b0 f   libucrt:ieee87.obj
 0001:00057a86       __set_controlfp            10058a86 f   libucrt:ieee87.obj
 0001:00057af9       __statusfp                 10058af9 f   libucrt:ieee87.obj
 0001:00057b94       __statusfp2                10058b94 f   libucrt:ieee87.obj
 0001:00057bf7       ___acrt_initialize_sse2    10058bf7 f   libucrt:mathfcns.obj
 0001:00057c07       __set_SSE2_enable          10058c07 f   libucrt:mathfcns.obj
 0001:00057c30       __CIlog10_pentium4         10058c30 f   libucrt:log10_pentium4.obj
 0001:00057c48       __log10_pentium4           10058c48     libucrt:log10_pentium4.obj
 0001:00057ee0       __fFEXP                    10058ee0 f   libucrt:87tran.obj
 0001:00057f37       __rtinfpopse               10058f37     libucrt:87tran.obj
 0001:00057f39       __rtinfnpopse              10058f39     libucrt:87tran.obj
 0001:00057f49       __fFLN                     10058f49     libucrt:87tran.obj
 0001:00057ffe       __rtinfpop                 10058ffe     libucrt:87tran.obj
 0001:00058000       __rtinfnpop                10059000     libucrt:87tran.obj
 0001:00058010       __rtforexpinf              10059010 f   libucrt:87tran.obj
 0001:0005801d       __ffexpm1                  1005901d     libucrt:87tran.obj
 0001:000580d0       __trandisp1                100590d0 f   libucrt:87disp.obj
 0001:00058145       __trandisp2                10059145 f   libucrt:87disp.obj
 0001:000581df       __rttospopde               100591df     libucrt:87disp.obj
 0001:000581e4       __rttospop                 100591e4     libucrt:87disp.obj
 0001:000581f0       __rtnospop                 100591f0 f   libucrt:87disp.obj
 0001:00058200       __rttosnpop                10059200 f   libucrt:87disp.obj
 0001:00058201       __rtnospopde               10059201     libucrt:87disp.obj
 0001:00058208       __rtzeropop                10059208     libucrt:87disp.obj
 0001:0005820a       __rtzeronpop               1005920a     libucrt:87disp.obj
 0001:00058210       __rtzerospop               10059210 f   libucrt:87disp.obj
 0001:0005821d       __rtonepop                 1005921d     libucrt:87disp.obj
 0001:00058220       __rtonenpop                10059220 f   libucrt:87disp.obj
 0001:00058230       __tosnan1                  10059230 f   libucrt:87disp.obj
 0001:00058260       __nosnan2                  10059260 f   libucrt:87disp.obj
 0001:00058270       __tosnan2                  10059270 f   libucrt:87disp.obj
 0001:000582a0       __nan2                     100592a0 f   libucrt:87disp.obj
 0001:000582e0       __rtindfpop                100592e0 f   libucrt:87disp.obj
 0001:000582e2       __rtindfnpop               100592e2     libucrt:87disp.obj
 0001:000582f3       __rttosnpopde              100592f3     libucrt:87disp.obj
 0001:00058300       __rtatan2inf               10059300 f   libucrt:87disp.obj
 0001:0005831d       __rtchsifneg               1005931d     libucrt:87disp.obj
 0001:00058324       ___setfflag                10059324 f   libucrt:fp_flags.obj
 0001:00058340       __twoToTOS                 10059340 f   libucrt:common.obj
 0001:00058355       __load_CW                  10059355 f   libucrt:common.obj
 0001:0005836c       __convertTOStoQNaN         1005936c f   libucrt:common.obj
 0001:00058385       __fload_withFB             10059385 f   libucrt:common.obj
 0001:000583c8       __checkTOS_withFB          100593c8 f   libucrt:common.obj
 0001:000583de       __fast_exit                100593de f   libucrt:common.obj
 0001:000583eb       __math_exit                100593eb f   libucrt:common.obj
 0001:00058415       __check_overflow_exit      10059415 f   libucrt:common.obj
 0001:00058429       __check_range_exit         10059429 f   libucrt:common.obj
 0001:000584d0       __startTwoArgErrorHandling 100594d0 f   libucrt:genexcep.obj
 0001:000584e7       __startOneArgErrorHandling 100594e7 f   libucrt:genexcep.obj
 0001:00058523       ___libm_error_support      10059523 f   libucrt:libm_error.obj
 0001:00058717       ___libm_setusermatherr     10059717 f   libucrt:libm_error.obj
 0001:0005873e       __ceil_default             1005973e f   libucrt:ceil.obj
 0001:000587fc       ___acrt_LCMapStringW       100597fc f   libucrt:lcmapstringw.obj
 0001:0005883a       ___clrfp_sse2              1005983a f   libucrt:fpctrl.obj
 0001:0005886c       ___ctrlfp_sse2             1005986c f   libucrt:fpctrl.obj
 0001:000588a7       ___fclrf_sse2              100598a7 f   libucrt:fpctrl.obj
 0001:000588c4       ___get_fpsr_sse2           100598c4 f   libucrt:fpctrl.obj
 0001:000588e0       ___set_fpsr_sse2           100598e0 f   libucrt:fpctrl.obj
 0001:00058960       ___set_statfp_sse2         10059960 f   libucrt:fpctrl.obj
 0001:0005897b       ___statfp_sse2             1005997b f   libucrt:fpctrl.obj
 0001:00058990       __clrfp                    10059990 f   libucrt:fpctrl.obj
 0001:000589a1       __ctrlfp                   100599a1 f   libucrt:fpctrl.obj
 0001:000589cb       __set_statfp               100599cb f   libucrt:fpctrl.obj
 0001:00058a24       __statfp                   10059a24 f   libucrt:fpctrl.obj
 0001:00058a34       __d_inttype                10059a34 f   libucrt:powhlp.obj
 0001:00058a9c       __powhlp                   10059a9c f   libucrt:powhlp.obj
 0001:00058bc7       __87except                 10059bc7 f   libucrt:87except.obj
 0001:00058cd7       __frnd                     10059cd7 f   libucrt:frnd.obj
 0001:00058ceb       ?should_round_up@__crt_strtox@@YA_N_N000@Z 10059ceb f i libucrt:fpexcept.obj
 0001:00058d38       __errcode                  10059d38 f   libucrt:fpexcept.obj
 0001:00058d6c       __except1                  10059d6c f   libucrt:fpexcept.obj
 0001:00058e3a       __except2                  10059e3a f   libucrt:fpexcept.obj
 0001:00058f42       __handle_exc               10059f42 f   libucrt:fpexcept.obj
 0001:000591c2       __handle_qnan2             1005a1c2 f   libucrt:fpexcept.obj
 0001:000591cf       __raise_exc                1005a1cf f   libucrt:fpexcept.obj
 0001:000591f2       __raise_exc_ex             1005a1f2 f   libucrt:fpexcept.obj
 0001:000594e3       __raise_excf               1005a4e3 f   libucrt:fpexcept.obj
 0001:00059506       __set_errno_from_matherr   1005a506 f   libucrt:fpexcept.obj
 0001:00059537       __umatherr                 1005a537 f   libucrt:fpexcept.obj
 0001:000595d7       __add_exp                  1005a5d7 f   libucrt:util.obj
 0001:00059606       __decomp                   1005a606 f   libucrt:util.obj
 0001:000596d8       __get_exp                  1005a6d8 f   libucrt:util.obj
 0001:000596f0       __set_bexp                 1005a6f0 f   libucrt:util.obj
 0001:00059717       __set_exp                  1005a717 f   libucrt:util.obj
 0001:00059744       __sptype                   1005a744 f   libucrt:util.obj
 0001:000597a7       __chgsign                  1005a7a7 f   libucrt:ieeemisc.obj
 0001:000597cf       __chgsignf                 1005a7cf f   libucrt:ieeemisc.obj
 0001:000597f0       __copysign                 1005a7f0 f   libucrt:ieeemisc.obj
 0001:00059813       __copysignf                1005a813 f   libucrt:ieeemisc.obj
 0001:0005982f       __finite                   1005a82f f   libucrt:ieeemisc.obj
 0001:00059849       __fpclass                  1005a849 f   libucrt:ieeemisc.obj
 0001:000598ed       __isnan                    1005a8ed f   libucrt:ieeemisc.obj
 0001:00059924       __logb                     1005a924 f   libucrt:ieeemisc.obj
 0001:000599f4       __nextafter                1005a9f4 f   libucrt:ieeemisc.obj
 0001:00059a13       __scalb                    1005aa13 f   libucrt:ieeemisc.obj
 0001:00059a2d       _ldexp                     1005aa2d f   libucrt:ldexp.obj
 0001:00059c20       _nextafter                 1005ac20 f   libucrt:nextafter.obj
 0001:00059c3f       _nexttoward                1005ac3f f   libucrt:nexttoward.obj
 0001:00059e2a       __d_int                    1005ae2a f   libucrt:_test.obj
 0001:00059f30       __dtest                    1005af30 f   libucrt:_test.obj
 0001:00059f94       __fd_int                   1005af94 f   libucrt:_test.obj
 0001:0005a061       __fdtest                   1005b061 f   libucrt:_test.obj
 0001:0005a0af       __fperrraise               1005b0af f   libucrt:_test.obj
 0001:0005a0d0       __ld_int                   1005b0d0 f   libucrt:_test.obj
 0001:0005a0db       __ldtest                   1005b0db f   libucrt:_test.obj
 0001:0005a0e6       __dclass                   1005b0e6 f   libucrt:nan.obj
 0001:0005a0f7       __dpcomp                   1005b0f7 f   libucrt:nan.obj
 0001:0005a14d       __dsign                    1005b14d f   libucrt:nan.obj
 0001:0005a15d       _nan                       1005b15d f   libucrt:nan.obj
 0001:0005a164       __ldclass                  1005b164 f   libucrt:nanl.obj
 0001:0005a175       __ldpcomp                  1005b175 f   libucrt:nanl.obj
 0001:0005a1cb       __ldsign                   1005b1cb f   libucrt:nanl.obj
 0001:0005a1db       _nanl                      1005b1db f   libucrt:nanl.obj
 0001:0005a1e2       ??_4@YAAAW4__acrt_fenv_abstract_status@@AAW40@W40@@Z 1005b1e2 f i libucrt:fegetexceptflag.obj
 0001:0005a1f1       _fegetexceptflag           1005b1f1 f   libucrt:fegetexceptflag.obj
 0001:0005a222       ??S@YA?AW4__acrt_fenv_abstract_status@@W40@@Z 1005b222 f i libucrt:fesetexceptflag.obj
 0001:0005a22e       _fesetexceptflag           1005b22e f   libucrt:fesetexceptflag.obj
 0001:0005a290       _fetestexcept              1005b290 f   libucrt:fetestexcept.obj
 0001:0005a2b0       _QueryPerformanceCounter@4 1005b2b0 f   kernel32:KERNEL32.dll
 0001:0005a2b6       _GetCurrentProcessId@0     1005b2b6 f   kernel32:KERNEL32.dll
 0001:0005a2bc       _GetCurrentThreadId@0      1005b2bc f   kernel32:KERNEL32.dll
 0001:0005a2c2       _GetSystemTimeAsFileTime@4 1005b2c2 f   kernel32:KERNEL32.dll
 0001:0005a2c8       _InitializeSListHead@4     1005b2c8 f   kernel32:KERNEL32.dll
 0001:0005a2ce       _IsDebuggerPresent@0       1005b2ce f   kernel32:KERNEL32.dll
 0001:0005a2d4       _UnhandledExceptionFilter@4 1005b2d4 f   kernel32:KERNEL32.dll
 0001:0005a2da       _SetUnhandledExceptionFilter@4 1005b2da f   kernel32:KERNEL32.dll
 0001:0005a2e0       _GetStartupInfoW@4         1005b2e0 f   kernel32:KERNEL32.dll
 0001:0005a2e6       _IsProcessorFeaturePresent@4 1005b2e6 f   kernel32:KERNEL32.dll
 0001:0005a2ec       _GetModuleHandleW@4        1005b2ec f   kernel32:KERNEL32.dll
 0001:0005a2f2       _GetCurrentProcess@0       1005b2f2 f   kernel32:KERNEL32.dll
 0001:0005a2f8       _TerminateProcess@8        1005b2f8 f   kernel32:KERNEL32.dll
 0001:0005a2fe       _InterlockedPushEntrySList@8 1005b2fe f   kernel32:KERNEL32.dll
 0001:0005a304       _InterlockedFlushSList@4   1005b304 f   kernel32:KERNEL32.dll
 0001:0005a30a       _RtlUnwind@16              1005b30a f   kernel32:KERNEL32.dll
 0001:0005a310       _SetLastError@4            1005b310 f   kernel32:KERNEL32.dll
 0001:0005a316       _EnterCriticalSection@4    1005b316 f   kernel32:KERNEL32.dll
 0001:0005a31c       _LeaveCriticalSection@4    1005b31c f   kernel32:KERNEL32.dll
 0001:0005a322       _DeleteCriticalSection@4   1005b322 f   kernel32:KERNEL32.dll
 0001:0005a328       _InitializeCriticalSectionAndSpinCount@8 1005b328 f   kernel32:KERNEL32.dll
 0001:0005a32e       _TlsAlloc@0                1005b32e f   kernel32:KERNEL32.dll
 0001:0005a334       _TlsGetValue@4             1005b334 f   kernel32:KERNEL32.dll
 0001:0005a33a       _TlsSetValue@8             1005b33a f   kernel32:KERNEL32.dll
 0001:0005a340       _TlsFree@4                 1005b340 f   kernel32:KERNEL32.dll
 0001:0005a346       _FreeLibrary@4             1005b346 f   kernel32:KERNEL32.dll
 0001:0005a34c       _GetProcAddress@8          1005b34c f   kernel32:KERNEL32.dll
 0001:0005a352       _LoadLibraryExW@12         1005b352 f   kernel32:KERNEL32.dll
 0001:0005a358       _EncodePointer@4           1005b358 f   kernel32:KERNEL32.dll
 0001:0005a35e       _RaiseException@16         1005b35e f   kernel32:KERNEL32.dll
 0001:0005a364       _SetFilePointerEx@20       1005b364 f   kernel32:KERNEL32.dll
 0001:0005a36a       _GetFileType@4             1005b36a f   kernel32:KERNEL32.dll
 0001:0005a370       _GetConsoleMode@8          1005b370 f   kernel32:KERNEL32.dll
 0001:0005a376       _ReadConsoleW@20           1005b376 f   kernel32:KERNEL32.dll
 0001:0005a37c       _GetConsoleOutputCP@0      1005b37c f   kernel32:KERNEL32.dll
 0001:0005a382       _ExitProcess@4             1005b382 f   kernel32:KERNEL32.dll
 0001:0005a388       _GetModuleHandleExW@12     1005b388 f   kernel32:KERNEL32.dll
 0001:0005a38e       _GetModuleFileNameW@12     1005b38e f   kernel32:KERNEL32.dll
 0001:0005a394       _SetStdHandle@8            1005b394 f   kernel32:KERNEL32.dll
 0001:0005a39a       _GetCurrentThread@0        1005b39a f   kernel32:KERNEL32.dll
 0001:0005a3a0       _GetStdHandle@4            1005b3a0 f   kernel32:KERNEL32.dll
 0001:0005a3a6       _HeapFree@12               1005b3a6 f   kernel32:KERNEL32.dll
 0001:0005a3ac       _HeapAlloc@12              1005b3ac f   kernel32:KERNEL32.dll
 0001:0005a3b2       _MultiByteToWideChar@24    1005b3b2 f   kernel32:KERNEL32.dll
 0001:0005a3b8       _GetTempPathW@8            1005b3b8 f   kernel32:KERNEL32.dll
 0001:0005a3be       _GetDateFormatW@24         1005b3be f   kernel32:KERNEL32.dll
 0001:0005a3c4       _GetTimeFormatW@24         1005b3c4 f   kernel32:KERNEL32.dll
 0001:0005a3ca       _CompareStringW@24         1005b3ca f   kernel32:KERNEL32.dll
 0001:0005a3d0       _LCMapStringW@24           1005b3d0 f   kernel32:KERNEL32.dll
 0001:0005a3d6       _GetLocaleInfoW@16         1005b3d6 f   kernel32:KERNEL32.dll
 0001:0005a3dc       _IsValidLocale@8           1005b3dc f   kernel32:KERNEL32.dll
 0001:0005a3e2       _GetUserDefaultLCID@0      1005b3e2 f   kernel32:KERNEL32.dll
 0001:0005a3e8       _EnumSystemLocalesW@8      1005b3e8 f   kernel32:KERNEL32.dll
 0001:0005a3ee       _SetEndOfFile@4            1005b3ee f   kernel32:KERNEL32.dll
 0001:0005a3f4       _WideCharToMultiByte@32    1005b3f4 f   kernel32:KERNEL32.dll
 0001:0005a3fa       _GetFileSizeEx@8           1005b3fa f   kernel32:KERNEL32.dll
 0001:0005a400       _FindClose@4               1005b400 f   kernel32:KERNEL32.dll
 0001:0005a406       _FindFirstFileExW@24       1005b406 f   kernel32:KERNEL32.dll
 0001:0005a40c       _FindNextFileW@8           1005b40c f   kernel32:KERNEL32.dll
 0001:0005a412       _IsValidCodePage@4         1005b412 f   kernel32:KERNEL32.dll
 0001:0005a418       _GetACP@0                  1005b418 f   kernel32:KERNEL32.dll
 0001:0005a41e       _GetOEMCP@0                1005b41e f   kernel32:KERNEL32.dll
 0001:0005a424       _GetCPInfo@8               1005b424 f   kernel32:KERNEL32.dll
 0001:0005a42a       _GetCommandLineA@0         1005b42a f   kernel32:KERNEL32.dll
 0001:0005a430       _GetCommandLineW@0         1005b430 f   kernel32:KERNEL32.dll
 0001:0005a436       _GetEnvironmentStringsW@0  1005b436 f   kernel32:KERNEL32.dll
 0001:0005a43c       _FreeEnvironmentStringsW@4 1005b43c f   kernel32:KERNEL32.dll
 0001:0005a442       _SetEnvironmentVariableW@8 1005b442 f   kernel32:KERNEL32.dll
 0001:0005a448       _GetProcessHeap@0          1005b448 f   kernel32:KERNEL32.dll
 0001:0005a44e       _SetConsoleCtrlHandler@8   1005b44e f   kernel32:KERNEL32.dll
 0001:0005a454       _GetStringTypeW@16         1005b454 f   kernel32:KERNEL32.dll
 0001:0005a45a       _WriteConsoleW@20          1005b45a f   kernel32:KERNEL32.dll
 0001:0005a460       _FlushFileBuffers@4        1005b460 f   kernel32:KERNEL32.dll
 0001:0005a466       _HeapSize@12               1005b466 f   kernel32:KERNEL32.dll
 0001:0005a46c       _HeapReAlloc@16            1005b46c f   kernel32:KERNEL32.dll
 0001:0005a472       _OutputDebugStringW@4      1005b472 f   kernel32:KERNEL32.dll
 0001:0005a478       _DecodePointer@4           1005b478 f   kernel32:KERNEL32.dll
 0001:0005a480       __FindPESection            1005b480 f   LIBCMT:pesect.obj
 0001:0005a4d0       __IsNonwritableInCurrentImage 1005b4d0 f   LIBCMT:pesect.obj
 0001:0005a590       __ValidateImageBase        1005b590 f   LIBCMT:pesect.obj
 0001:0005a5c1       ??1type_info@@UAE@XZ       1005b5c1 f   LIBCMT:std_type_info_static.obj
 0001:0005a5c8       ??_Etype_info@@UAEPAXI@Z   1005b5c8 f i LIBCMT:std_type_info_static.obj
 0001:0005a5c8       ??_Gtype_info@@UAEPAXI@Z   1005b5c8 f i LIBCMT:std_type_info_static.obj
 0001:0005a5eb       __EH_epilog3               1005b5eb f   LIBCMT:ehprolg3.obj
 0001:0005a5ff       __EH_epilog3_GS            1005b5ff f   LIBCMT:ehprolg3.obj
 0001:0005a60e       __EH_epilog3_catch_GS      1005b60e f   LIBCMT:ehprolg3.obj
 0001:0005a61d       __EH_prolog3               1005b61d f   LIBCMT:ehprolg3.obj
 0001:0005a650       __EH_prolog3_GS            1005b650 f   LIBCMT:ehprolg3.obj
 0001:0005a686       __EH_prolog3_catch         1005b686 f   LIBCMT:ehprolg3.obj
 0001:0005a6bc       __EH_prolog3_catch_GS      1005b6bc f   LIBCMT:ehprolg3.obj
 0001:0005a700       __aulldvrm                 1005b700 f   LIBCMT:ulldvrm.obj
 0001:0005a795       @_guard_check_icall@4      1005b795 f i LIBCMT:checkcfg.obj
 0001:0005a79b       ??3@YAXPAXI@Z              1005b79b f   LIBCMT:delete_scalar_size.obj
 0001:0005a7a9       __except_handler4_noexcept 1005b7a9 f   LIBCMT:chandler4_noexcept.obj
 0001:0005a7f0       __aulldiv                  1005b7f0 f   LIBCMT:ulldiv.obj
 0001:0005a860       __aullrem                  1005b860 f   LIBCMT:ullrem.obj
 0001:0005a8e0       __alloca_probe             1005b8e0 f   LIBCMT:chkstk.obj
 0001:0005a8e0       __chkstk                   1005b8e0 f   LIBCMT:chkstk.obj
 0001:0005a910       __alldiv                   1005b910 f   LIBCMT:lldiv.obj
 0001:0005a9c0       __allrem                   1005b9c0 f   LIBCMT:llrem.obj
 0001:0005aa80       __allmul                   1005ba80 f   LIBCMT:llmul.obj
 0001:0005aac0       __allshl                   1005bac0 f   LIBCMT:llshl.obj
 0001:0005aae0       __aullshr                  1005bae0 f   LIBCMT:ullshr.obj
 0001:0005ab00       __alloca_probe_16          1005bb00 f   LIBCMT:alloca16.obj
 0001:0005ab16       __alloca_probe_8           1005bb16     LIBCMT:alloca16.obj
 0001:0005ab30       __ftol2_sse_excpt          1005bb30 f   LIBCMT:ftol2.obj
 0001:0005ab40       __ftol2_sse                1005bb40 f   LIBCMT:ftol2.obj
 0001:0005ab50       __ftoi2                    1005bb50 f   LIBCMT:ftol2.obj
 0001:0005abd0       __ftoui2                   1005bbd0 f   LIBCMT:ftol2.obj
 0001:0005ac80       __ftol2                    1005bc80 f   LIBCMT:ftol2.obj
 0001:0005ad30       __ftoul2                   1005bd30 f   LIBCMT:ftol2.obj
 0001:0005adf0       __ftoul2_legacy            1005bdf0 f   LIBCMT:ftol2.obj
 0001:0005ae06       __initialize_default_precision 1005be06 f   LIBCMT:default_precision.obj
 0001:0005ae27       ??3@YAXPAX@Z               1005be27 f   LIBCMT:delete_scalar.obj
 0001:0005af49       _memcmp                    1005bf49 f   libvcruntime:memcmp.obj
 0001:0005dbb0       _strrchr                   1005ebb0 f   libvcruntime:strrchr.obj
 0001:0005dcf0       _strchr                    1005ecf0 f   libvcruntime:strchr.obj
 0001:0005dd5e       ___from_strstr_to_strchr   1005ed5e     libvcruntime:strchr.obj
 0001:0005de1b       _wcschr                    1005ee1b f   libvcruntime:wcschr.obj
 0001:0005deca       __filter_x86_sse2_floating_point_exception 1005eeca f   LIBCMT:x86_exception_filter.obj
 0001:0005deca       __filter_x86_sse2_floating_point_exception_default 1005eeca f   LIBCMT:x86_exception_filter.obj
 0001:0005df50       _memchr                    1005ef50 f   libvcruntime:memchr.obj
 0002:00000000       __imp__ReadFile@20         10060000     kernel32:KERNEL32.dll
 0002:00000004       __imp__WriteFile@20        10060004     kernel32:KERNEL32.dll
 0002:00000008       __imp__SetFilePointer@16   10060008     kernel32:KERNEL32.dll
 0002:0000000c       __imp__CreateFileW@28      1006000c     kernel32:KERNEL32.dll
 0002:00000010       __imp__GetLastError@0      10060010     kernel32:KERNEL32.dll
 0002:00000014       __imp__CreateFileA@28      10060014     kernel32:KERNEL32.dll
 0002:00000018       __imp__CloseHandle@4       10060018     kernel32:KERNEL32.dll
 0002:0000001c       __imp__OutputDebugStringW@4 1006001c     kernel32:KERNEL32.dll
 0002:00000020       __imp__QueryPerformanceCounter@4 10060020     kernel32:KERNEL32.dll
 0002:00000024       __imp__GetCurrentProcessId@0 10060024     kernel32:KERNEL32.dll
 0002:00000028       __imp__GetCurrentThreadId@0 10060028     kernel32:KERNEL32.dll
 0002:0000002c       __imp__GetSystemTimeAsFileTime@4 1006002c     kernel32:KERNEL32.dll
 0002:00000030       __imp__InitializeSListHead@4 10060030     kernel32:KERNEL32.dll
 0002:00000034       __imp__IsDebuggerPresent@0 10060034     kernel32:KERNEL32.dll
 0002:00000038       __imp__UnhandledExceptionFilter@4 10060038     kernel32:KERNEL32.dll
 0002:0000003c       __imp__SetUnhandledExceptionFilter@4 1006003c     kernel32:KERNEL32.dll
 0002:00000040       __imp__GetStartupInfoW@4   10060040     kernel32:KERNEL32.dll
 0002:00000044       __imp__IsProcessorFeaturePresent@4 10060044     kernel32:KERNEL32.dll
 0002:00000048       __imp__GetModuleHandleW@4  10060048     kernel32:KERNEL32.dll
 0002:0000004c       __imp__GetCurrentProcess@0 1006004c     kernel32:KERNEL32.dll
 0002:00000050       __imp__TerminateProcess@8  10060050     kernel32:KERNEL32.dll
 0002:00000054       __imp__InterlockedPushEntrySList@8 10060054     kernel32:KERNEL32.dll
 0002:00000058       __imp__InterlockedFlushSList@4 10060058     kernel32:KERNEL32.dll
 0002:0000005c       __imp__RtlUnwind@16        1006005c     kernel32:KERNEL32.dll
 0002:00000060       __imp__SetLastError@4      10060060     kernel32:KERNEL32.dll
 0002:00000064       __imp__EnterCriticalSection@4 10060064     kernel32:KERNEL32.dll
 0002:00000068       __imp__LeaveCriticalSection@4 10060068     kernel32:KERNEL32.dll
 0002:0000006c       __imp__DeleteCriticalSection@4 1006006c     kernel32:KERNEL32.dll
 0002:00000070       __imp__InitializeCriticalSectionAndSpinCount@8 10060070     kernel32:KERNEL32.dll
 0002:00000074       __imp__TlsAlloc@0          10060074     kernel32:KERNEL32.dll
 0002:00000078       __imp__TlsGetValue@4       10060078     kernel32:KERNEL32.dll
 0002:0000007c       __imp__TlsSetValue@8       1006007c     kernel32:KERNEL32.dll
 0002:00000080       __imp__TlsFree@4           10060080     kernel32:KERNEL32.dll
 0002:00000084       __imp__FreeLibrary@4       10060084     kernel32:KERNEL32.dll
 0002:00000088       __imp__GetProcAddress@8    10060088     kernel32:KERNEL32.dll
 0002:0000008c       __imp__LoadLibraryExW@12   1006008c     kernel32:KERNEL32.dll
 0002:00000090       __imp__EncodePointer@4     10060090     kernel32:KERNEL32.dll
 0002:00000094       __imp__RaiseException@16   10060094     kernel32:KERNEL32.dll
 0002:00000098       __imp__SetFilePointerEx@20 10060098     kernel32:KERNEL32.dll
 0002:0000009c       __imp__GetFileType@4       1006009c     kernel32:KERNEL32.dll
 0002:000000a0       __imp__GetConsoleMode@8    100600a0     kernel32:KERNEL32.dll
 0002:000000a4       __imp__ReadConsoleW@20     100600a4     kernel32:KERNEL32.dll
 0002:000000a8       __imp__GetConsoleOutputCP@0 100600a8     kernel32:KERNEL32.dll
 0002:000000ac       __imp__ExitProcess@4       100600ac     kernel32:KERNEL32.dll
 0002:000000b0       __imp__GetModuleHandleExW@12 100600b0     kernel32:KERNEL32.dll
 0002:000000b4       __imp__GetModuleFileNameW@12 100600b4     kernel32:KERNEL32.dll
 0002:000000b8       __imp__SetStdHandle@8      100600b8     kernel32:KERNEL32.dll
 0002:000000bc       __imp__GetCurrentThread@0  100600bc     kernel32:KERNEL32.dll
 0002:000000c0       __imp__GetStdHandle@4      100600c0     kernel32:KERNEL32.dll
 0002:000000c4       __imp__HeapFree@12         100600c4     kernel32:KERNEL32.dll
 0002:000000c8       __imp__HeapAlloc@12        100600c8     kernel32:KERNEL32.dll
 0002:000000cc       __imp__MultiByteToWideChar@24 100600cc     kernel32:KERNEL32.dll
 0002:000000d0       __imp__GetTempPathW@8      100600d0     kernel32:KERNEL32.dll
 0002:000000d4       __imp__GetDateFormatW@24   100600d4     kernel32:KERNEL32.dll
 0002:000000d8       __imp__GetTimeFormatW@24   100600d8     kernel32:KERNEL32.dll
 0002:000000dc       __imp__CompareStringW@24   100600dc     kernel32:KERNEL32.dll
 0002:000000e0       __imp__LCMapStringW@24     100600e0     kernel32:KERNEL32.dll
 0002:000000e4       __imp__GetLocaleInfoW@16   100600e4     kernel32:KERNEL32.dll
 0002:000000e8       __imp__IsValidLocale@8     100600e8     kernel32:KERNEL32.dll
 0002:000000ec       __imp__GetUserDefaultLCID@0 100600ec     kernel32:KERNEL32.dll
 0002:000000f0       __imp__EnumSystemLocalesW@8 100600f0     kernel32:KERNEL32.dll
 0002:000000f4       __imp__SetEndOfFile@4      100600f4     kernel32:KERNEL32.dll
 0002:000000f8       __imp__WideCharToMultiByte@32 100600f8     kernel32:KERNEL32.dll
 0002:000000fc       __imp__GetFileSizeEx@8     100600fc     kernel32:KERNEL32.dll
 0002:00000100       __imp__FindClose@4         10060100     kernel32:KERNEL32.dll
 0002:00000104       __imp__FindFirstFileExW@24 10060104     kernel32:KERNEL32.dll
 0002:00000108       __imp__FindNextFileW@8     10060108     kernel32:KERNEL32.dll
 0002:0000010c       __imp__IsValidCodePage@4   1006010c     kernel32:KERNEL32.dll
 0002:00000110       __imp__GetACP@0            10060110     kernel32:KERNEL32.dll
 0002:00000114       __imp__GetOEMCP@0          10060114     kernel32:KERNEL32.dll
 0002:00000118       __imp__GetCPInfo@8         10060118     kernel32:KERNEL32.dll
 0002:0000011c       __imp__GetCommandLineA@0   1006011c     kernel32:KERNEL32.dll
 0002:00000120       __imp__GetCommandLineW@0   10060120     kernel32:KERNEL32.dll
 0002:00000124       __imp__GetEnvironmentStringsW@0 10060124     kernel32:KERNEL32.dll
 0002:00000128       __imp__FreeEnvironmentStringsW@4 10060128     kernel32:KERNEL32.dll
 0002:0000012c       __imp__SetEnvironmentVariableW@8 1006012c     kernel32:KERNEL32.dll
 0002:00000130       __imp__GetProcessHeap@0    10060130     kernel32:KERNEL32.dll
 0002:00000134       __imp__SetConsoleCtrlHandler@8 10060134     kernel32:KERNEL32.dll
 0002:00000138       __imp__GetStringTypeW@16   10060138     kernel32:KERNEL32.dll
 0002:0000013c       __imp__WriteConsoleW@20    1006013c     kernel32:KERNEL32.dll
 0002:00000140       __imp__FlushFileBuffers@4  10060140     kernel32:KERNEL32.dll
 0002:00000144       __imp__HeapSize@12         10060144     kernel32:KERNEL32.dll
 0002:00000148       __imp__HeapReAlloc@16      10060148     kernel32:KERNEL32.dll
 0002:0000014c       __imp__DecodePointer@4     1006014c     kernel32:KERNEL32.dll
 0002:00000150       \177KERNEL32_NULL_THUNK_DATA 10060150     kernel32:KERNEL32.dll
 0002:00000154       ___guard_check_icall_fptr  10060154     LIBCMT:guard_support.obj
 0002:00000158       ___guard_xfg_check_icall_fptr 10060158     LIBCMT:guard_support.obj
 0002:0000015c       ___castguard_check_failure_os_handled_fptr 1006015c     LIBCMT:guard_support.obj
 0002:00000160       ___xc_a                    10060160     LIBCMT:initializers.obj
 0002:00000164       ___xc_z                    10060164     LIBCMT:initializers.obj
 0002:00000168       ___xi_a                    10060168     LIBCMT:initializers.obj
 0002:0000016c       ___acrt_stdio_initializer  1006016c     libucrt:stdio_initializer.obj
 0002:00000170       ___acrt_multibyte_initializer 10060170     libucrt:multibyte_initializer.obj
 0002:00000174       ___acrt_fmode_initializer  10060174     libucrt:fmode_initializer.obj
 0002:00000178       ___acrt_tran_sse2_initializer 10060178     libucrt:sse2_initializer.obj
 0002:0000017c       ___xi_z                    1006017c     LIBCMT:initializers.obj
 0002:00000180       ___xp_a                    10060180     LIBCMT:initializers.obj
 0002:00000184       ___acrt_locale_terminator  10060184     libucrt:locale_initializer.obj
 0002:00000188       ___dcrt_console_output_terminator 10060188     libucrt:console_output_initializer.obj
 0002:0000018c       ___acrt_stdio_terminator   1006018c     libucrt:stdio_initializer.obj
 0002:00000190       ___xp_z                    10060190     LIBCMT:initializers.obj
 0002:00000194       ___xt_a                    10060194     LIBCMT:initializers.obj
 0002:00000198       ___xt_z                    10060198     LIBCMT:initializers.obj
 0002:000001a0       __pDefaultRawDllMain       100601a0     LIBCMT:dll_dllmain.obj
 0002:000001a0       __pRawDllMain              100601a0     LIBCMT:dll_dllmain.obj
 0002:000001ac       __pDestructExceptionObject 100601ac     libvcruntime:ehhelpers.obj
 0002:00000538       ??_C@_08EHJDFFNH@__based?$CI@ 10060538     libvcruntime:undname.obj
 0002:00000544       ??_C@_07KOLFKCDI@__cdecl@  10060544     libvcruntime:undname.obj
 0002:0000054c       ??_C@_08GHMPAG@__pascal@   1006054c     libvcruntime:undname.obj
 0002:00000558       ??_C@_09IFJBGAPI@__stdcall@ 10060558     libvcruntime:undname.obj
 0002:00000564       ??_C@_0L@NPHFGOKO@__thiscall@ 10060564     libvcruntime:undname.obj
 0002:00000570       ??_C@_0L@JMKHOMEK@__fastcall@ 10060570     libvcruntime:undname.obj
 0002:0000057c       ??_C@_0N@BCKKPABJ@__vectorcall@ 1006057c     libvcruntime:undname.obj
 0002:0000058c       ??_C@_09HIJEGCPM@__clrcall@ 1006058c     libvcruntime:undname.obj
 0002:00000598       ??_C@_06GHPCKEAG@__eabi@   10060598     libvcruntime:undname.obj
 0002:000005a0       ??_C@_09IOPIDJLG@__swift_1@ 100605a0     libvcruntime:undname.obj
 0002:000005ac       ??_C@_09KFNFGKHF@__swift_2@ 100605ac     libvcruntime:undname.obj
 0002:000005b8       ??_C@_09LMMOFLDE@__swift_3@ 100605b8     libvcruntime:undname.obj
 0002:000005c4       ??_C@_07JOMMBBKO@__ptr64@  100605c4     libvcruntime:undname.obj
 0002:000005cc       ??_C@_0L@PILCLIHE@__restrict@ 100605cc     libvcruntime:undname.obj
 0002:000005d8       ??_C@_0M@GFIIJFMG@__unaligned@ 100605d8     libvcruntime:undname.obj
 0002:000005e4       ??_C@_09DHDLOLLB@restrict?$CI@ 100605e4     libvcruntime:undname.obj
 0002:000005f0       ??_C@_04NIHEBCM@?5new@     100605f0     libvcruntime:undname.obj
 0002:000005f8       ??_C@_07FPCDHGMM@?5delete@ 100605f8     libvcruntime:undname.obj
 0002:00000600       ??_C@_01NEMOKFLO@?$DN@     10060600     libvcruntime:undname.obj
 0002:00000604       ??_C@_02GPIOPFAK@?$DO?$DO@ 10060604     libvcruntime:undname.obj
 0002:00000608       ??_C@_02FODMEDOG@?$DM?$DM@ 10060608     libvcruntime:undname.obj
 0002:0000060c       ??_C@_01DCLJPIOD@?$CB@     1006060c     libvcruntime:undname.obj
 0002:00000610       ??_C@_02EGOFBIJA@?$DN?$DN@ 10060610     libvcruntime:undname.obj
 0002:00000614       ??_C@_02FDNJECIE@?$CB?$DN@ 10060614     libvcruntime:undname.obj
 0002:00000618       ??_C@_02GPECMEKF@?$FL?$FN@ 10060618     libvcruntime:undname.obj
 0002:0000061c       ??_C@_08LHJFAFGD@operator@ 1006061c     libvcruntime:undname.obj
 0002:00000628       ??_C@_02HBOOOICD@?9?$DO@   10060628     libvcruntime:undname.obj
 0002:0000062c       ??_C@_01NBENCBCI@?$CK@     1006062c     libvcruntime:undname.obj
 0002:00000630       ??_C@_02ECNGHCIF@?$CL?$CL@ 10060630     libvcruntime:undname.obj
 0002:00000634       ??_C@_02BAABKJLB@?9?9@     10060634     libvcruntime:undname.obj
 0002:00000638       ??_C@_01MIFGBAGJ@?$CL@     10060638     libvcruntime:undname.obj
 0002:0000063c       ??_C@_01HNPIGOCE@?$CG@     1006063c     libvcruntime:undname.obj
 0002:00000640       ??_C@_03MNHNFDLC@?9?$DO?$CK@ 10060640     libvcruntime:undname.obj
 0002:00000644       ??_C@_01KMDKNFGN@?1@       10060644     libvcruntime:undname.obj
 0002:00000648       ??_C@_01FGNFDNOH@?$CF@     10060648     libvcruntime:undname.obj
 0002:0000064c       ??_C@_01MNNFJEPP@?$DM@     1006064c     libvcruntime:undname.obj
 0002:00000650       ??_C@_02EHCHHCKH@?$DM?$DN@ 10060650     libvcruntime:undname.obj
 0002:00000654       ??_C@_01PPODPGHN@?$DO@     10060654     libvcruntime:undname.obj
 0002:00000658       ??_C@_02EEKDKGMJ@?$DO?$DN@ 10060658     libvcruntime:undname.obj
 0002:0000065c       ??_C@_01IHBHIGKO@?0@       1006065c     libvcruntime:undname.obj
 0002:00000660       ??_C@_02HCKGKOFO@?$CI?$CJ@ 10060660     libvcruntime:undname.obj
 0002:00000664       ??_C@_01PJKLJHI@?$HO@      10060664     libvcruntime:undname.obj
 0002:00000668       ??_C@_01JKBOJNNK@?$FO@     10060668     libvcruntime:undname.obj
 0002:0000066c       ??_C@_01DNKMNLPK@?$HM@     1006066c     libvcruntime:undname.obj
 0002:00000670       ??_C@_02PPKAJPJL@?$CG?$CG@ 10060670     libvcruntime:undname.obj
 0002:00000674       ??_C@_02NONPIBCD@?$HM?$HM@ 10060674     libvcruntime:undname.obj
 0002:00000678       ??_C@_02FPIMKNGF@?$CK?$DN@ 10060678     libvcruntime:undname.obj
 0002:0000067c       ??_C@_02FOEOMHFC@?$CL?$DN@ 1006067c     libvcruntime:undname.obj
 0002:00000680       ??_C@_02FKMDLLOA@?9?$DN@   10060680     libvcruntime:undname.obj
 0002:00000684       ??_C@_02FJEHGPIO@?1?$DN@   10060684     libvcruntime:undname.obj
 0002:00000688       ??_C@_02FENAOKFI@?$CF?$DN@ 10060688     libvcruntime:undname.obj
 0002:0000068c       ??_C@_03IKFCCPFF@?$DO?$DO?$DN@ 1006068c     libvcruntime:undname.obj
 0002:00000690       ??_C@_03CDNPDDLA@?$DM?$DM?$DN@ 10060690     libvcruntime:undname.obj
 0002:00000694       ??_C@_02FGJGFEAB@?$CG?$DN@ 10060694     libvcruntime:undname.obj
 0002:00000698       ??_C@_02DHLNPPGH@?$HM?$DN@ 10060698     libvcruntime:undname.obj
 0002:0000069c       ??_C@_02MHEGNOJ@?$FO?$DN@  1006069c     libvcruntime:undname.obj
 0002:000006a0       ??_C@_09IFPLHPGF@?$GAvftable?8@ 100606a0     libvcruntime:undname.obj
 0002:000006ac       ??_C@_09BLBHBJP@?$GAvbtable?8@ 100606ac     libvcruntime:undname.obj
 0002:000006b8       ??_C@_07FEEIOKP@?$GAvcall?8@ 100606b8     libvcruntime:undname.obj
 0002:000006c0       ??_C@_08LLFFHHDJ@?$GAtypeof?8@ 100606c0     libvcruntime:undname.obj
 0002:000006cc       ??_C@_0BF@KDPPACIK@?$GAlocal?5static?5guard?8@ 100606cc     libvcruntime:undname.obj
 0002:000006e4       ??_C@_08OBABFOLI@?$GAstring?8@ 100606e4     libvcruntime:undname.obj
 0002:000006f0       ??_C@_0BD@JDLKDPAB@?$GAvbase?5destructor?8@ 100606f0     libvcruntime:undname.obj
 0002:00000704       ??_C@_0BN@DEGPLNFK@?$GAvector?5deleting?5destructor?8@ 10060704     libvcruntime:undname.obj
 0002:00000724       ??_C@_0BO@OBMKPJIG@?$GAdefault?5constructor?5closure?8@ 10060724     libvcruntime:undname.obj
 0002:00000744       ??_C@_0BN@IMDCHIKM@?$GAscalar?5deleting?5destructor?8@ 10060744     libvcruntime:undname.obj
 0002:00000764       ??_C@_0BO@PFGOCPJJ@?$GAvector?5constructor?5iterator?8@ 10060764     libvcruntime:undname.obj
 0002:00000784       ??_C@_0BN@LFPFMEDL@?$GAvector?5destructor?5iterator?8@ 10060784     libvcruntime:undname.obj
 0002:000007a4       ??_C@_0CE@IKBNEHA@?$GAvector?5vbase?5constructor?5itera@ 100607a4     libvcruntime:undname.obj
 0002:000007c8       ??_C@_0BL@NILFHHPC@?$GAvirtual?5displacement?5map?8@ 100607c8     libvcruntime:undname.obj
 0002:000007e4       ??_C@_0CB@JONCMFFK@?$GAeh?5vector?5constructor?5iterator@ 100607e4     libvcruntime:undname.obj
 0002:00000808       ??_C@_0CA@GCEOPDGL@?$GAeh?5vector?5destructor?5iterator?8@ 10060808     libvcruntime:undname.obj
 0002:00000828       ??_C@_0CH@OOJPLCPH@?$GAeh?5vector?5vbase?5constructor?5it@ 10060828     libvcruntime:undname.obj
 0002:00000850       ??_C@_0BL@LLKPOHJI@?$GAcopy?5constructor?5closure?8@ 10060850     libvcruntime:undname.obj
 0002:0000086c       ??_C@_0BA@KBCDOMBN@?$GAudt?5returning?8@ 1006086c     libvcruntime:undname.obj
 0002:0000087c       ??_C@_03KLGMFNMG@?$GAEH@   1006087c     libvcruntime:undname.obj
 0002:00000880       ??_C@_05KHLCHHI@?$GARTTI@  10060880     libvcruntime:undname.obj
 0002:00000888       ??_C@_0BA@KKLDJDLB@?$GAlocal?5vftable?8@ 10060888     libvcruntime:undname.obj
 0002:00000898       ??_C@_0CE@IIHCMGGL@?$GAlocal?5vftable?5constructor?5clos@ 10060898     libvcruntime:undname.obj
 0002:000008bc       ??_C@_06FHBGPFGH@?5new?$FL?$FN@ 100608bc     libvcruntime:undname.obj
 0002:000008c4       ??_C@_09LBNFPBCA@?5delete?$FL?$FN@ 100608c4     libvcruntime:undname.obj
 0002:000008d0       ??_C@_0P@HJKNJFNN@?$GAomni?5callsig?8@ 100608d0     libvcruntime:undname.obj
 0002:000008e0       ??_C@_0BL@CNOONJFP@?$GAplacement?5delete?5closure?8@ 100608e0     libvcruntime:undname.obj
 0002:000008fc       ??_C@_0BN@CKNJLHMB@?$GAplacement?5delete?$FL?$FN?5closure?8@ 100608fc     libvcruntime:undname.obj
 0002:0000091c       ??_C@_0CG@CFDHKGGD@?$GAmanaged?5vector?5constructor?5ite@ 1006091c     libvcruntime:undname.obj
 0002:00000944       ??_C@_0CF@IMGKMJNO@?$GAmanaged?5vector?5destructor?5iter@ 10060944     libvcruntime:undname.obj
 0002:0000096c       ??_C@_0CG@HLDDJMAG@?$GAeh?5vector?5copy?5constructor?5ite@ 1006096c     libvcruntime:undname.obj
 0002:00000994       ??_C@_0CM@FCBBDIGB@?$GAeh?5vector?5vbase?5copy?5construct@ 10060994     libvcruntime:undname.obj
 0002:000009c0       ??_C@_0BL@CLIPGLGB@?$GAdynamic?5initializer?5for?5?8@ 100609c0     libvcruntime:undname.obj
 0002:000009dc       ??_C@_0CB@PDBIFEP@?$GAdynamic?5atexit?5destructor?5for?5@ 100609dc     libvcruntime:undname.obj
 0002:00000a00       ??_C@_0CD@CGAJBKEJ@?$GAvector?5copy?5constructor?5iterat@ 10060a00     libvcruntime:undname.obj
 0002:00000a24       ??_C@_0CJ@GJELGAMM@?$GAvector?5vbase?5copy?5constructor?5@ 10060a24     libvcruntime:undname.obj
 0002:00000a50       ??_C@_0CL@FGIJHLCE@?$GAmanaged?5vector?5copy?5constructo@ 10060a50     libvcruntime:undname.obj
 0002:00000a7c       ??_C@_0BM@PMGGMLDN@?$GAlocal?5static?5thread?5guard?8@ 10060a7c     libvcruntime:undname.obj
 0002:00000a98       ??_C@_0N@BDNMDMOL@operator?5?$CC?$CC?5@ 10060a98     libvcruntime:undname.obj
 0002:00000aa8       ??_C@_0BC@GGEBGALA@operator?5co_await@ 10060aa8     libvcruntime:undname.obj
 0002:00000abc       ??_C@_0M@GAAIMMOH@operator?$DM?$DN?$DO@ 10060abc     libvcruntime:undname.obj
 0002:00000ac8       ??_C@_0BC@DAFEJGAK@?5Type?5Descriptor?8@ 10060ac8     libvcruntime:undname.obj
 0002:00000adc       ??_C@_0BM@LDKODKLH@?5Base?5Class?5Descriptor?5at?5?$CI@ 10060adc     libvcruntime:undname.obj
 0002:00000af8       ??_C@_0BD@LGICGFMM@?5Base?5Class?5Array?8@ 10060af8     libvcruntime:undname.obj
 0002:00000b0c       ??_C@_0BN@MECKDCOJ@?5Class?5Hierarchy?5Descriptor?8@ 10060b0c     libvcruntime:undname.obj
 0002:00000b2c       ??_C@_0BK@CFCOFLF@?5Complete?5Object?5Locator?8@ 10060b2c     libvcruntime:undname.obj
 0002:00000b48       ??_C@_0BG@JNJLAMPM@?$GAanonymous?5namespace?8@ 10060b48     libvcruntime:undname.obj
 0002:00000b60       ??_C@_04HEJADOOB@CV?3?5@   10060b60     libvcruntime:undname.obj
 0002:00000b68       ??_C@_02MOLJINC@?3?3@      10060b68     libvcruntime:undname.obj
 0002:00000b6c       ??_C@_0BE@JAEOCHPE@template?9parameter?9@ 10060b6c     libvcruntime:undname.obj
 0002:00000b80       ??_C@_0BF@LNLGBBNL@?$GAtemplate?9parameter?9@ 10060b80     libvcruntime:undname.obj
 0002:00000b98       ??_C@_0O@KHGCOMHP@generic?9type?9@ 10060b98     libvcruntime:undname.obj
 0002:00000ba8       ??_C@_0P@ODDENDLM@?$GAgeneric?9type?9@ 10060ba8     libvcruntime:undname.obj
 0002:00000bb8       ??_C@_02OHHJMEON@?8?8@     10060bb8     libvcruntime:undname.obj
 0002:00000bbc       ??_C@_0BN@IBLMMFAP@?$GAnon?9type?9template?9parameter@ 10060bbc     libvcruntime:undname.obj
 0002:00000bdc       ??_C@_03DLDNIBIK@?$CFlf@   10060bdc     libvcruntime:undname.obj
 0002:00000be0       ??_C@_04OFALKAJ@?$DP?$DP_C@ 10060be0     libvcruntime:undname.obj
 0002:00000be8       ??_C@_03KHICJKCI@?4?4?4@   10060be8     libvcruntime:undname.obj
 0002:00000bec       ??_C@_04HIBGFPH@NULL@      10060bec     libvcruntime:undname.obj
 0002:00000bf4       ??_C@_02DPKJAMEF@?$CFd@    10060bf4     libvcruntime:undname.obj
 0002:00000bf8       ??_C@_0BK@IHCCFNEL@?$GAtemplate?9type?9parameter?9@ 10060bf8     libvcruntime:undname.obj
 0002:00000c14       ??_C@_0BK@OFCNNNKO@?$GAgeneric?9class?9parameter?9@ 10060c14     libvcruntime:undname.obj
 0002:00000c30       ??_C@_0BL@NGJBLFIL@?$GAgeneric?9method?9parameter?9@ 10060c30     libvcruntime:undname.obj
 0002:00000c4c       ??_C@_07OHNGEDJK@nullptr@  10060c4c     libvcruntime:undname.obj
 0002:00000c54       ??_C@_06COJIGPIB@lambda@   10060c54     libvcruntime:undname.obj
 0002:00000c5c       ??_C@_04GKJNKENE@void@     10060c5c     libvcruntime:undname.obj
 0002:00000c64       ??_C@_0BE@EODMJLIF@?$GAtemplate?9parameter@ 10060c64     libvcruntime:undname.obj
 0002:00000c78       ??_C@_03OPGICMGF@?$HN?8?5@ 10060c78     libvcruntime:undname.obj
 0002:00000c7c       ??_C@_02IGFCGPIL@?$HN?8@   10060c7c     libvcruntime:undname.obj
 0002:00000c80       ??_C@_0N@CBHHHENL@?$GAvtordispex?$HL@ 10060c80     libvcruntime:undname.obj
 0002:00000c90       ??_C@_0L@GHPFDFH@?$GAvtordisp?$HL@ 10060c90     libvcruntime:undname.obj
 0002:00000c9c       ??_C@_0L@HNGCOGAE@?$GAadjustor?$HL@ 10060c9c     libvcruntime:undname.obj
 0002:00000ca8       ??_C@_0CB@KJDOOODE@?$GAlocal?5static?5destructor?5helper@ 10060ca8     libvcruntime:undname.obj
 0002:00000ccc       ??_C@_0DB@ILEFOCIJ@?$GAtemplate?5static?5data?5member?5co@ 10060ccc     libvcruntime:undname.obj
 0002:00000d00       ??_C@_0DA@HGFJFBBE@?$GAtemplate?5static?5data?5member?5de@ 10060d00     libvcruntime:undname.obj
 0002:00000d30       ??_C@_07PGOEDBHP@static?5@ 10060d30     libvcruntime:undname.obj
 0002:00000d38       ??_C@_08NIEOINHE@virtual?5@ 10060d38     libvcruntime:undname.obj
 0002:00000d44       ??_C@_09LAPHOOG@private?3?5@ 10060d44     libvcruntime:undname.obj
 0002:00000d50       ??_C@_0M@GAIFPFIP@protected?3?5@ 10060d50     libvcruntime:undname.obj
 0002:00000d5c       ??_C@_08GPDDCMKI@public?3?5@ 10060d5c     libvcruntime:undname.obj
 0002:00000d68       ??_C@_08KJLFOPNE@?$FLthunk?$FN?3@ 10060d68     libvcruntime:undname.obj
 0002:00000d74       ??_C@_0M@DHNBOJMP@extern?5?$CCC?$CC?5@ 10060d74     libvcruntime:undname.obj
 0002:00000d80       ??_C@_02KCKGHPCA@?$CJ?5@   10060d80     libvcruntime:undname.obj
 0002:00000d84       ??_C@_05CIHEBHNO@char?5@   10060d84     libvcruntime:undname.obj
 0002:00000d8c       ??_C@_06EHJMALKF@short?5@  10060d8c     libvcruntime:undname.obj
 0002:00000d94       ??_C@_04LAHKHJMA@int?5@    10060d94     libvcruntime:undname.obj
 0002:00000d9c       ??_C@_05CJIMAING@long?5@   10060d9c     libvcruntime:undname.obj
 0002:00000da4       ??_C@_09EBBEKKIH@unsigned?5@ 10060da4     libvcruntime:undname.obj
 0002:00000db0       ??_C@_05BEFAKPML@void?5@   10060db0     libvcruntime:undname.obj
 0002:00000db8       ??_C@_09GAIEOBLP@volatile?5@ 10060db8     libvcruntime:undname.obj
 0002:00000dc4       ??_C@_08PABEKFH@volatile@  10060dc4     libvcruntime:undname.obj
 0002:00000dd0       ??_C@_0BA@LKIJLKPP@std?3?3nullptr_t?5@ 10060dd0     libvcruntime:undname.obj
 0002:00000de0       ??_C@_0P@GCOCNKDM@std?3?3nullptr_t@ 10060de0     libvcruntime:undname.obj
 0002:00000df0       ??_C@_0L@EGPHHEKN@?$DMellipsis?$DO@ 10060df0     libvcruntime:undname.obj
 0002:00000dfc       ??_C@_04EENFHACM@?0?4?4?4@ 10060dfc     libvcruntime:undname.obj
 0002:00000e04       ??_C@_0M@ELJOJFFH@?0?$DMellipsis?$DO@ 10060e04     libvcruntime:undname.obj
 0002:00000e10       ??_C@_09DNHFEOJI@?5noexcept@ 10060e10     libvcruntime:undname.obj
 0002:00000e1c       ??_C@_03PBJBJNON@cpu@      10060e1c     libvcruntime:undname.obj
 0002:00000e20       ??_C@_03DCBBJBAA@amp@      10060e20     libvcruntime:undname.obj
 0002:00000e24       ??_C@_02KEGNLNML@?0?5@     10060e24     libvcruntime:undname.obj
 0002:00000e28       ??_C@_04ENMBGAPA@char@     10060e28     libvcruntime:undname.obj
 0002:00000e30       ??_C@_05BFKKPKCG@short@    10060e30     libvcruntime:undname.obj
 0002:00000e38       ??_C@_03JBIPMCLC@int@      10060e38     libvcruntime:undname.obj
 0002:00000e3c       ??_C@_04GOKPGOLB@long@     10060e3c     libvcruntime:undname.obj
 0002:00000e44       ??_C@_05KNFBNCOH@float@    10060e44     libvcruntime:undname.obj
 0002:00000e4c       ??_C@_06BNJCAIGJ@double@   10060e4c     libvcruntime:undname.obj
 0002:00000e54       ??_C@_04DDKJGDCM@bool@     10060e54     libvcruntime:undname.obj
 0002:00000e5c       ??_C@_06EBGKOKIG@__int8@   10060e5c     libvcruntime:undname.obj
 0002:00000e64       ??_C@_07ICFHOGAF@__int16@  10060e64     libvcruntime:undname.obj
 0002:00000e6c       ??_C@_07OFLPPHGP@__int32@  10060e6c     libvcruntime:undname.obj
 0002:00000e74       ??_C@_07LFCOJCAC@__int64@  10060e74     libvcruntime:undname.obj
 0002:00000e7c       ??_C@_08GAHOLHEO@__int128@ 10060e7c     libvcruntime:undname.obj
 0002:00000e88       ??_C@_09EEKGDCPH@?$DMunknown?$DO@ 10060e88     libvcruntime:undname.obj
 0002:00000e94       ??_C@_07CFHGOPCN@char8_t@  10060e94     libvcruntime:undname.obj
 0002:00000e9c       ??_C@_08HBIPOFJB@char16_t@ 10060e9c     libvcruntime:undname.obj
 0002:00000ea8       ??_C@_08IECNCBKG@char32_t@ 10060ea8     libvcruntime:undname.obj
 0002:00000eb4       ??_C@_07CLGGIAMF@wchar_t@  10060eb4     libvcruntime:undname.obj
 0002:00000ebc       ??_C@_04HAPDLBFF@auto@     10060ebc     libvcruntime:undname.obj
 0002:00000ec4       ??_C@_0P@LHCGKIGK@decltype?$CIauto?$CJ@ 10060ec4     libvcruntime:undname.obj
 0002:00000ed4       ??_C@_05PCNBGHCF@this?5@   10060ed4     libvcruntime:undname.obj
 0002:00000edc       ??_C@_06GCICPBLB@__w64?5@  10060edc     libvcruntime:undname.obj
 0002:00000ee4       ??_C@_07NFANNNEC@UNKNOWN@  10060ee4     libvcruntime:undname.obj
 0002:00000eec       ??_C@_07EDHNAJHC@signed?5@ 10060eec     libvcruntime:undname.obj
 0002:00000ef4       ??_C@_05BNCCCJPP@const@    10060ef4     libvcruntime:undname.obj
 0002:00000efc       ??_C@_09EFNPDFFP@?5volatile@ 10060efc     libvcruntime:undname.obj
 0002:00000f08       ??_C@_0P@GCIFDJCJ@?$GAunknown?5ecsu?8@ 10060f08     libvcruntime:undname.obj
 0002:00000f18       ??_C@_06MOJHIBMG@union?5@  10060f18     libvcruntime:undname.obj
 0002:00000f20       ??_C@_07DIBCDNGL@struct?5@ 10060f20     libvcruntime:undname.obj
 0002:00000f28       ??_C@_06LJBABKPM@class?5@  10060f28     libvcruntime:undname.obj
 0002:00000f30       ??_C@_08KOFANOFK@coclass?5@ 10060f30     libvcruntime:undname.obj
 0002:00000f3c       ??_C@_0N@DLIEFKNA@cointerface?5@ 10060f3c     libvcruntime:undname.obj
 0002:00000f4c       ??_C@_05LJGMCFOG@enum?5@   10060f4c     libvcruntime:undname.obj
 0002:00000f54       ??_C@_06LIJLOJAG@const?5@  10060f54     libvcruntime:undname.obj
 0002:00000f5c       ??_C@_02KJPKDIBN@?$CG?5@   10060f5c     libvcruntime:undname.obj
 0002:00000f60       ??_C@_03PCKGMOPB@?$CG?$CG?5@ 10060f60     libvcruntime:undname.obj
 0002:00000f64       ??_C@_0M@EALIELKG@cli?3?3array?$DM@ 10060f64     libvcruntime:undname.obj
 0002:00000f70       ??_C@_0O@GKABPPIF@cli?3?3pin_ptr?$DM@ 10060f70     libvcruntime:undname.obj
 0002:00000f80       ??_C@_02GOGNNPBN@?$CJ?$FL@ 10060f80     libvcruntime:undname.obj
 0002:00000f84       ??_C@_06EEGAIFAK@?$HLflat?$HN@ 10060f84     libvcruntime:undname.obj
 0002:00000f8c       ??_C@_05JIBOFOHK@?$HLfor?5@ 10060f8c     libvcruntime:undname.obj
 0002:00000f94       ??_C@_02MDINNEEG@s?5@      10060f94     libvcruntime:undname.obj
 0002:00000f9c       ??_7DNameNode@@6B@         10060f9c     libvcruntime:undname.obj
 0002:00000fb0       ??_7charNode@@6B@          10060fb0     libvcruntime:undname.obj
 0002:00000fc4       ??_7pcharNode@@6B@         10060fc4     libvcruntime:undname.obj
 0002:00000fd8       ??_7pDNameNode@@6B@        10060fd8     libvcruntime:undname.obj
 0002:00000fec       ??_7DNameStatusNode@@6B@   10060fec     libvcruntime:undname.obj
 0002:00001000       ??_7pairNode@@6B@          10061000     libvcruntime:undname.obj
 0002:00001110       ??_C@_04OKOHEJBO@?5?$DP?$DP?5@ 10061110     libvcruntime:undname.obj
 0002:00001118       ?nodes@?1??make@DNameStatusNode@@SAPBV2@W4DNameStatus@@@Z@4QBV2@B 10061118     libvcruntime:undname.obj
 0002:00001154       ??_C@_1DM@KHCHBNEB@?$AAa?$AAp?$AAi?$AA?9?$AAm?$AAs?$AA?9?$AAw?$AAi?$AAn?$AA?9?$AAc?$AAo?$AAr?$AAe@ 10061154     libvcruntime:winapi_downlevel.obj
 0002:00001190       ??_C@_1DK@LPPGFMPP@?$AAa?$AAp?$AAi?$AA?9?$AAm?$AAs?$AA?9?$AAw?$AAi?$AAn?$AA?9?$AAc?$AAo?$AAr?$AAe@ 10061190     libvcruntime:winapi_downlevel.obj
 0002:000011cc       ??_C@_1BC@GDMECMAK@?$AAk?$AAe?$AAr?$AAn?$AAe?$AAl?$AA3?$AA2@ 100611cc     libvcruntime:winapi_downlevel.obj
 0002:000011e0       ??_C@_1BA@PFFKHIOG@?$AAa?$AAp?$AAi?$AA?9?$AAm?$AAs?$AA?9@ 100611e0     libvcruntime:winapi_downlevel.obj
 0002:000011f8       ??_C@_08KNHFBNJ@FlsAlloc@  100611f8     libvcruntime:winapi_downlevel.obj
 0002:0000120c       ??_C@_07PEJMOBNF@FlsFree@  1006120c     libvcruntime:winapi_downlevel.obj
 0002:0000121c       ??_C@_0M@GDNOONDI@FlsGetValue@ 1006121c     libvcruntime:winapi_downlevel.obj
 0002:00001230       ??_C@_0M@JCPCPOEF@FlsSetValue@ 10061230     libvcruntime:winapi_downlevel.obj
 0002:00001244       ??_C@_0BM@HCFOFFN@InitializeCriticalSectionEx@ 10061244     libvcruntime:winapi_downlevel.obj
 0002:00001264       ??_7exception@std@@6B@     10061264     libvcruntime:frame.obj
 0002:0000126c       ??_C@_0BC@EOODALEL@Unknown?5exception@ 1006126c     libvcruntime:frame.obj
 0002:00001284       ??_7bad_exception@std@@6B@ 10061284     libvcruntime:frame.obj
 0002:0000128c       ??_C@_0O@DPKOEFFH@bad?5exception@ 1006128c     libvcruntime:frame.obj
 0002:0000129c       __Fenv1                    1006129c     libucrt:output.obj
 0002:000012a8       ?standard_lookup_table_spectre@__crt_stdio_output@@3V?$spectre_mitigated_lookup_table@Ustate_transition_pair@__crt_stdio_output@@$0IA@@1@B 100612a8     libucrt:output.obj
 0002:000013a8       ?format_validation_lookup_table_spectre@__crt_stdio_output@@3V?$spectre_mitigated_lookup_table@Ustate_transition_pair@__crt_stdio_output@@$0IA@@1@B 100613a8     libucrt:output.obj
 0002:000014a8       ??_C@_1O@CEDCILHN@?$AA?$CI?$AAn?$AAu?$AAl?$AAl?$AA?$CJ@ 100614a8     libucrt:output.obj
 0002:000014b8       ??_C@_06OJHGLDPL@?$CInull?$CJ@ 100614b8     libucrt:output.obj
 0002:00001628       ??_C@_0EA@FCLIIPNN@Visual?5C?$CL?$CL?5CRT?3?5Not?5enough?5memo@ 10061628     libucrt:strerror.obj
 0002:00001668       ??_C@_1IA@JENHHBGD@?$AAV?$AAi?$AAs?$AAu?$AAa?$AAl?$AA?5?$AAC?$AA?$CL?$AA?$CL?$AA?5?$AAC?$AAR?$AAT?$AA?3@ 10061668     libucrt:strerror.obj
 0002:000016e8       ___acrt_exception_action_table 100616e8     libucrt:exception_filter.obj
 0002:00001778       ___acrt_signal_action_table_count 10061778     libucrt:exception_filter.obj
 0002:0000177c       ___acrt_signal_action_table_size 1006177c     libucrt:exception_filter.obj
 0002:00001780       ___acrt_signal_action_first_fpe_index 10061780     libucrt:exception_filter.obj
 0002:00001784       ___acrt_signal_action_fpe_count 10061784     libucrt:exception_filter.obj
 0002:00001788       ??_C@_1BI@BGOHAHKC@?$AAm?$AAs?$AAc?$AAo?$AAr?$AAe?$AAe?$AA?4?$AAd?$AAl?$AAl@ 10061788     libucrt:exit.obj
 0002:000017a0       ??_C@_0P@MIGLKIOC@CorExitProcess@ 100617a0     libucrt:exit.obj
 0002:000018b0       ___lc_category             100618b0     libucrt:wsetlocale.obj
 0002:000018f8       ??_C@_1O@GIFLHMA@?$AAL?$AAC?$AA_?$AAA?$AAL?$AAL@ 100618f8     libucrt:wsetlocale.obj
 0002:00001908       ??_C@_1BG@PPOMIBNJ@?$AAL?$AAC?$AA_?$AAC?$AAO?$AAL?$AAL?$AAA?$AAT?$AAE@ 10061908     libucrt:wsetlocale.obj
 0002:00001920       ??_C@_1BC@FFJGAPJM@?$AAL?$AAC?$AA_?$AAC?$AAT?$AAY?$AAP?$AAE@ 10061920     libucrt:wsetlocale.obj
 0002:00001934       ??_C@_1BI@PCKFNJFB@?$AAL?$AAC?$AA_?$AAM?$AAO?$AAN?$AAE?$AAT?$AAA?$AAR?$AAY@ 10061934     libucrt:wsetlocale.obj
 0002:0000194c       ??_C@_1BG@ENIEDKID@?$AAL?$AAC?$AA_?$AAN?$AAU?$AAM?$AAE?$AAR?$AAI?$AAC@ 1006194c     libucrt:wsetlocale.obj
 0002:00001964       ??_C@_1BA@HAAOMIIG@?$AAL?$AAC?$AA_?$AAT?$AAI?$AAM?$AAE@ 10061964     libucrt:wsetlocale.obj
 0002:00001974       ??_C@_15NBPDDFIP@?$AA?$DN?$AA?$DL@ 10061974     libucrt:wsetlocale.obj
 0002:0000197c       ??_C@_13PJJBFPED@?$AA?$DL@ 1006197c     libucrt:wsetlocale.obj
 0002:00001980       ??_C@_13NMPKAAJP@?$AA?$DN@ 10061980     libucrt:wsetlocale.obj
 0002:00001984       ??_C@_13IMODFHAA@?$AA?9@   10061984     libucrt:wsetlocale.obj
 0002:00001988       ??_C@_17EFJLDFDO@?$AA?9?$AA_?$AA?4@ 10061988     libucrt:wsetlocale.obj
 0002:00001990       ??_C@_13FHBKNHDA@?$AAC@    10061990     libucrt:wsetlocale.obj
 0002:00001994       ??_C@_17MBJJLFDM@?$AA_?$AA?4?$AA?0@ 10061994     libucrt:wsetlocale.obj
 0002:0000199c       ??_C@_13ENNFDPBH@?$AA_@    1006199c     libucrt:wsetlocale.obj
 0002:000019a0       ??_C@_13JOFGPIOO@?$AA?4@   100619a0     libucrt:wsetlocale.obj
 0002:000019a8       ___lc_time_c               100619a8     libucrt:nlsdata.obj
 0002:00001b0c       ??_C@_03KOEHGMDN@Sun@      10061b0c     libucrt:nlsdata.obj
 0002:00001b10       ??_C@_03PDAGKDH@Mon@       10061b10     libucrt:nlsdata.obj
 0002:00001b14       ??_C@_03NAGEINEP@Tue@      10061b14     libucrt:nlsdata.obj
 0002:00001b18       ??_C@_03MHOMLAJA@Wed@      10061b18     libucrt:nlsdata.obj
 0002:00001b1c       ??_C@_03IOFIKPDN@Thu@      10061b1c     libucrt:nlsdata.obj
 0002:00001b20       ??_C@_03IDIOELNC@Fri@      10061b20     libucrt:nlsdata.obj
 0002:00001b24       ??_C@_03FEFJNEK@Sat@       10061b24     libucrt:nlsdata.obj
 0002:00001b28       ??_C@_06OOPIFAJ@Sunday@    10061b28     libucrt:nlsdata.obj
 0002:00001b30       ??_C@_06JLEDEDGH@Monday@   10061b30     libucrt:nlsdata.obj
 0002:00001b38       ??_C@_07BAAGCFCM@Tuesday@  10061b38     libucrt:nlsdata.obj
 0002:00001b40       ??_C@_09DLIGFAKA@Wednesday@ 10061b40     libucrt:nlsdata.obj
 0002:00001b4c       ??_C@_08HACCIKIA@Thursday@ 10061b4c     libucrt:nlsdata.obj
 0002:00001b58       ??_C@_06JECMNKMI@Friday@   10061b58     libucrt:nlsdata.obj
 0002:00001b60       ??_C@_08INBOOONO@Saturday@ 10061b60     libucrt:nlsdata.obj
 0002:00001b6c       ??_C@_03JIHJHPIE@Jan@      10061b6c     libucrt:nlsdata.obj
 0002:00001b70       ??_C@_03HJBDCHOM@Feb@      10061b70     libucrt:nlsdata.obj
 0002:00001b74       ??_C@_03ODNJBKGA@Mar@      10061b74     libucrt:nlsdata.obj
 0002:00001b78       ??_C@_03LEOLGMJP@Apr@      10061b78     libucrt:nlsdata.obj
 0002:00001b7c       ??_C@_03CNMDKL@May@        10061b7c     libucrt:nlsdata.obj
 0002:00001b80       ??_C@_03IDFGHECI@Jun@      10061b80     libucrt:nlsdata.obj
 0002:00001b84       ??_C@_03LBGABGKK@Jul@      10061b84     libucrt:nlsdata.obj
 0002:00001b88       ??_C@_03IFJFEIGA@Aug@      10061b88     libucrt:nlsdata.obj
 0002:00001b8c       ??_C@_03GGCAPAJC@Sep@      10061b8c     libucrt:nlsdata.obj
 0002:00001b90       ??_C@_03BMAOKBAD@Oct@      10061b90     libucrt:nlsdata.obj
 0002:00001b94       ??_C@_03JPJOFNIA@Nov@      10061b94     libucrt:nlsdata.obj
 0002:00001b98       ??_C@_03MKABNOCG@Dec@      10061b98     libucrt:nlsdata.obj
 0002:00001b9c       ??_C@_07CGJPFGJA@January@  10061b9c     libucrt:nlsdata.obj
 0002:00001ba4       ??_C@_08GNJGEPFN@February@ 10061ba4     libucrt:nlsdata.obj
 0002:00001bb0       ??_C@_05HPCKOFNC@March@    10061bb0     libucrt:nlsdata.obj
 0002:00001bb8       ??_C@_05DMJDNLEJ@April@    10061bb8     libucrt:nlsdata.obj
 0002:00001bc0       ??_C@_04CNLMGBGM@June@     10061bc0     libucrt:nlsdata.obj
 0002:00001bc8       ??_C@_04MIEPOIFP@July@     10061bc8     libucrt:nlsdata.obj
 0002:00001bd0       ??_C@_06LBBHFDDG@August@   10061bd0     libucrt:nlsdata.obj
 0002:00001bd8       ??_C@_09BHHEALKD@September@ 10061bd8     libucrt:nlsdata.obj
 0002:00001be4       ??_C@_07JJNFCEND@October@  10061be4     libucrt:nlsdata.obj
 0002:00001bec       ??_C@_08HCHEGEOA@November@ 10061bec     libucrt:nlsdata.obj
 0002:00001bf8       ??_C@_08EDHMEBNP@December@ 10061bf8     libucrt:nlsdata.obj
 0002:00001c04       ??_C@_02DEDBPAFC@AM@       10061c04     libucrt:nlsdata.obj
 0002:00001c08       ??_C@_02CJNFDJBF@PM@       10061c08     libucrt:nlsdata.obj
 0002:00001c0c       ??_C@_08BPBNCDIB@MM?1dd?1yy@ 10061c0c     libucrt:nlsdata.obj
 0002:00001c18       ??_C@_0BE@CKGJFCPC@dddd?0?5MMMM?5dd?0?5yyyy@ 10061c18     libucrt:nlsdata.obj
 0002:00001c2c       ??_C@_08JCCMCCIL@HH?3mm?3ss@ 10061c2c     libucrt:nlsdata.obj
 0002:00001c38       ??_C@_17MBGCMIPB@?$AAS?$AAu?$AAn@ 10061c38     libucrt:nlsdata.obj
 0002:00001c40       ??_C@_17KBOMKBF@?$AAM?$AAo?$AAn@ 10061c40     libucrt:nlsdata.obj
 0002:00001c48       ??_C@_17BMKGEGOJ@?$AAT?$AAu?$AAe@ 10061c48     libucrt:nlsdata.obj
 0002:00001c50       ??_C@_17CJEDCEPE@?$AAW?$AAe?$AAd@ 10061c50     libucrt:nlsdata.obj
 0002:00001c58       ??_C@_17PDPHAADD@?$AAT?$AAh?$AAu@ 10061c58     libucrt:nlsdata.obj
 0002:00001c60       ??_C@_17HFOLPPLP@?$AAF?$AAr?$AAi@ 10061c60     libucrt:nlsdata.obj
 0002:00001c68       ??_C@_17GGIBDPIH@?$AAS?$AAa?$AAt@ 10061c68     libucrt:nlsdata.obj
 0002:00001c70       ??_C@_1O@IHNHDHPB@?$AAS?$AAu?$AAn?$AAd?$AAa?$AAy@ 10061c70     libucrt:nlsdata.obj
 0002:00001c80       ??_C@_1O@MMNBFLIA@?$AAM?$AAo?$AAn?$AAd?$AAa?$AAy@ 10061c80     libucrt:nlsdata.obj
 0002:00001c90       ??_C@_1BA@ENFBFFEK@?$AAT?$AAu?$AAe?$AAs?$AAd?$AAa?$AAy@ 10061c90     libucrt:nlsdata.obj
 0002:00001ca0       ??_C@_1BE@EBOGMDOH@?$AAW?$AAe?$AAd?$AAn?$AAe?$AAs?$AAd?$AAa?$AAy@ 10061ca0     libucrt:nlsdata.obj
 0002:00001cb4       ??_C@_1BC@HHMNLIHE@?$AAT?$AAh?$AAu?$AAr?$AAs?$AAd?$AAa?$AAy@ 10061cb4     libucrt:nlsdata.obj
 0002:00001cc8       ??_C@_1O@PDICJHAG@?$AAF?$AAr?$AAi?$AAd?$AAa?$AAy@ 10061cc8     libucrt:nlsdata.obj
 0002:00001cd8       ??_C@_1BC@ENMNNPAJ@?$AAS?$AAa?$AAt?$AAu?$AAr?$AAd?$AAa?$AAy@ 10061cd8     libucrt:nlsdata.obj
 0002:00001cec       ??_C@_17DKNBKCHM@?$AAJ?$AAa?$AAn@ 10061cec     libucrt:nlsdata.obj
 0002:00001cf4       ??_C@_17LMDJEKJN@?$AAF?$AAe?$AAb@ 10061cf4     libucrt:nlsdata.obj
 0002:00001cfc       ??_C@_17CKNLEDEC@?$AAM?$AAa?$AAr@ 10061cfc     libucrt:nlsdata.obj
 0002:00001d04       ??_C@_17LFPOIHDD@?$AAA?$AAp?$AAr@ 10061d04     libucrt:nlsdata.obj
 0002:00001d0c       ??_C@_17PNNKMEED@?$AAM?$AAa?$AAy@ 10061d0c     libucrt:nlsdata.obj
 0002:00001d14       ??_C@_17KCJGOCPB@?$AAJ?$AAu?$AAn@ 10061d14     libucrt:nlsdata.obj
 0002:00001d1c       ??_C@_17IJPCKHK@?$AAJ?$AAu?$AAl@ 10061d1c     libucrt:nlsdata.obj
 0002:00001d24       ??_C@_17ICPELBCN@?$AAA?$AAu?$AAg@ 10061d24     libucrt:nlsdata.obj
 0002:00001d2c       ??_C@_17HCHCOKMG@?$AAS?$AAe?$AAp@ 10061d2c     libucrt:nlsdata.obj
 0002:00001d34       ??_C@_17FNLKOI@?$AAO?$AAc?$AAt@ 10061d34     libucrt:nlsdata.obj
 0002:00001d3c       ??_C@_17BBDMLCIG@?$AAN?$AAo?$AAv@ 10061d3c     libucrt:nlsdata.obj
 0002:00001d44       ??_C@_17EGKACKIF@?$AAD?$AAe?$AAc@ 10061d44     libucrt:nlsdata.obj
 0002:00001d4c       ??_C@_1BA@EFMEIEBA@?$AAJ?$AAa?$AAn?$AAu?$AAa?$AAr?$AAy@ 10061d4c     libucrt:nlsdata.obj
 0002:00001d5c       ??_C@_1BC@JGDDFFAM@?$AAF?$AAe?$AAb?$AAr?$AAu?$AAa?$AAr?$AAy@ 10061d5c     libucrt:nlsdata.obj
 0002:00001d70       ??_C@_1M@IKEENEDF@?$AAM?$AAa?$AAr?$AAc?$AAh@ 10061d70     libucrt:nlsdata.obj
 0002:00001d7c       ??_C@_1M@GJNLMHFD@?$AAA?$AAp?$AAr?$AAi?$AAl@ 10061d7c     libucrt:nlsdata.obj
 0002:00001d88       ??_C@_19EPFLPGAP@?$AAJ?$AAu?$AAn?$AAe@ 10061d88     libucrt:nlsdata.obj
 0002:00001d94       ??_C@_19BIFMLPCD@?$AAJ?$AAu?$AAl?$AAy@ 10061d94     libucrt:nlsdata.obj
 0002:00001da0       ??_C@_1O@PAHLKOAC@?$AAA?$AAu?$AAg?$AAu?$AAs?$AAt@ 10061da0     libucrt:nlsdata.obj
 0002:00001db0       ??_C@_1BE@DKAAMBJL@?$AAS?$AAe?$AAp?$AAt?$AAe?$AAm?$AAb?$AAe?$AAr@ 10061db0     libucrt:nlsdata.obj
 0002:00001dc4       ??_C@_1BA@EPANDLNG@?$AAO?$AAc?$AAt?$AAo?$AAb?$AAe?$AAr@ 10061dc4     libucrt:nlsdata.obj
 0002:00001dd4       ??_C@_1BC@BGLIFPF@?$AAN?$AAo?$AAv?$AAe?$AAm?$AAb?$AAe?$AAr@ 10061dd4     libucrt:nlsdata.obj
 0002:00001de8       ??_C@_1BC@FEMKIFH@?$AAD?$AAe?$AAc?$AAe?$AAm?$AAb?$AAe?$AAr@ 10061de8     libucrt:nlsdata.obj
 0002:00001dfc       ??_C@_15ODEHAHHF@?$AAA?$AAM@ 10061dfc     libucrt:nlsdata.obj
 0002:00001e04       ??_C@_15CLMNNGEL@?$AAP?$AAM@ 10061e04     libucrt:nlsdata.obj
 0002:00001e0c       ??_C@_1BC@IEBCMHCM@?$AAM?$AAM?$AA?1?$AAd?$AAd?$AA?1?$AAy?$AAy@ 10061e0c     libucrt:nlsdata.obj
 0002:00001e20       ??_C@_1CI@KNAKOEBC@?$AAd?$AAd?$AAd?$AAd?$AA?0?$AA?5?$AAM?$AAM?$AAM?$AAM?$AA?5?$AAd?$AAd?$AA?0?$AA?5@ 10061e20     libucrt:nlsdata.obj
 0002:00001e48       ??_C@_1BC@GDGBMEMK@?$AAH?$AAH?$AA?3?$AAm?$AAm?$AA?3?$AAs?$AAs@ 10061e48     libucrt:nlsdata.obj
 0002:00001e5c       ??_C@_1M@BMHNFIME@?$AAe?$AAn?$AA?9?$AAU?$AAS@ 10061e5c     libucrt:nlsdata.obj
 0002:00001e68       _RtlNtPathSeperatorString  10061e68     libucrt:winapi_thunks.obj
 0002:00001e70       ??_C@_13FPGAJAPJ@?$AA?2@   10061e70     libucrt:winapi_thunks.obj
 0002:00001e74       _RtlDosPathSeperatorsString 10061e74     libucrt:winapi_thunks.obj
 0002:00001e7c       ??_C@_15MNCACJLI@?$AA?2?$AA?1@ 10061e7c     libucrt:winapi_thunks.obj
 0002:00001e84       _RtlAlternateDosPathSeperatorString 10061e84     libucrt:winapi_thunks.obj
 0002:00001e8c       ??_C@_13CGOKJPIL@?$AA?1@   10061e8c     libucrt:winapi_thunks.obj
 0002:00001ee8       ??_C@_1EA@JGEFHKEI@?$AAa?$AAp?$AAi?$AA?9?$AAm?$AAs?$AA?9?$AAw?$AAi?$AAn?$AA?9?$AAc?$AAo?$AAr?$AAe@ 10061ee8     libucrt:winapi_thunks.obj
 0002:00001f28       ??_C@_1DI@KMEPCBPN@?$AAa?$AAp?$AAi?$AA?9?$AAm?$AAs?$AA?9?$AAw?$AAi?$AAn?$AA?9?$AAc?$AAo?$AAr?$AAe@ 10061f28     libucrt:winapi_thunks.obj
 0002:00001f60       ??_C@_1DI@IJCEHOCB@?$AAa?$AAp?$AAi?$AA?9?$AAm?$AAs?$AA?9?$AAw?$AAi?$AAn?$AA?9?$AAc?$AAo?$AAr?$AAe@ 10061f60     libucrt:winapi_thunks.obj
 0002:00001f98       ??_C@_1EI@MPIAOHOC@?$AAa?$AAp?$AAi?$AA?9?$AAm?$AAs?$AA?9?$AAw?$AAi?$AAn?$AA?9?$AAc?$AAo?$AAr?$AAe@ 10061f98     libucrt:winapi_thunks.obj
 0002:00001fe0       ??_C@_1FK@FPHCKFIE@?$AAa?$AAp?$AAi?$AA?9?$AAm?$AAs?$AA?9?$AAw?$AAi?$AAn?$AA?9?$AAc?$AAo?$AAr?$AAe@ 10061fe0     libucrt:winapi_thunks.obj
 0002:00002040       ??_C@_1EM@DILCGIIO@?$AAa?$AAp?$AAi?$AA?9?$AAm?$AAs?$AA?9?$AAw?$AAi?$AAn?$AA?9?$AAc?$AAo?$AAr?$AAe@ 10062040     libucrt:winapi_thunks.obj
 0002:0000208c       ??_C@_1DM@LNCGDDPN@?$AAa?$AAp?$AAi?$AA?9?$AAm?$AAs?$AA?9?$AAw?$AAi?$AAn?$AA?9?$AAc?$AAo?$AAr?$AAe@ 1006208c     libucrt:winapi_thunks.obj
 0002:000020c8       ??_C@_1DO@FPAPJEMD@?$AAa?$AAp?$AAi?$AA?9?$AAm?$AAs?$AA?9?$AAw?$AAi?$AAn?$AA?9?$AAc?$AAo?$AAr?$AAe@ 100620c8     libucrt:winapi_thunks.obj
 0002:00002108       ??_C@_1DK@NDHNAHIO@?$AAa?$AAp?$AAi?$AA?9?$AAm?$AAs?$AA?9?$AAw?$AAi?$AAn?$AA?9?$AAc?$AAo?$AAr?$AAe@ 10062108     libucrt:winapi_thunks.obj
 0002:00002144       ??_C@_1DM@KGHDGBCM@?$AAa?$AAp?$AAi?$AA?9?$AAm?$AAs?$AA?9?$AAw?$AAi?$AAn?$AA?9?$AAc?$AAo?$AAr?$AAe@ 10062144     libucrt:winapi_thunks.obj
 0002:00002180       ??_C@_1EO@IJIOEFOH@?$AAa?$AAp?$AAi?$AA?9?$AAm?$AAs?$AA?9?$AAw?$AAi?$AAn?$AA?9?$AAr?$AAt?$AAc?$AAo@ 10062180     libucrt:winapi_thunks.obj
 0002:000021d0       ??_C@_1FG@HHGEKANL@?$AAa?$AAp?$AAi?$AA?9?$AAm?$AAs?$AA?9?$AAw?$AAi?$AAn?$AA?9?$AAs?$AAe?$AAc?$AAu@ 100621d0     libucrt:winapi_thunks.obj
 0002:00002228       ??_C@_1EG@DBIOJECG@?$AAe?$AAx?$AAt?$AA?9?$AAm?$AAs?$AA?9?$AAw?$AAi?$AAn?$AA?9?$AAn?$AAt?$AAu?$AAs@ 10062228     libucrt:winapi_thunks.obj
 0002:00002270       ??_C@_1EO@FIHMJCLF@?$AAe?$AAx?$AAt?$AA?9?$AAm?$AAs?$AA?9?$AAw?$AAi?$AAn?$AA?9?$AAn?$AAt?$AAu?$AAs@ 10062270     libucrt:winapi_thunks.obj
 0002:000022c0       ??_C@_1BC@DNHGCMLG@?$AAa?$AAd?$AAv?$AAa?$AAp?$AAi?$AA3?$AA2@ 100622c0     libucrt:winapi_thunks.obj
 0002:000022d4       ??_C@_1BG@CJPGBMEF@?$AAk?$AAe?$AAr?$AAn?$AAe?$AAl?$AAb?$AAa?$AAs?$AAe@ 100622d4     libucrt:winapi_thunks.obj
 0002:000022ec       ??_C@_1M@OAIMIKLP@?$AAn?$AAt?$AAd?$AAl?$AAl@ 100622ec     libucrt:winapi_thunks.obj
 0002:000022f8       ??_C@_1EG@DPGNFKGC@?$AAa?$AAp?$AAi?$AA?9?$AAm?$AAs?$AA?9?$AAw?$AAi?$AAn?$AA?9?$AAa?$AAp?$AAp?$AAm@ 100622f8     libucrt:winapi_thunks.obj
 0002:00002340       ??_C@_1O@BCCLBEOE@?$AAu?$AAs?$AAe?$AAr?$AA3?$AA2@ 10062340     libucrt:winapi_thunks.obj
 0002:00002350       ??_C@_1DM@BPJLHKCE@?$AAa?$AAp?$AAi?$AA?9?$AAm?$AAs?$AA?9?$AAw?$AAi?$AAn?$AA?9?$AAc?$AAo?$AAr?$AAe@ 10062350     libucrt:winapi_thunks.obj
 0002:0000238c       ??_C@_1BA@IAIFMGEF@?$AAe?$AAx?$AAt?$AA?9?$AAm?$AAs?$AA?9@ 1006238c     libucrt:winapi_thunks.obj
 0002:000023a0       ??_C@_0BA@FHFNEAED@AreFileApisANSI@ 100623a0     libucrt:winapi_thunks.obj
 0002:000023b8       ??_C@_0BA@IHGNDAEB@CompareStringEx@ 100623b8     libucrt:winapi_thunks.obj
 0002:000023d0       ??_C@_0BE@LJANKFHF@EnumSystemLocalesEx@ 100623d0     libucrt:winapi_thunks.obj
 0002:000023ec       ??_C@_0BA@HNOPNCHB@GetActiveWindow@ 100623ec     libucrt:winapi_thunks.obj
 0002:00002404       ??_C@_0BA@EPCJIIPD@GetDateFormatEx@ 10062404     libucrt:winapi_thunks.obj
 0002:0000241c       ??_C@_0O@NNMIPI@GetTempPath2W@ 1006241c     libucrt:winapi_thunks.obj
 0002:00002434       ??_C@_0BJ@DIBIJBHA@GetEnabledXStateFeatures@ 10062434     libucrt:winapi_thunks.obj
 0002:00002458       ??_C@_0BD@HHGDFDBJ@GetLastActivePopup@ 10062458     libucrt:winapi_thunks.obj
 0002:00002474       ??_C@_0BA@ONOKGCMP@GetLocaleInfoEx@ 10062474     libucrt:winapi_thunks.obj
 0002:0000248c       ??_C@_0BI@DFKBFLJE@GetProcessWindowStation@ 1006248c     libucrt:winapi_thunks.obj
 0002:000024a8       ??_C@_0BP@FPNJPEJC@GetSystemTimePreciseAsFileTime@ 100624a8     libucrt:winapi_thunks.obj
 0002:000024d0       ??_C@_0BA@CIJJKCJJ@GetTimeFormatEx@ 100624d0     libucrt:winapi_thunks.obj
 0002:000024e8       ??_C@_0BJ@PBCCBIPI@GetUserDefaultLocaleName@ 100624e8     libucrt:winapi_thunks.obj
 0002:0000250c       ??_C@_0BK@DEKFELLI@GetUserObjectInformationW@ 1006250c     libucrt:winapi_thunks.obj
 0002:00002530       ??_C@_0BG@IKLDMBLM@GetXStateFeaturesMask@ 10062530     libucrt:winapi_thunks.obj
 0002:00002558       ??_C@_0BC@CELBKLLA@IsValidLocaleName@ 10062558     libucrt:winapi_thunks.obj
 0002:00002574       ??_C@_0O@KKBNKAPF@LCMapStringEx@ 10062574     libucrt:winapi_thunks.obj
 0002:0000258c       ??_C@_0BB@CDHDDLLP@LCIDToLocaleName@ 1006258c     libucrt:winapi_thunks.obj
 0002:000025a8       ??_C@_0BB@HBDEELFH@LocaleNameToLCID@ 100625a8     libucrt:winapi_thunks.obj
 0002:000025c4       ??_C@_0BE@KINNKFDA@LocateXStateFeature@ 100625c4     libucrt:winapi_thunks.obj
 0002:000025e0       ??_C@_0M@CHKKJDAI@MessageBoxA@ 100625e0     libucrt:winapi_thunks.obj
 0002:000025f4       ??_C@_0M@DLDCCGNP@MessageBoxW@ 100625f4     libucrt:winapi_thunks.obj
 0002:00002604       ??_C@_0N@PPOMPGGK@RoInitialize@ 10062604     libucrt:winapi_thunks.obj
 0002:00002618       ??_C@_0P@LLFHBIJD@RoUninitialize@ 10062618     libucrt:winapi_thunks.obj
 0002:0000262c       ??_C@_0CF@OJOFEIGO@AppPolicyGetProcessTerminationM@ 1006262c     libucrt:winapi_thunks.obj
 0002:00002658       ??_C@_0CF@NNDFDCOC@AppPolicyGetThreadInitializatio@ 10062658     libucrt:winapi_thunks.obj
 0002:00002684       ??_C@_0CE@OICFMIKE@AppPolicyGetShowDeveloperDiagno@ 10062684     libucrt:winapi_thunks.obj
 0002:000026ac       ??_C@_0BL@ODDJNEDA@AppPolicyGetWindowingModel@ 100626ac     libucrt:winapi_thunks.obj
 0002:000026d0       ??_C@_0BI@BKLFFAPO@SetThreadStackGuarantee@ 100626d0     libucrt:winapi_thunks.obj
 0002:000026f0       ??_C@_0BC@JEAENNKH@SystemFunction036@ 100626f0     libucrt:winapi_thunks.obj
 0002:00002768       ??_C@_03OEIAHPBN@INF@      10062768     libucrt:cvt.obj
 0002:0000276c       ??_C@_03OJHLLCGB@inf@      1006276c     libucrt:cvt.obj
 0002:00002770       ??_C@_03LKNCIKJB@NAN@      10062770     libucrt:cvt.obj
 0002:00002774       ??_C@_03LHCJEHON@nan@      10062774     libucrt:cvt.obj
 0002:00002778       ??_C@_09OFJJIMPC@NAN?$CISNAN?$CJ@ 10062778     libucrt:cvt.obj
 0002:00002784       ??_C@_09IPFBKMDL@nan?$CIsnan?$CJ@ 10062784     libucrt:cvt.obj
 0002:00002790       ??_C@_08IKHNHAJ@NAN?$CIIND?$CJ@ 10062790     libucrt:cvt.obj
 0002:0000279c       ??_C@_08OFCDMILK@nan?$CIind?$CJ@ 1006279c     libucrt:cvt.obj
 0002:000027a8       ??_C@_05KLBDPFGC@e?$CL000@ 100627a8     libucrt:cvt.obj
 0002:000027b0       __sys_first_posix_error    100627b0     libucrt:syserr.obj
 0002:000027b4       __sys_last_posix_error     100627b4     libucrt:syserr.obj
 0002:000027b8       __sys_posix_errlist        100627b8     libucrt:syserr.obj
 0002:00002860       __sys_errlist              10062860     libucrt:syserr.obj
 0002:00002910       ??_C@_08INEPGKHH@No?5error@ 10062910     libucrt:syserr.obj
 0002:0000291c       ??_C@_0BI@BJFCGOHL@Operation?5not?5permitted@ 1006291c     libucrt:syserr.obj
 0002:00002934       ??_C@_0BK@FMDHKPNF@No?5such?5file?5or?5directory@ 10062934     libucrt:syserr.obj
 0002:00002950       ??_C@_0BA@FKIAIBGA@No?5such?5process@ 10062950     libucrt:syserr.obj
 0002:00002960       ??_C@_0BK@FJBOAFDK@Interrupted?5function?5call@ 10062960     libucrt:syserr.obj
 0002:0000297c       ??_C@_0BD@KKNFOBBD@Input?1output?5error@ 1006297c     libucrt:syserr.obj
 0002:00002990       ??_C@_0BK@DPKMCKJ@No?5such?5device?5or?5address@ 10062990     libucrt:syserr.obj
 0002:000029ac       ??_C@_0BC@MFFGCDFL@Arg?5list?5too?5long@ 100629ac     libucrt:syserr.obj
 0002:000029c0       ??_C@_0BC@HKPNECK@Exec?5format?5error@ 100629c0     libucrt:syserr.obj
 0002:000029d4       ??_C@_0BE@NFGDDCEF@Bad?5file?5descriptor@ 100629d4     libucrt:syserr.obj
 0002:000029e8       ??_C@_0BD@LOHELEP@No?5child?5processes@ 100629e8     libucrt:syserr.obj
 0002:000029fc       ??_C@_0CB@EPFKGNAK@Resource?5temporarily?5unavailabl@ 100629fc     libucrt:syserr.obj
 0002:00002a20       ??_C@_0BB@IMDKMPFB@Not?5enough?5space@ 10062a20     libucrt:syserr.obj
 0002:00002a34       ??_C@_0BC@HFNFNKAI@Permission?5denied@ 10062a34     libucrt:syserr.obj
 0002:00002a48       ??_C@_0M@LOEHLCJD@Bad?5address@ 10062a48     libucrt:syserr.obj
 0002:00002a54       ??_C@_0O@NIPGCINC@Unknown?5error@ 10062a54     libucrt:syserr.obj
 0002:00002a64       ??_C@_0BA@BIBLIOEK@Resource?5device@ 10062a64     libucrt:syserr.obj
 0002:00002a74       ??_C@_0M@NAAJNNGH@File?5exists@ 10062a74     libucrt:syserr.obj
 0002:00002a80       ??_C@_0O@OAMDNOCP@Improper?5link@ 10062a80     libucrt:syserr.obj
 0002:00002a90       ??_C@_0P@NLEIANHE@No?5such?5device@ 10062a90     libucrt:syserr.obj
 0002:00002aa0       ??_C@_0BA@CJBACOOL@Not?5a?5directory@ 10062aa0     libucrt:syserr.obj
 0002:00002ab0       ??_C@_0P@NDHGCGKE@Is?5a?5directory@ 10062ab0     libucrt:syserr.obj
 0002:00002ac0       ??_C@_0BB@HMGGCEBG@Invalid?5argument@ 10062ac0     libucrt:syserr.obj
 0002:00002ad4       ??_C@_0BO@IIFBODJE@Too?5many?5open?5files?5in?5system@ 10062ad4     libucrt:syserr.obj
 0002:00002af4       ??_C@_0BE@INBJMKGG@Too?5many?5open?5files@ 10062af4     libucrt:syserr.obj
 0002:00002b08       ??_C@_0CE@ONOKNLPF@Inappropriate?5I?1O?5control?5opera@ 10062b08     libucrt:syserr.obj
 0002:00002b2c       ??_C@_0P@LFMMIPAE@File?5too?5large@ 10062b2c     libucrt:syserr.obj
 0002:00002b3c       ??_C@_0BI@FEALHKLD@No?5space?5left?5on?5device@ 10062b3c     libucrt:syserr.obj
 0002:00002b54       ??_C@_0N@FEHLOILP@Invalid?5seek@ 10062b54     libucrt:syserr.obj
 0002:00002b64       ??_C@_0BG@DDBFNKBH@Read?9only?5file?5system@ 10062b64     libucrt:syserr.obj
 0002:00002b7c       ??_C@_0P@PKCJJLLM@Too?5many?5links@ 10062b7c     libucrt:syserr.obj
 0002:00002b8c       ??_C@_0M@LHEPIIOM@Broken?5pipe@ 10062b8c     libucrt:syserr.obj
 0002:00002b98       ??_C@_0N@MMJPGLJK@Domain?5error@ 10062b98     libucrt:syserr.obj
 0002:00002ba8       ??_C@_0BB@FCBJFCAJ@Result?5too?5large@ 10062ba8     libucrt:syserr.obj
 0002:00002bbc       ??_C@_0BK@JAEBMJJM@Resource?5deadlock?5avoided@ 10062bbc     libucrt:syserr.obj
 0002:00002bd8       ??_C@_0BC@BEDIHIDK@Filename?5too?5long@ 10062bd8     libucrt:syserr.obj
 0002:00002bec       ??_C@_0BD@CLHBCGPB@No?5locks?5available@ 10062bec     libucrt:syserr.obj
 0002:00002c00       ??_C@_0BJ@IHEHINLI@Function?5not?5implemented@ 10062c00     libucrt:syserr.obj
 0002:00002c1c       ??_C@_0BE@ICMCHPHH@Directory?5not?5empty@ 10062c1c     libucrt:syserr.obj
 0002:00002c30       ??_C@_0BG@KLEAJEFJ@Illegal?5byte?5sequence@ 10062c30     libucrt:syserr.obj
 0002:00002c48       ??_C@_0P@LDMLAFHI@address?5in?5use@ 10062c48     libucrt:syserr.obj
 0002:00002c58       ??_C@_0BG@DHPCNBJB@address?5not?5available@ 10062c58     libucrt:syserr.obj
 0002:00002c70       ??_C@_0BN@LKKBCCDB@address?5family?5not?5supported@ 10062c70     libucrt:syserr.obj
 0002:00002c90       ??_C@_0BP@KAIHPOGN@connection?5already?5in?5progress@ 10062c90     libucrt:syserr.obj
 0002:00002cb0       ??_C@_0M@PMMIEFCP@bad?5message@ 10062cb0     libucrt:syserr.obj
 0002:00002cbc       ??_C@_0BD@MOLBPMEA@operation?5canceled@ 10062cbc     libucrt:syserr.obj
 0002:00002cd0       ??_C@_0BD@MGNDDEGM@connection?5aborted@ 10062cd0     libucrt:syserr.obj
 0002:00002ce4       ??_C@_0BD@PJLIIJEL@connection?5refused@ 10062ce4     libucrt:syserr.obj
 0002:00002cf8       ??_C@_0BB@IECNJNOI@connection?5reset@ 10062cf8     libucrt:syserr.obj
 0002:00002d0c       ??_C@_0BN@KDMIFEIP@destination?5address?5required@ 10062d0c     libucrt:syserr.obj
 0002:00002d2c       ??_C@_0BB@DHFDFGDM@host?5unreachable@ 10062d2c     libucrt:syserr.obj
 0002:00002d40       ??_C@_0BD@JPHBMONG@identifier?5removed@ 10062d40     libucrt:syserr.obj
 0002:00002d54       ??_C@_0BG@KDKHOPCO@operation?5in?5progress@ 10062d54     libucrt:syserr.obj
 0002:00002d6c       ??_C@_0BC@DFIBIBIL@already?5connected@ 10062d6c     libucrt:syserr.obj
 0002:00002d80       ??_C@_0BO@EFGOJEF@too?5many?5symbolic?5link?5levels@ 10062d80     libucrt:syserr.obj
 0002:00002da0       ??_C@_0N@IFLPBIOP@message?5size@ 10062da0     libucrt:syserr.obj
 0002:00002db0       ??_C@_0N@KIIEAAIO@network?5down@ 10062db0     libucrt:syserr.obj
 0002:00002dc0       ??_C@_0O@FNPDBHEE@network?5reset@ 10062dc0     libucrt:syserr.obj
 0002:00002dd0       ??_C@_0BE@IFNCKGE@network?5unreachable@ 10062dd0     libucrt:syserr.obj
 0002:00002de4       ??_C@_0BA@PFFCAOFK@no?5buffer?5space@ 10062de4     libucrt:syserr.obj
 0002:00002df4       ??_C@_0BF@PBGGPKKE@no?5message?5available@ 10062df4     libucrt:syserr.obj
 0002:00002e0c       ??_C@_07PLECNNKG@no?5link@ 10062e0c     libucrt:syserr.obj
 0002:00002e14       ??_C@_0L@EDOLMPAK@no?5message@ 10062e14     libucrt:syserr.obj
 0002:00002e20       ??_C@_0BD@EAMBFIDF@no?5protocol?5option@ 10062e20     libucrt:syserr.obj
 0002:00002e34       ??_C@_0BE@MKFDAFMP@no?5stream?5resources@ 10062e34     libucrt:syserr.obj
 0002:00002e48       ??_C@_0N@LGAPMMPI@not?5a?5stream@ 10062e48     libucrt:syserr.obj
 0002:00002e58       ??_C@_0O@GLMIBBEG@not?5connected@ 10062e58     libucrt:syserr.obj
 0002:00002e68       ??_C@_0BG@MPLKFPAE@state?5not?5recoverable@ 10062e68     libucrt:syserr.obj
 0002:00002e80       ??_C@_0N@POEIPGGF@not?5a?5socket@ 10062e80     libucrt:syserr.obj
 0002:00002e90       ??_C@_0O@NHEDABJP@not?5supported@ 10062e90     libucrt:syserr.obj
 0002:00002ea0       ??_C@_0BI@LNEGIFLN@operation?5not?5supported@ 10062ea0     libucrt:syserr.obj
 0002:00002eb8       ??_C@_0BA@KGKGOOJA@value?5too?5large@ 10062eb8     libucrt:syserr.obj
 0002:00002ec8       ??_C@_0L@BLPOFLNJ@owner?5dead@ 10062ec8     libucrt:syserr.obj
 0002:00002ed4       ??_C@_0P@FNPOCJBE@protocol?5error@ 10062ed4     libucrt:syserr.obj
 0002:00002ee4       ??_C@_0BH@JPPPLHJB@protocol?5not?5supported@ 10062ee4     libucrt:syserr.obj
 0002:00002efc       ??_C@_0BE@MIEJDDNH@wrong?5protocol?5type@ 10062efc     libucrt:syserr.obj
 0002:00002f10       ??_C@_0P@DIIFGFCG@stream?5timeout@ 10062f10     libucrt:syserr.obj
 0002:00002f20       ??_C@_09KJPPMAOI@timed?5out@ 10062f20     libucrt:syserr.obj
 0002:00002f2c       ??_C@_0P@IPFDMIFL@text?5file?5busy@ 10062f2c     libucrt:syserr.obj
 0002:00002f3c       ??_C@_0BG@OEMDKMEE@operation?5would?5block@ 10062f3c     libucrt:syserr.obj
 0002:00002f54       __sys_nerr                 10062f54     libucrt:syserr.obj
 0002:00002f58       ?ccs@?1???$__acrt_stdio_parse_mode@D@@YA?AU__acrt_stdio_stream_mode@@QBD@Z@4QBDB 10062f58     libucrt:openfile.obj
 0002:00002f5c       ?utf8_encoding@?1???$__acrt_stdio_parse_mode@D@@YA?AU__acrt_stdio_stream_mode@@QBD@Z@4QBDB 10062f5c     libucrt:openfile.obj
 0002:00002f64       ?utf16_encoding@?1???$__acrt_stdio_parse_mode@D@@YA?AU__acrt_stdio_stream_mode@@QBD@Z@4QBDB 10062f64     libucrt:openfile.obj
 0002:00002f6c       ?unicode_encoding@?1???$__acrt_stdio_parse_mode@D@@YA?AU__acrt_stdio_stream_mode@@QBD@Z@4QBDB 10062f6c     libucrt:openfile.obj
 0002:00002f74       ?ccs@?1???$__acrt_stdio_parse_mode@_W@@YA?AU__acrt_stdio_stream_mode@@QB_W@Z@4QB_WB 10062f74     libucrt:openfile.obj
 0002:00002f7c       ?utf8_encoding@?1???$__acrt_stdio_parse_mode@_W@@YA?AU__acrt_stdio_stream_mode@@QB_W@Z@4QB_WB 10062f7c     libucrt:openfile.obj
 0002:00002f88       ?utf16_encoding@?1???$__acrt_stdio_parse_mode@_W@@YA?AU__acrt_stdio_stream_mode@@QB_W@Z@4QB_WB 10062f88     libucrt:openfile.obj
 0002:00002f98       ?unicode_encoding@?1???$__acrt_stdio_parse_mode@_W@@YA?AU__acrt_stdio_stream_mode@@QB_W@Z@4QB_WB 10062f98     libucrt:openfile.obj
 0002:00002fb8       ??_C@_1M@HPNHIDJI@?$AAj?$AAa?$AA?9?$AAJ?$AAP@ 10062fb8     libucrt:mbctype.obj
 0002:00002fc4       ??_C@_1M@BIBDDEMK@?$AAz?$AAh?$AA?9?$AAC?$AAN@ 10062fc4     libucrt:mbctype.obj
 0002:00002fd0       ??_C@_1M@JLOOOEGK@?$AAk?$AAo?$AA?9?$AAK?$AAR@ 10062fd0     libucrt:mbctype.obj
 0002:00002fdc       ??_C@_1M@CLNBBOPM@?$AAz?$AAh?$AA?9?$AAT?$AAW@ 10062fdc     libucrt:mbctype.obj
 0002:00002fe8       ___newctype                10062fe8     libucrt:ctype.obj
 0002:000032e8       ___newclmap                100632e8     libucrt:ctype.obj
 0002:00003468       ___newcumap                10063468     libucrt:ctype.obj
 0002:000035e8       __wctype                   100635e8     libucrt:ctype.obj
 0002:000037ec       ??_C@_1DE@JNGNBFGO@?$AAR?$AAu?$AAn?$AAt?$AAi?$AAm?$AAe?$AA?5?$AAE?$AAr?$AAr?$AAo?$AAr?$AA?$CB?$AA?6@ 100637ec     libucrt:report_runtime_error.obj
 0002:00003820       ??_C@_1CO@EAEJAADC@?$AA?$DM?$AAp?$AAr?$AAo?$AAg?$AAr?$AAa?$AAm?$AA?5?$AAn?$AAa?$AAm?$AAe?$AA?5?$AAu@ 10063820     libucrt:report_runtime_error.obj
 0002:00003850       ??_C@_17LGKOMLJ@?$AA?4?$AA?4?$AA?4@ 10063850     libucrt:report_runtime_error.obj
 0002:00003858       ??_C@_15IABLJNFO@?$AA?6?$AA?6@ 10063858     libucrt:report_runtime_error.obj
 0002:00003860       ??_C@_1EK@MBDPDCGA@?$AAM?$AAi?$AAc?$AAr?$AAo?$AAs?$AAo?$AAf?$AAt?$AA?5?$AAV?$AAi?$AAs?$AAu?$AAa@ 10063860     libucrt:report_runtime_error.obj
 0002:000038b0       ___acrt_rg_language        100638b0     libucrt:get_qualified_locale.obj
 0002:00003bbc       ___acrt_rg_language_count  10063bbc     libucrt:get_qualified_locale.obj
 0002:00003bc0       ___acrt_rg_country         10063bc0     libucrt:get_qualified_locale.obj
 0002:00003cd4       ___acrt_rg_country_count   10063cd4     libucrt:get_qualified_locale.obj
 0002:00003cd8       ??_C@_1BC@LLOKLNP@?$AAa?$AAm?$AAe?$AAr?$AAi?$AAc?$AAa?$AAn@ 10063cd8     libucrt:get_qualified_locale.obj
 0002:00003cec       ??_C@_1CC@HEIGCDGG@?$AAa?$AAm?$AAe?$AAr?$AAi?$AAc?$AAa?$AAn?$AA?5?$AAe?$AAn?$AAg?$AAl?$AAi?$AAs@ 10063cec     libucrt:get_qualified_locale.obj
 0002:00003d10       ??_C@_1CC@IHCNOMIN@?$AAa?$AAm?$AAe?$AAr?$AAi?$AAc?$AAa?$AAn?$AA?9?$AAe?$AAn?$AAg?$AAl?$AAi?$AAs@ 10063d10     libucrt:get_qualified_locale.obj
 0002:00003d34       ??_C@_1BG@GKAGPCGG@?$AAa?$AAu?$AAs?$AAt?$AAr?$AAa?$AAl?$AAi?$AAa?$AAn@ 10063d34     libucrt:get_qualified_locale.obj
 0002:00003d4c       ??_C@_1BA@GMENCENF@?$AAb?$AAe?$AAl?$AAg?$AAi?$AAa?$AAn@ 10063d4c     libucrt:get_qualified_locale.obj
 0002:00003d5c       ??_C@_1BC@PJMIIAAN@?$AAc?$AAa?$AAn?$AAa?$AAd?$AAi?$AAa?$AAn@ 10063d5c     libucrt:get_qualified_locale.obj
 0002:00003d70       ??_C@_17NOIMNFBF@?$AAc?$AAh?$AAh@ 10063d70     libucrt:get_qualified_locale.obj
 0002:00003d78       ??_C@_17GGDALCHA@?$AAc?$AAh?$AAi@ 10063d78     libucrt:get_qualified_locale.obj
 0002:00003d80       ??_C@_1BA@NPNJKIBL@?$AAc?$AAh?$AAi?$AAn?$AAe?$AAs?$AAe@ 10063d80     libucrt:get_qualified_locale.obj
 0002:00003d90       ??_C@_1CC@DINBAMMJ@?$AAc?$AAh?$AAi?$AAn?$AAe?$AAs?$AAe?$AA?9?$AAh?$AAo?$AAn?$AAg?$AAk?$AAo?$AAn@ 10063d90     libucrt:get_qualified_locale.obj
 0002:00003db4       ??_C@_1CG@IOBJPACO@?$AAc?$AAh?$AAi?$AAn?$AAe?$AAs?$AAe?$AA?9?$AAs?$AAi?$AAm?$AAp?$AAl?$AAi?$AAf@ 10063db4     libucrt:get_qualified_locale.obj
 0002:00003ddc       ??_C@_1CE@GAJNDCKG@?$AAc?$AAh?$AAi?$AAn?$AAe?$AAs?$AAe?$AA?9?$AAs?$AAi?$AAn?$AAg?$AAa?$AAp?$AAo@ 10063ddc     libucrt:get_qualified_locale.obj
 0002:00003e00       ??_C@_1CI@PAJPIOOD@?$AAc?$AAh?$AAi?$AAn?$AAe?$AAs?$AAe?$AA?9?$AAt?$AAr?$AAa?$AAd?$AAi?$AAt?$AAi@ 10063e00     libucrt:get_qualified_locale.obj
 0002:00003e28       ??_C@_1BM@NILJBMMD@?$AAd?$AAu?$AAt?$AAc?$AAh?$AA?9?$AAb?$AAe?$AAl?$AAg?$AAi?$AAa?$AAn@ 10063e28     libucrt:get_qualified_locale.obj
 0002:00003e44       ??_C@_1CC@OOJPJNEJ@?$AAe?$AAn?$AAg?$AAl?$AAi?$AAs?$AAh?$AA?9?$AAa?$AAm?$AAe?$AAr?$AAi?$AAc?$AAa@ 10063e44     libucrt:get_qualified_locale.obj
 0002:00003e68       ??_C@_1BI@IOLFEEM@?$AAe?$AAn?$AAg?$AAl?$AAi?$AAs?$AAh?$AA?9?$AAa?$AAu?$AAs@ 10063e68     libucrt:get_qualified_locale.obj
 0002:00003e80       ??_C@_1BO@HFFNLENJ@?$AAe?$AAn?$AAg?$AAl?$AAi?$AAs?$AAh?$AA?9?$AAb?$AAe?$AAl?$AAi?$AAz?$AAe@ 10063e80     libucrt:get_qualified_locale.obj
 0002:00003ea0       ??_C@_1BI@HAPKJMPO@?$AAe?$AAn?$AAg?$AAl?$AAi?$AAs?$AAh?$AA?9?$AAc?$AAa?$AAn@ 10063ea0     libucrt:get_qualified_locale.obj
 0002:00003eb8       ??_C@_1CE@HLNDMIOJ@?$AAe?$AAn?$AAg?$AAl?$AAi?$AAs?$AAh?$AA?9?$AAc?$AAa?$AAr?$AAi?$AAb?$AAb?$AAe@ 10063eb8     libucrt:get_qualified_locale.obj
 0002:00003edc       ??_C@_1BI@LDHJHHAC@?$AAe?$AAn?$AAg?$AAl?$AAi?$AAs?$AAh?$AA?9?$AAi?$AAr?$AAe@ 10063edc     libucrt:get_qualified_locale.obj
 0002:00003ef4       ??_C@_1CA@NJMMCFOC@?$AAe?$AAn?$AAg?$AAl?$AAi?$AAs?$AAh?$AA?9?$AAj?$AAa?$AAm?$AAa?$AAi?$AAc?$AAa@ 10063ef4     libucrt:get_qualified_locale.obj
 0002:00003f14       ??_C@_1BG@BHJEBBGG@?$AAe?$AAn?$AAg?$AAl?$AAi?$AAs?$AAh?$AA?9?$AAn?$AAz@ 10063f14     libucrt:get_qualified_locale.obj
 0002:00003f2c       ??_C@_1CK@FGOEJJCO@?$AAe?$AAn?$AAg?$AAl?$AAi?$AAs?$AAh?$AA?9?$AAs?$AAo?$AAu?$AAt?$AAh?$AA?5?$AAa@ 10063f2c     libucrt:get_qualified_locale.obj
 0002:00003f58       ??_C@_1DE@PDBJPCJ@?$AAe?$AAn?$AAg?$AAl?$AAi?$AAs?$AAh?$AA?9?$AAt?$AAr?$AAi?$AAn?$AAi?$AAd?$AAa@ 10063f58     libucrt:get_qualified_locale.obj
 0002:00003f8c       ??_C@_1BG@JGCANDME@?$AAe?$AAn?$AAg?$AAl?$AAi?$AAs?$AAh?$AA?9?$AAu?$AAk@ 10063f8c     libucrt:get_qualified_locale.obj
 0002:00003fa4       ??_C@_1BG@DINKMLE@?$AAe?$AAn?$AAg?$AAl?$AAi?$AAs?$AAh?$AA?9?$AAu?$AAs@ 10063fa4     libucrt:get_qualified_locale.obj
 0002:00003fbc       ??_C@_1BI@NMFDBHJE@?$AAe?$AAn?$AAg?$AAl?$AAi?$AAs?$AAh?$AA?9?$AAu?$AAs?$AAa@ 10063fbc     libucrt:get_qualified_locale.obj
 0002:00003fd4       ??_C@_1BO@OIHKJKII@?$AAf?$AAr?$AAe?$AAn?$AAc?$AAh?$AA?9?$AAb?$AAe?$AAl?$AAg?$AAi?$AAa?$AAn@ 10063fd4     libucrt:get_qualified_locale.obj
 0002:00003ff4       ??_C@_1CA@NKAELJKI@?$AAf?$AAr?$AAe?$AAn?$AAc?$AAh?$AA?9?$AAc?$AAa?$AAn?$AAa?$AAd?$AAi?$AAa?$AAn@ 10063ff4     libucrt:get_qualified_locale.obj
 0002:00004014       ??_C@_1CE@MGKCNLGN@?$AAf?$AAr?$AAe?$AAn?$AAc?$AAh?$AA?9?$AAl?$AAu?$AAx?$AAe?$AAm?$AAb?$AAo?$AAu@ 10064014     libucrt:get_qualified_locale.obj
 0002:00004038       ??_C@_1BK@CEGEAILM@?$AAf?$AAr?$AAe?$AAn?$AAc?$AAh?$AA?9?$AAs?$AAw?$AAi?$AAs?$AAs@ 10064038     libucrt:get_qualified_locale.obj
 0002:00004054       ??_C@_1CA@PAFKEOCC@?$AAg?$AAe?$AAr?$AAm?$AAa?$AAn?$AA?9?$AAa?$AAu?$AAs?$AAt?$AAr?$AAi?$AAa?$AAn@ 10064054     libucrt:get_qualified_locale.obj
 0002:00004074       ??_C@_1CI@HCFHGOFD@?$AAg?$AAe?$AAr?$AAm?$AAa?$AAn?$AA?9?$AAl?$AAi?$AAc?$AAh?$AAt?$AAe?$AAn?$AAs@ 10064074     libucrt:get_qualified_locale.obj
 0002:0000409c       ??_C@_1CE@FEDDNPDG@?$AAg?$AAe?$AAr?$AAm?$AAa?$AAn?$AA?9?$AAl?$AAu?$AAx?$AAe?$AAm?$AAb?$AAo?$AAu@ 1006409c     libucrt:get_qualified_locale.obj
 0002:000040c0       ??_C@_1BK@LIMINNMN@?$AAg?$AAe?$AAr?$AAm?$AAa?$AAn?$AA?9?$AAs?$AAw?$AAi?$AAs?$AAs@ 100640c0     libucrt:get_qualified_locale.obj
 0002:000040dc       ??_C@_1BM@LGMDBEPD@?$AAi?$AAr?$AAi?$AAs?$AAh?$AA?9?$AAe?$AAn?$AAg?$AAl?$AAi?$AAs?$AAh@ 100640dc     libucrt:get_qualified_locale.obj
 0002:000040f8       ??_C@_1BM@NNCFBAEE@?$AAi?$AAt?$AAa?$AAl?$AAi?$AAa?$AAn?$AA?9?$AAs?$AAw?$AAi?$AAs?$AAs@ 100640f8     libucrt:get_qualified_locale.obj
 0002:00004114       ??_C@_1BE@FEDJNPIB@?$AAn?$AAo?$AAr?$AAw?$AAe?$AAg?$AAi?$AAa?$AAn@ 10064114     libucrt:get_qualified_locale.obj
 0002:00004128       ??_C@_1CC@CILKDEIE@?$AAn?$AAo?$AAr?$AAw?$AAe?$AAg?$AAi?$AAa?$AAn?$AA?9?$AAb?$AAo?$AAk?$AAm?$AAa@ 10064128     libucrt:get_qualified_locale.obj
 0002:0000414c       ??_C@_1CE@DHMMHEPL@?$AAn?$AAo?$AAr?$AAw?$AAe?$AAg?$AAi?$AAa?$AAn?$AA?9?$AAn?$AAy?$AAn?$AAo?$AAr@ 1006414c     libucrt:get_qualified_locale.obj
 0002:00004170       ??_C@_1CK@OPNMHECD@?$AAp?$AAo?$AAr?$AAt?$AAu?$AAg?$AAu?$AAe?$AAs?$AAe?$AA?9?$AAb?$AAr?$AAa?$AAz@ 10064170     libucrt:get_qualified_locale.obj
 0002:0000419c       ??_C@_1CE@KEEHCDB@?$AAs?$AAp?$AAa?$AAn?$AAi?$AAs?$AAh?$AA?9?$AAa?$AAr?$AAg?$AAe?$AAn?$AAt?$AAi@ 1006419c     libucrt:get_qualified_locale.obj
 0002:000041c0       ??_C@_1CA@GIAOLHJD@?$AAs?$AAp?$AAa?$AAn?$AAi?$AAs?$AAh?$AA?9?$AAb?$AAo?$AAl?$AAi?$AAv?$AAi?$AAa@ 100641c0     libucrt:get_qualified_locale.obj
 0002:000041e0       ??_C@_1BM@OJNDFNPD@?$AAs?$AAp?$AAa?$AAn?$AAi?$AAs?$AAh?$AA?9?$AAc?$AAh?$AAi?$AAl?$AAe@ 100641e0     libucrt:get_qualified_locale.obj
 0002:000041fc       ??_C@_1CC@OCOLPALL@?$AAs?$AAp?$AAa?$AAn?$AAi?$AAs?$AAh?$AA?9?$AAc?$AAo?$AAl?$AAo?$AAm?$AAb?$AAi@ 100641fc     libucrt:get_qualified_locale.obj
 0002:00004220       ??_C@_1CG@BPOFMKBB@?$AAs?$AAp?$AAa?$AAn?$AAi?$AAs?$AAh?$AA?9?$AAc?$AAo?$AAs?$AAt?$AAa?$AA?5?$AAr@ 10064220     libucrt:get_qualified_locale.obj
 0002:00004248       ??_C@_1DG@IGOBAPBB@?$AAs?$AAp?$AAa?$AAn?$AAi?$AAs?$AAh?$AA?9?$AAd?$AAo?$AAm?$AAi?$AAn?$AAi?$AAc@ 10064248     libucrt:get_qualified_locale.obj
 0002:00004280       ??_C@_1CA@JHAPGEGI@?$AAs?$AAp?$AAa?$AAn?$AAi?$AAs?$AAh?$AA?9?$AAe?$AAc?$AAu?$AAa?$AAd?$AAo?$AAr@ 10064280     libucrt:get_qualified_locale.obj
 0002:000042a0       ??_C@_1CI@LAPALJPP@?$AAs?$AAp?$AAa?$AAn?$AAi?$AAs?$AAh?$AA?9?$AAe?$AAl?$AA?5?$AAs?$AAa?$AAl?$AAv@ 100642a0     libucrt:get_qualified_locale.obj
 0002:000042c8       ??_C@_1CE@PDGBOFOM@?$AAs?$AAp?$AAa?$AAn?$AAi?$AAs?$AAh?$AA?9?$AAg?$AAu?$AAa?$AAt?$AAe?$AAm?$AAa@ 100642c8     libucrt:get_qualified_locale.obj
 0002:000042ec       ??_C@_1CC@NBEBAODI@?$AAs?$AAp?$AAa?$AAn?$AAi?$AAs?$AAh?$AA?9?$AAh?$AAo?$AAn?$AAd?$AAu?$AAr?$AAa@ 100642ec     libucrt:get_qualified_locale.obj
 0002:00004310       ??_C@_1CA@LLKGHBMF@?$AAs?$AAp?$AAa?$AAn?$AAi?$AAs?$AAh?$AA?9?$AAm?$AAe?$AAx?$AAi?$AAc?$AAa?$AAn@ 10064310     libucrt:get_qualified_locale.obj
 0002:00004330       ??_C@_1BO@LKNDOIGD@?$AAs?$AAp?$AAa?$AAn?$AAi?$AAs?$AAh?$AA?9?$AAm?$AAo?$AAd?$AAe?$AAr?$AAn@ 10064330     libucrt:get_qualified_locale.obj
 0002:00004350       ??_C@_1CE@NMDMOEEB@?$AAs?$AAp?$AAa?$AAn?$AAi?$AAs?$AAh?$AA?9?$AAn?$AAi?$AAc?$AAa?$AAr?$AAa?$AAg@ 10064350     libucrt:get_qualified_locale.obj
 0002:00004374       ??_C@_1BO@LLCBEJGB@?$AAs?$AAp?$AAa?$AAn?$AAi?$AAs?$AAh?$AA?9?$AAp?$AAa?$AAn?$AAa?$AAm?$AAa@ 10064374     libucrt:get_qualified_locale.obj
 0002:00004394       ??_C@_1CC@FKPGGIHO@?$AAs?$AAp?$AAa?$AAn?$AAi?$AAs?$AAh?$AA?9?$AAp?$AAa?$AAr?$AAa?$AAg?$AAu?$AAa@ 10064394     libucrt:get_qualified_locale.obj
 0002:000043b8       ??_C@_1BK@CDEIHOOP@?$AAs?$AAp?$AAa?$AAn?$AAi?$AAs?$AAh?$AA?9?$AAp?$AAe?$AAr?$AAu@ 100643b8     libucrt:get_qualified_locale.obj
 0002:000043d4       ??_C@_1CI@GAHAKKGP@?$AAs?$AAp?$AAa?$AAn?$AAi?$AAs?$AAh?$AA?9?$AAp?$AAu?$AAe?$AAr?$AAt?$AAo?$AA?5@ 100643d4     libucrt:get_qualified_locale.obj
 0002:000043fc       ??_C@_1CA@NKJBCAGP@?$AAs?$AAp?$AAa?$AAn?$AAi?$AAs?$AAh?$AA?9?$AAu?$AAr?$AAu?$AAg?$AAu?$AAa?$AAy@ 100643fc     libucrt:get_qualified_locale.obj
 0002:0000441c       ??_C@_1CE@ODILCONM@?$AAs?$AAp?$AAa?$AAn?$AAi?$AAs?$AAh?$AA?9?$AAv?$AAe?$AAn?$AAe?$AAz?$AAu?$AAe@ 1006441c     libucrt:get_qualified_locale.obj
 0002:00004440       ??_C@_1CA@OBNMCGFO@?$AAs?$AAw?$AAe?$AAd?$AAi?$AAs?$AAh?$AA?9?$AAf?$AAi?$AAn?$AAl?$AAa?$AAn?$AAd@ 10064440     libucrt:get_qualified_locale.obj
 0002:00004460       ??_C@_1M@PIPDDPPI@?$AAs?$AAw?$AAi?$AAs?$AAs@ 10064460     libucrt:get_qualified_locale.obj
 0002:0000446c       ??_C@_15PJPFLCCM@?$AAu?$AAk@ 1006446c     libucrt:get_qualified_locale.obj
 0002:00004474       ??_C@_15GMFIMNFM@?$AAu?$AAs@ 10064474     libucrt:get_qualified_locale.obj
 0002:0000447c       ??_C@_17HAEBFAGL@?$AAu?$AAs?$AAa@ 1006447c     libucrt:get_qualified_locale.obj
 0002:00004484       ??_C@_1BA@DPFJEPHB@?$AAa?$AAm?$AAe?$AAr?$AAi?$AAc?$AAa@ 10064484     libucrt:get_qualified_locale.obj
 0002:00004494       ??_C@_1BA@ELOGGFK@?$AAb?$AAr?$AAi?$AAt?$AAa?$AAi?$AAn@ 10064494     libucrt:get_qualified_locale.obj
 0002:000044a4       ??_C@_1M@GHBGIGDA@?$AAc?$AAh?$AAi?$AAn?$AAa@ 100644a4     libucrt:get_qualified_locale.obj
 0002:000044b0       ??_C@_1M@NCHEJOPO@?$AAc?$AAz?$AAe?$AAc?$AAh@ 100644b0     libucrt:get_qualified_locale.obj
 0002:000044bc       ??_C@_1BA@BKPAPBLA@?$AAe?$AAn?$AAg?$AAl?$AAa?$AAn?$AAd@ 100644bc     libucrt:get_qualified_locale.obj
 0002:000044cc       ??_C@_1BM@HKBCKIPC@?$AAg?$AAr?$AAe?$AAa?$AAt?$AA?5?$AAb?$AAr?$AAi?$AAt?$AAa?$AAi?$AAn@ 100644cc     libucrt:get_qualified_locale.obj
 0002:000044e8       ??_C@_1BA@PPCHPGJB@?$AAh?$AAo?$AAl?$AAl?$AAa?$AAn?$AAd@ 100644e8     libucrt:get_qualified_locale.obj
 0002:000044f8       ??_C@_1BE@JBMPEGDG@?$AAh?$AAo?$AAn?$AAg?$AA?9?$AAk?$AAo?$AAn?$AAg@ 100644f8     libucrt:get_qualified_locale.obj
 0002:0000450c       ??_C@_1BI@KOELBBPJ@?$AAn?$AAe?$AAw?$AA?9?$AAz?$AAe?$AAa?$AAl?$AAa?$AAn?$AAd@ 1006450c     libucrt:get_qualified_locale.obj
 0002:00004524       ??_C@_15HIEBHAIO@?$AAn?$AAz@ 10064524     libucrt:get_qualified_locale.obj
 0002:0000452c       ??_C@_1BC@CHBCPFPI@?$AAp?$AAr?$AA?5?$AAc?$AAh?$AAi?$AAn?$AAa@ 1006452c     libucrt:get_qualified_locale.obj
 0002:00004540       ??_C@_1BC@JAOIIFKD@?$AAp?$AAr?$AA?9?$AAc?$AAh?$AAi?$AAn?$AAa@ 10064540     libucrt:get_qualified_locale.obj
 0002:00004554       ??_C@_1BI@BEHPPHKC@?$AAp?$AAu?$AAe?$AAr?$AAt?$AAo?$AA?9?$AAr?$AAi?$AAc?$AAo@ 10064554     libucrt:get_qualified_locale.obj
 0002:0000456c       ??_C@_1O@PAEOFKDI@?$AAs?$AAl?$AAo?$AAv?$AAa?$AAk@ 1006456c     libucrt:get_qualified_locale.obj
 0002:0000457c       ??_C@_1BK@FIHMCKAM@?$AAs?$AAo?$AAu?$AAt?$AAh?$AA?5?$AAa?$AAf?$AAr?$AAi?$AAc?$AAa@ 1006457c     libucrt:get_qualified_locale.obj
 0002:00004598       ??_C@_1BI@NAEOODKB@?$AAs?$AAo?$AAu?$AAt?$AAh?$AA?5?$AAk?$AAo?$AAr?$AAe?$AAa@ 10064598     libucrt:get_qualified_locale.obj
 0002:000045b0       ??_C@_1BK@FBDGGIFF@?$AAs?$AAo?$AAu?$AAt?$AAh?$AA?9?$AAa?$AAf?$AAr?$AAi?$AAc?$AAa@ 100645b0     libucrt:get_qualified_locale.obj
 0002:000045cc       ??_C@_1BI@GHLEJDPK@?$AAs?$AAo?$AAu?$AAt?$AAh?$AA?9?$AAk?$AAo?$AAr?$AAe?$AAa@ 100645cc     libucrt:get_qualified_locale.obj
 0002:000045e4       ??_C@_1CE@PLHLOMJF@?$AAt?$AAr?$AAi?$AAn?$AAi?$AAd?$AAa?$AAd?$AA?5?$AA?$CG?$AA?5?$AAt?$AAo?$AAb?$AAa@ 100645e4     libucrt:get_qualified_locale.obj
 0002:00004608       ??_C@_1BO@MODIMHHI@?$AAu?$AAn?$AAi?$AAt?$AAe?$AAd?$AA?9?$AAk?$AAi?$AAn?$AAg?$AAd?$AAo?$AAm@ 10064608     libucrt:get_qualified_locale.obj
 0002:00004628       ??_C@_1BM@FFHJONBJ@?$AAu?$AAn?$AAi?$AAt?$AAe?$AAd?$AA?9?$AAs?$AAt?$AAa?$AAt?$AAe?$AAs@ 10064628     libucrt:get_qualified_locale.obj
 0002:00004644       ??_C@_19MPDNHKDG@?$AAu?$AAt?$AAf?$AA8@ 10064644     libucrt:get_qualified_locale.obj
 0002:00004650       ??_C@_17DNCLJFIF@?$AAA?$AAC?$AAP@ 10064650     libucrt:get_qualified_locale.obj
 0002:00004658       ??_C@_1M@FPEIIFAM@?$AAu?$AAt?$AAf?$AA?9?$AA8@ 10064658     libucrt:get_qualified_locale.obj
 0002:00004664       ??_C@_17CIKBIHLH@?$AAO?$AAC?$AAP@ 10064664     libucrt:get_qualified_locale.obj
 0002:0000466c       ___rglangidNotDefault      1006466c     libucrt:getqloc_downlevel.obj
 0002:00004da0       ??_C@_15EMKDOKLE@?$AAa?$AAr@ 10064da0     libucrt:lcidtoname_downlevel.obj
 0002:00004da8       ??_C@_15KNPADPLH@?$AAb?$AAg@ 10064da8     libucrt:lcidtoname_downlevel.obj
 0002:00004db0       ??_C@_15EDMHLDMO@?$AAc?$AAa@ 10064db0     libucrt:lcidtoname_downlevel.obj
 0002:00004db8       ??_C@_1O@BPEAJADD@?$AAz?$AAh?$AA?9?$AAC?$AAH?$AAS@ 10064db8     libucrt:lcidtoname_downlevel.obj
 0002:00004dc8       ??_C@_15LJNHCMNK@?$AAc?$AAs@ 10064dc8     libucrt:lcidtoname_downlevel.obj
 0002:00004dd0       ??_C@_15FOMCIDHG@?$AAd?$AAa@ 10064dd0     libucrt:lcidtoname_downlevel.obj
 0002:00004dd8       ??_C@_15NBKABECB@?$AAd?$AAe@ 10064dd8     libucrt:lcidtoname_downlevel.obj
 0002:00004de0       ??_C@_15GHPEIIAO@?$AAe?$AAl@ 10064de0     libucrt:lcidtoname_downlevel.obj
 0002:00004de8       ??_C@_15MNPNEAIF@?$AAe?$AAn@ 10064de8     libucrt:lcidtoname_downlevel.obj
 0002:00004df0       ??_C@_15GPIOMPMH@?$AAe?$AAs@ 10064df0     libucrt:lcidtoname_downlevel.obj
 0002:00004df8       ??_C@_15NGLOAKJC@?$AAf?$AAi@ 10064df8     libucrt:lcidtoname_downlevel.obj
 0002:00004e00       ??_C@_15FBKGNKAM@?$AAf?$AAr@ 10064e00     libucrt:lcidtoname_downlevel.obj
 0002:00004e08       ??_C@_15KGGCNEFK@?$AAh?$AAe@ 10064e08     libucrt:lcidtoname_downlevel.obj
 0002:00004e10       ??_C@_15PGHLIDMF@?$AAh?$AAu@ 10064e10     libucrt:lcidtoname_downlevel.obj
 0002:00004e18       ??_C@_15BIEMAPLM@?$AAi?$AAs@ 10064e18     libucrt:lcidtoname_downlevel.obj
 0002:00004e20       ??_C@_15IFJLDHAF@?$AAi?$AAt@ 10064e20     libucrt:lcidtoname_downlevel.obj
 0002:00004e28       ??_C@_15GEMIOCAG@?$AAj?$AAa@ 10064e28     libucrt:lcidtoname_downlevel.obj
 0002:00004e30       ??_C@_15EPELEGJA@?$AAk?$AAo@ 10064e30     libucrt:lcidtoname_downlevel.obj
 0002:00004e38       ??_C@_15NDDHIMN@?$AAn?$AAl@ 10064e38     libucrt:lcidtoname_downlevel.obj
 0002:00004e40       ??_C@_15BPIGNHCD@?$AAn?$AAo@ 10064e40     libucrt:lcidtoname_downlevel.obj
 0002:00004e48       ??_C@_15DEOPBLCG@?$AAp?$AAl@ 10064e48     libucrt:lcidtoname_downlevel.obj
 0002:00004e50       ??_C@_15KBECGEFG@?$AAp?$AAt@ 10064e50     libucrt:lcidtoname_downlevel.obj
 0002:00004e58       ??_C@_15GLJCBFMD@?$AAr?$AAo@ 10064e58     libucrt:lcidtoname_downlevel.obj
 0002:00004e60       ??_C@_15FEDGKCDI@?$AAr?$AAu@ 10064e60     libucrt:lcidtoname_downlevel.obj
 0002:00004e68       ??_C@_15GLKMLLHM@?$AAh?$AAr@ 10064e68     libucrt:lcidtoname_downlevel.obj
 0002:00004e70       ??_C@_15CPKMFBDB@?$AAs?$AAk@ 10064e70     libucrt:lcidtoname_downlevel.obj
 0002:00004e78       ??_C@_15BAAIOGMK@?$AAs?$AAq@ 10064e78     libucrt:lcidtoname_downlevel.obj
 0002:00004e80       ??_C@_15INNPNOHD@?$AAs?$AAv@ 10064e80     libucrt:lcidtoname_downlevel.obj
 0002:00004e88       ??_C@_15CABMMOGH@?$AAt?$AAh@ 10064e88     libucrt:lcidtoname_downlevel.obj
 0002:00004e90       ??_C@_15BPLIHJJM@?$AAt?$AAr@ 10064e90     libucrt:lcidtoname_downlevel.obj
 0002:00004e98       ??_C@_15NEOEKKDJ@?$AAu?$AAr@ 10064e98     libucrt:lcidtoname_downlevel.obj
 0002:00004ea0       ??_C@_15NFICGAJK@?$AAi?$AAd@ 10064ea0     libucrt:lcidtoname_downlevel.obj
 0002:00004ea8       ??_C@_15HPJPHDM@?$AAb?$AAe@ 10064ea8     libucrt:lcidtoname_downlevel.obj
 0002:00004eb0       ??_C@_15LCHLGJII@?$AAs?$AAl@ 10064eb0     libucrt:lcidtoname_downlevel.obj
 0002:00004eb8       ??_C@_15PCFJPHHO@?$AAe?$AAt@ 10064eb8     libucrt:lcidtoname_downlevel.obj
 0002:00004ec0       ??_C@_15HPFPGODN@?$AAl?$AAv@ 10064ec0     libucrt:lcidtoname_downlevel.obj
 0002:00004ec8       ??_C@_15NFFGKGLG@?$AAl?$AAt@ 10064ec8     libucrt:lcidtoname_downlevel.obj
 0002:00004ed0       ??_C@_15BDAKCCHN@?$AAf?$AAa@ 10064ed0     libucrt:lcidtoname_downlevel.obj
 0002:00004ed8       ??_C@_15NFGIAIAJ@?$AAv?$AAi@ 10064ed8     libucrt:lcidtoname_downlevel.obj
 0002:00004ee0       ??_C@_15LMKNDMHN@?$AAh?$AAy@ 10064ee0     libucrt:lcidtoname_downlevel.obj
 0002:00004ee8       ??_C@_15IJBHMCFL@?$AAa?$AAz@ 10064ee8     libucrt:lcidtoname_downlevel.obj
 0002:00004ef0       ??_C@_15EKOFJABL@?$AAe?$AAu@ 10064ef0     libucrt:lcidtoname_downlevel.obj
 0002:00004ef8       ??_C@_15BGHADCNK@?$AAm?$AAk@ 10064ef8     libucrt:lcidtoname_downlevel.obj
 0002:00004f00       ??_C@_15JDNICKHM@?$AAa?$AAf@ 10064f00     libucrt:lcidtoname_downlevel.obj
 0002:00004f08       ??_C@_15KPJEDBKD@?$AAk?$AAa@ 10064f08     libucrt:lcidtoname_downlevel.obj
 0002:00004f10       ??_C@_15PDNFFFEO@?$AAf?$AAo@ 10064f10     libucrt:lcidtoname_downlevel.obj
 0002:00004f18       ??_C@_15OMLEGLOC@?$AAh?$AAi@ 10064f18     libucrt:lcidtoname_downlevel.obj
 0002:00004f20       ??_C@_15IDNNENKK@?$AAm?$AAs@ 10064f20     libucrt:lcidtoname_downlevel.obj
 0002:00004f28       ??_C@_15MACJNBMH@?$AAk?$AAk@ 10064f28     libucrt:lcidtoname_downlevel.obj
 0002:00004f30       ??_C@_15DKDJEOND@?$AAk?$AAy@ 10064f30     libucrt:lcidtoname_downlevel.obj
 0002:00004f38       ??_C@_15DFGDLJBG@?$AAs?$AAw@ 10064f38     libucrt:lcidtoname_downlevel.obj
 0002:00004f40       ??_C@_15BBFAICNG@?$AAu?$AAz@ 10064f40     libucrt:lcidtoname_downlevel.obj
 0002:00004f48       ??_C@_15DKNDCGEA@?$AAt?$AAt@ 10064f48     libucrt:lcidtoname_downlevel.obj
 0002:00004f50       ??_C@_15MGIFMDPL@?$AAp?$AAa@ 10064f50     libucrt:lcidtoname_downlevel.obj
 0002:00004f58       ??_C@_15HCNDBBA@?$AAg?$AAu@ 10064f58     libucrt:lcidtoname_downlevel.obj
 0002:00004f60       ??_C@_15FNBEIBON@?$AAt?$AAa@ 10064f60     libucrt:lcidtoname_downlevel.obj
 0002:00004f68       ??_C@_15NCHGBGLK@?$AAt?$AAe@ 10064f68     libucrt:lcidtoname_downlevel.obj
 0002:00004f70       ??_C@_15PHPHCBPF@?$AAk?$AAn@ 10064f70     libucrt:lcidtoname_downlevel.obj
 0002:00004f78       ??_C@_15DLGBCKMP@?$AAm?$AAr@ 10064f78     libucrt:lcidtoname_downlevel.obj
 0002:00004f80       ??_C@_15EABBLBFF@?$AAs?$AAa@ 10064f80     libucrt:lcidtoname_downlevel.obj
 0002:00004f88       ??_C@_15CBKOMCOI@?$AAm?$AAn@ 10064f88     libucrt:lcidtoname_downlevel.obj
 0002:00004f90       ??_C@_15CKDMCJAF@?$AAg?$AAl@ 10064f90     libucrt:lcidtoname_downlevel.obj
 0002:00004f98       ??_C@_17CNJFBPG@?$AAk?$AAo?$AAk@ 10064f98     libucrt:lcidtoname_downlevel.obj
 0002:00004fa0       ??_C@_17FFBJICPL@?$AAs?$AAy?$AAr@ 10064fa0     libucrt:lcidtoname_downlevel.obj
 0002:00004fa8       ??_C@_17KPNDCPAF@?$AAd?$AAi?$AAv@ 10064fa8     libucrt:lcidtoname_downlevel.obj
 0002:00004fb0       ??_C@_11LOCGONAA@@         10064fb0     libucrt:lcidtoname_downlevel.obj
 0002:00004fb4       ??_C@_1M@OKAHONE@?$AAa?$AAr?$AA?9?$AAS?$AAA@ 10064fb4     libucrt:lcidtoname_downlevel.obj
 0002:00004fc0       ??_C@_1M@FFFIGIGK@?$AAb?$AAg?$AA?9?$AAB?$AAG@ 10064fc0     libucrt:lcidtoname_downlevel.obj
 0002:00004fcc       ??_C@_1M@BJNKEDC@?$AAc?$AAa?$AA?9?$AAE?$AAS@ 10064fcc     libucrt:lcidtoname_downlevel.obj
 0002:00004fd8       ??_C@_1M@IJJHFJHA@?$AAc?$AAs?$AA?9?$AAC?$AAZ@ 10064fd8     libucrt:lcidtoname_downlevel.obj
 0002:00004fe4       ??_C@_1M@CLPEOBGI@?$AAd?$AAa?$AA?9?$AAD?$AAK@ 10064fe4     libucrt:lcidtoname_downlevel.obj
